///////////////////////////////////////////////////////////////////////////////
//
// IAR C/C++ Compiler V10.30.1.6000 for 8051              30/Apr/2020  17:45:04
// Copyright 2004-2018 IAR Systems AB.
// PC-locked license - IAR Embedded Workbench for 8051
//
//    Core               =  plain
//    Code model         =  banked
//    Data model         =  large
//    Calling convention =  xdata reentrant
//    Constant location  =  data_rom
//    Dptr setup         =  1,16
//                          
//    Source file        =  
//        D:\MyData\Project\Graduation_project\GraduationProject_Hardware\ZStack-CC2530-r200\Components\stack\af\AF.c
//    Command line       =  
//        -f C:\Users\ADMINI~1\AppData\Local\Temp\EW27D5.tmp
//        (D:\MyData\Project\Graduation_project\GraduationProject_Hardware\ZStack-CC2530-r200\Components\stack\af\AF.c
//        -D NWK_AUTO_POLL -D ZTOOL_P1 -D xMT_TASK -D xMT_SYS_FUNC -D
//        MT_ZDO_FUNC -D SAPP_ZSTACK -lC
//        D:\MyData\Project\Graduation_project\GraduationProject_Hardware\ZStack-CC2530-r200\Projects\SappWsn\EndDeviceEB\List
//        -lA
//        D:\MyData\Project\Graduation_project\GraduationProject_Hardware\ZStack-CC2530-r200\Projects\SappWsn\EndDeviceEB\List
//        --diag_suppress Pe001,Pa010 -o
//        D:\MyData\Project\Graduation_project\GraduationProject_Hardware\ZStack-CC2530-r200\Projects\SappWsn\EndDeviceEB\Obj
//        -e --debug --core=plain --dptr=16,1 --data_model=large
//        --code_model=banked --calling_convention=xdata_reentrant
//        --place_constants=data_rom --nr_virtual_regs 12 -f
//        D:\MyData\Project\Graduation_project\GraduationProject_Hardware\ZStack-CC2530-r200\Projects\SappWsn\..\zstack\Tools\CC2530DB\f8wEndev.cfg
//        (-DCPU32MHZ -DROOT=__near_func -DMAC_CFG_TX_DATA_MAX=3
//        -DMAC_CFG_TX_MAX=6 -DMAC_CFG_RX_MAX=3) -f
//        D:\MyData\Project\Graduation_project\GraduationProject_Hardware\ZStack-CC2530-r200\Projects\SappWsn\..\zstack\Tools\CC2530DB\f8wConfig.cfg
//        (-DZIGBEEPRO -DSECURE=0 -DZG_SECURE_DYNAMIC=0 -DREFLECTOR
//        -DDEFAULT_CHANLIST=0x00000800 -DZDAPP_CONFIG_PAN_ID=0x0029
//        -DNWK_START_DELAY=100 -DEXTENDED_JOINING_RANDOM_MASK=0x007F
//        -DBEACON_REQUEST_DELAY=100 -DBEACON_REQ_DELAY_MASK=0x00FF
//        -DLINK_STATUS_JITTER_MASK=0x007F -DROUTE_EXPIRY_TIME=30
//        -DAPSC_ACK_WAIT_DURATION_POLLED=3000 -DNWK_INDIRECT_MSG_TIMEOUT=7
//        -DMAX_RREQ_ENTRIES=8 -DAPSC_MAX_FRAME_RETRIES=3
//        -DNWK_MAX_DATA_RETRIES=2 -DMAX_POLL_FAILURE_RETRIES=2 -DMAX_BCAST=9
//        -DAPS_MAX_GROUPS=16 -DMAX_RTG_ENTRIES=40 -DNWK_MAX_BINDING_ENTRIES=4
//        -DMAX_BINDING_CLUSTER_IDS=4 "-DDEFAULT_KEY={0x01, 0x03, 0x05, 0x07,
//        0x09, 0x0B, 0x0D, 0x0F, 0x00, 0x02, 0x04, 0x06, 0x08, 0x0A, 0x0C,
//        0x0D}" -DMAC_MAX_FRAME_SIZE=116 -DZDNWKMGR_MIN_TRANSMISSIONS=20
//        "-DCONST=const __code" -DGENERIC=__generic -DRFD_RCVC_ALWAYS_ON=FALSE
//        -DPOLL_RATE=1000 -DQUEUED_POLL_RATE=100 -DRESPONSE_POLL_RATE=100
//        -DREJOIN_POLL_RATE=440) -I
//        D:\MyData\Project\Graduation_project\GraduationProject_Hardware\ZStack-CC2530-r200\Projects\SappWsn\
//        -I
//        D:\MyData\Project\Graduation_project\GraduationProject_Hardware\ZStack-CC2530-r200\Projects\SappWsn\Source\
//        -I
//        D:\MyData\Project\Graduation_project\GraduationProject_Hardware\ZStack-CC2530-r200\Projects\SappWsn\..\zstack\ZMain\TI2530DB\
//        -I
//        D:\MyData\Project\Graduation_project\GraduationProject_Hardware\ZStack-CC2530-r200\Projects\SappWsn\..\..\Components\hal\include\
//        -I
//        D:\MyData\Project\Graduation_project\GraduationProject_Hardware\ZStack-CC2530-r200\Projects\SappWsn\..\..\Components\hal\target\CC2530EB\
//        -I
//        D:\MyData\Project\Graduation_project\GraduationProject_Hardware\ZStack-CC2530-r200\Projects\SappWsn\..\..\Components\mac\include\
//        -I
//        D:\MyData\Project\Graduation_project\GraduationProject_Hardware\ZStack-CC2530-r200\Projects\SappWsn\..\..\Components\mac\high_level\
//        -I
//        D:\MyData\Project\Graduation_project\GraduationProject_Hardware\ZStack-CC2530-r200\Projects\SappWsn\..\..\Components\mac\low_level\srf04\
//        -I
//        D:\MyData\Project\Graduation_project\GraduationProject_Hardware\ZStack-CC2530-r200\Projects\SappWsn\..\..\Components\mac\low_level\srf04\single_chip\
//        -I
//        D:\MyData\Project\Graduation_project\GraduationProject_Hardware\ZStack-CC2530-r200\Projects\SappWsn\..\..\Components\mt\
//        -I
//        D:\MyData\Project\Graduation_project\GraduationProject_Hardware\ZStack-CC2530-r200\Projects\SappWsn\..\..\Components\osal\include\
//        -I
//        D:\MyData\Project\Graduation_project\GraduationProject_Hardware\ZStack-CC2530-r200\Projects\SappWsn\..\..\Components\services\saddr\
//        -I
//        D:\MyData\Project\Graduation_project\GraduationProject_Hardware\ZStack-CC2530-r200\Projects\SappWsn\..\..\Components\services\sdata\
//        -I
//        D:\MyData\Project\Graduation_project\GraduationProject_Hardware\ZStack-CC2530-r200\Projects\SappWsn\..\..\Components\stack\af\
//        -I
//        D:\MyData\Project\Graduation_project\GraduationProject_Hardware\ZStack-CC2530-r200\Projects\SappWsn\..\..\Components\stack\nwk\
//        -I
//        D:\MyData\Project\Graduation_project\GraduationProject_Hardware\ZStack-CC2530-r200\Projects\SappWsn\..\..\Components\stack\sapi\
//        -I
//        D:\MyData\Project\Graduation_project\GraduationProject_Hardware\ZStack-CC2530-r200\Projects\SappWsn\..\..\Components\stack\sec\
//        -I
//        D:\MyData\Project\Graduation_project\GraduationProject_Hardware\ZStack-CC2530-r200\Projects\SappWsn\..\..\Components\stack\sys\
//        -I
//        D:\MyData\Project\Graduation_project\GraduationProject_Hardware\ZStack-CC2530-r200\Projects\SappWsn\..\..\Components\stack\zdo\
//        -I
//        D:\MyData\Project\Graduation_project\GraduationProject_Hardware\ZStack-CC2530-r200\Projects\SappWsn\..\..\Components\zmac\
//        -I
//        D:\MyData\Project\Graduation_project\GraduationProject_Hardware\ZStack-CC2530-r200\Projects\SappWsn\..\..\Components\zmac\f8w\
//        -Ohz --require_prototypes --no_code_motion)
//    Locale             =  Chinese (Simplified)_CHN.936
//    List file          =  
//        D:\MyData\Project\Graduation_project\GraduationProject_Hardware\ZStack-CC2530-r200\Projects\SappWsn\EndDeviceEB\List\AF.s51
//
///////////////////////////////////////////////////////////////////////////////

        NAME AF

        RTMODEL "__SystemLibrary", "CLib"
        RTMODEL "__calling_convention", "xdata_reentrant"
        RTMODEL "__code_model", "banked"
        RTMODEL "__core", "plain"
        RTMODEL "__data_model", "large"
        RTMODEL "__dptr_size", "16"
        RTMODEL "__extended_stack", "disabled"
        RTMODEL "__location_for_constants", "data"
        RTMODEL "__number_of_dptrs", "1"
        RTMODEL "__register_banks", "*"
        RTMODEL "__rt_version", "1"

        RSEG DOVERLAY:DATA:NOROOT(0)
        RSEG IOVERLAY:IDATA:NOROOT(0)
        RSEG ISTACK:IDATA:NOROOT(0)
        RSEG PSTACK:XDATA:NOROOT(0)
        RSEG XSTACK:XDATA:NOROOT(0)

        EXTERN ?V0
        EXTERN ?V1
        EXTERN ?V2
        EXTERN ?V3
        EXTERN ?V4
        EXTERN ?V5
        EXTERN ?V6
        EXTERN ?V7
        EXTERN ?V8
        EXTERN ?V9
        EXTERN ?V10
        EXTERN ?V11
        EXTERN ?ALLOC_XSTACK8
        EXTERN ?BANKED_ENTER_XDATA
        EXTERN ?BANKED_LEAVE_XDATA
        EXTERN ?BDISPATCH
        EXTERN ?BRET
        EXTERN ?CALL_IND
        EXTERN ?DEALLOC_XSTACK8
        EXTERN ?L_MOV_X
        EXTERN ?PUSH_XSTACK8_X_TWO
        EXTERN ?PUSH_XSTACK_I_FOUR
        EXTERN ?PUSH_XSTACK_I_ONE
        EXTERN ?PUSH_XSTACK_I_THREE
        EXTERN ?XLOAD_R0123
        EXTERN ?XSP
        EXTERN ?XSTACK_DISP0_8
        EXTERN ?XSTACK_DISP101_8
        EXTERN ?XSTORE_R0123
        EXTERN __INIT_XDATA_I
        EXTERN __INIT_XDATA_Z

        PUBLIC `??AF_DataRequest::?relay`
        FUNCTION `??AF_DataRequest::?relay`,0203H
        PUBLIC `??AF_DataRequestSrcRtg::?relay`
        FUNCTION `??AF_DataRequestSrcRtg::?relay`,0203H
        PUBLIC `??afAPSF_ConfigGet::?relay`
        FUNCTION `??afAPSF_ConfigGet::?relay`,0203H
        PUBLIC `??afAPSF_ConfigSet::?relay`
        FUNCTION `??afAPSF_ConfigSet::?relay`,0203H
        FUNCTION `??afBuildMSGIncoming::?relay`,0203H
        PUBLIC `??afCopyAddress::?relay`
        FUNCTION `??afCopyAddress::?relay`,0203H
        PUBLIC `??afDataConfirm::?relay`
        FUNCTION `??afDataConfirm::?relay`,0203H
        PUBLIC `??afDataReqMTU::?relay`
        FUNCTION `??afDataReqMTU::?relay`,0203H
        PUBLIC `??afEndPoints::?relay`
        FUNCTION `??afEndPoints::?relay`,0203H
        PUBLIC `??afFindEndPointDesc::?relay`
        FUNCTION `??afFindEndPointDesc::?relay`,0203H
        FUNCTION `??afFindEndPointDescList::?relay`,0203H
        PUBLIC `??afFindSimpleDesc::?relay`
        FUNCTION `??afFindSimpleDesc::?relay`,0203H
        PUBLIC `??afGetMatch::?relay`
        FUNCTION `??afGetMatch::?relay`,0203H
        PUBLIC `??afIncomingData::?relay`
        FUNCTION `??afIncomingData::?relay`,0203H
        PUBLIC `??afNumEndPoints::?relay`
        FUNCTION `??afNumEndPoints::?relay`,0203H
        PUBLIC `??afRegister::?relay`
        FUNCTION `??afRegister::?relay`,0203H
        PUBLIC `??afRegisterExtended::?relay`
        FUNCTION `??afRegisterExtended::?relay`,0203H
        PUBLIC `??afSetMatch::?relay`
        FUNCTION `??afSetMatch::?relay`,0203H
        PUBLIC AF_DataRequest
        FUNCTION AF_DataRequest,0a1203H
        ARGFRAME XSTACK, 21, STACK
        ARGFRAME IOVERLAY, 0, STATIC
        ARGFRAME DOVERLAY, 0, STATIC
        LOCFRAME ISTACK, 1, STACK
        LOCFRAME XSTACK, 46, STACK
        PUBLIC AF_DataRequestDiscoverRoute
        PUBLIC AF_DataRequestSrcRtg
        FUNCTION AF_DataRequestSrcRtg,0a1203H
        ARGFRAME XSTACK, 12, STACK
        LOCFRAME XSTACK, 21, STACK
        PUBLIC afAPSF_ConfigGet
        FUNCTION afAPSF_ConfigGet,0a1203H
        ARGFRAME XSTACK, 0, STACK
        LOCFRAME XSTACK, 15, STACK
        PUBLIC afAPSF_ConfigSet
        FUNCTION afAPSF_ConfigSet,0a1203H
        ARGFRAME XSTACK, 0, STACK
        LOCFRAME XSTACK, 15, STACK
        FUNCTION afBuildMSGIncoming,0a1203H
        ARGFRAME XSTACK, 37, STACK
        ARGFRAME IOVERLAY, 0, STATIC
        ARGFRAME DOVERLAY, 0, STATIC
        LOCFRAME ISTACK, 1, STACK
        LOCFRAME XSTACK, 21, STACK
        PUBLIC afCopyAddress
        FUNCTION afCopyAddress,021203H
        ARGFRAME XSTACK, 18, STACK
        ARGFRAME IOVERLAY, 0, STATIC
        ARGFRAME DOVERLAY, 0, STATIC
        LOCFRAME ISTACK, 1, STACK
        LOCFRAME XSTACK, 9, STACK
        PUBLIC afDataConfirm
        FUNCTION afDataConfirm,0a1203H
        ARGFRAME XSTACK, 46, STACK
        ARGFRAME IOVERLAY, 0, STATIC
        ARGFRAME DOVERLAY, 0, STATIC
        LOCFRAME ISTACK, 1, STACK
        LOCFRAME XSTACK, 14, STACK
        PUBLIC afDataReqMTU
        FUNCTION afDataReqMTU,021203H
        ARGFRAME XSTACK, 46, STACK
        ARGFRAME IOVERLAY, 0, STATIC
        ARGFRAME DOVERLAY, 0, STATIC
        LOCFRAME XSTACK, 9, STACK
        PUBLIC afEndPoints
        FUNCTION afEndPoints,0203H
        ARGFRAME XSTACK, 0, STACK
        LOCFRAME ISTACK, 3, STACK
        PUBLIC afFindEndPointDesc
        FUNCTION afFindEndPointDesc,0a1203H
        ARGFRAME XSTACK, 26, STACK
        ARGFRAME IOVERLAY, 0, STATIC
        ARGFRAME DOVERLAY, 0, STATIC
        LOCFRAME XSTACK, 10, STACK
        FUNCTION afFindEndPointDescList,0203H
        ARGFRAME XSTACK, 26, STACK
        ARGFRAME IOVERLAY, 0, STATIC
        ARGFRAME DOVERLAY, 0, STATIC
        LOCFRAME ISTACK, 2, STACK
        PUBLIC afFindSimpleDesc
        FUNCTION afFindSimpleDesc,0a1203H
        ARGFRAME XSTACK, 0, STACK
        LOCFRAME XSTACK, 12, STACK
        PUBLIC afGetMatch
        FUNCTION afGetMatch,0a1203H
        ARGFRAME XSTACK, 0, STACK
        LOCFRAME XSTACK, 10, STACK
        PUBLIC afIncomingData
        FUNCTION afIncomingData,0a1203H
        ARGFRAME XSTACK, 9, STACK
        LOCFRAME ISTACK, 1, STACK
        LOCFRAME XSTACK, 37, STACK
        PUBLIC afNumEndPoints
        FUNCTION afNumEndPoints,0203H
        ARGFRAME XSTACK, 0, STACK
        LOCFRAME ISTACK, 2, STACK
        PUBLIC afRegister
        FUNCTION afRegister,0a1203H
        ARGFRAME XSTACK, 0, STACK
        LOCFRAME XSTACK, 10, STACK
        PUBLIC afRegisterExtended
        FUNCTION afRegisterExtended,0a1203H
        ARGFRAME XSTACK, 10, STACK
        ARGFRAME IOVERLAY, 0, STATIC
        ARGFRAME DOVERLAY, 0, STATIC
        LOCFRAME XSTACK, 12, STACK
        PUBLIC afSetMatch
        FUNCTION afSetMatch,0a1203H
        ARGFRAME XSTACK, 0, STACK
        LOCFRAME XSTACK, 10, STACK
        PUBLIC epList
        
          CFI Names cfiNames0
          CFI StackFrame CFA_SP SP IDATA
          CFI StackFrame CFA_PSP16 PSP16 XDATA
          CFI StackFrame CFA_XSP16 XSP16 XDATA
          CFI StaticOverlayFrame CFA_IOVERLAY IOVERLAY
          CFI StaticOverlayFrame CFA_DOVERLAY DOVERLAY
          CFI Resource `PSW.CY`:1, `B.BR0`:1, `B.BR1`:1, `B.BR2`:1, `B.BR3`:1
          CFI Resource `B.BR4`:1, `B.BR5`:1, `B.BR6`:1, `B.BR7`:1, `VB.BR8`:1
          CFI Resource `VB.BR9`:1, `VB.BR10`:1, `VB.BR11`:1, `VB.BR12`:1
          CFI Resource `VB.BR13`:1, `VB.BR14`:1, `VB.BR15`:1, VB:8, B:8, A:8
          CFI Resource PSW:8, DPL0:8, DPH0:8, R0:8, R1:8, R2:8, R3:8, R4:8, R5:8
          CFI Resource R6:8, R7:8, V0:8, V1:8, V2:8, V3:8, V4:8, V5:8, V6:8, V7:8
          CFI Resource V8:8, V9:8, V10:8, V11:8, SP:8, PSPH:8, PSPL:8, PSP16:16
          CFI Resource XSPH:8, XSPL:8, XSP16:16
          CFI VirtualResource ?RET:24
          CFI Resource ?BRET_EXT:8
          CFI VirtualResource ?RET_HIGH:8, ?RET_LOW:8
          CFI ResourceParts PSP16 PSPH, PSPL
          CFI ResourceParts XSP16 XSPH, XSPL
          CFI ResourceParts ?RET ?BRET_EXT, ?RET_HIGH, ?RET_LOW
          CFI EndNames cfiNames0
        
          CFI Common cfiCommon0 Using cfiNames0
          CFI CodeAlign 1
          CFI DataAlign -1
          CFI ReturnAddress ?RET CODE
          CFI CFA_DOVERLAY Used
          CFI CFA_IOVERLAY Used
          CFI CFA_SP SP+-3
          CFI CFA_PSP16 PSP16+0
          CFI CFA_XSP16 XSP16+0
          CFI `PSW.CY` SameValue
          CFI `B.BR0` SameValue
          CFI `B.BR1` SameValue
          CFI `B.BR2` SameValue
          CFI `B.BR3` SameValue
          CFI `B.BR4` SameValue
          CFI `B.BR5` SameValue
          CFI `B.BR6` SameValue
          CFI `B.BR7` SameValue
          CFI `VB.BR8` SameValue
          CFI `VB.BR9` SameValue
          CFI `VB.BR10` SameValue
          CFI `VB.BR11` SameValue
          CFI `VB.BR12` SameValue
          CFI `VB.BR13` SameValue
          CFI `VB.BR14` SameValue
          CFI `VB.BR15` SameValue
          CFI VB SameValue
          CFI B Undefined
          CFI A Undefined
          CFI PSW SameValue
          CFI DPL0 SameValue
          CFI DPH0 SameValue
          CFI R0 Undefined
          CFI R1 Undefined
          CFI R2 Undefined
          CFI R3 Undefined
          CFI R4 Undefined
          CFI R5 Undefined
          CFI R6 SameValue
          CFI R7 SameValue
          CFI V0 SameValue
          CFI V1 SameValue
          CFI V2 SameValue
          CFI V3 SameValue
          CFI V4 SameValue
          CFI V5 SameValue
          CFI V6 SameValue
          CFI V7 SameValue
          CFI V8 SameValue
          CFI V9 SameValue
          CFI V10 SameValue
          CFI V11 SameValue
          CFI PSPH Undefined
          CFI PSPL Undefined
          CFI XSPH Undefined
          CFI XSPL Undefined
          CFI ?RET Concat
          CFI ?BRET_EXT Frame(CFA_SP, 3)
          CFI ?RET_HIGH Frame(CFA_SP, 2)
          CFI ?RET_LOW Frame(CFA_SP, 1)
          CFI EndCommon cfiCommon0
        
        
          CFI Common cfiCommon1 Using cfiNames0
          CFI CodeAlign 1
          CFI DataAlign -1
          CFI ReturnAddress ?RET CODE
          CFI CFA_DOVERLAY Used
          CFI CFA_IOVERLAY Used
          CFI CFA_SP SP+-2
          CFI CFA_PSP16 PSP16+0
          CFI CFA_XSP16 XSP16+0
          CFI `PSW.CY` SameValue
          CFI `B.BR0` SameValue
          CFI `B.BR1` SameValue
          CFI `B.BR2` SameValue
          CFI `B.BR3` SameValue
          CFI `B.BR4` SameValue
          CFI `B.BR5` SameValue
          CFI `B.BR6` SameValue
          CFI `B.BR7` SameValue
          CFI `VB.BR8` SameValue
          CFI `VB.BR9` SameValue
          CFI `VB.BR10` SameValue
          CFI `VB.BR11` SameValue
          CFI `VB.BR12` SameValue
          CFI `VB.BR13` SameValue
          CFI `VB.BR14` SameValue
          CFI `VB.BR15` SameValue
          CFI VB SameValue
          CFI B SameValue
          CFI A SameValue
          CFI PSW SameValue
          CFI DPL0 SameValue
          CFI DPH0 SameValue
          CFI R0 SameValue
          CFI R1 SameValue
          CFI R2 SameValue
          CFI R3 SameValue
          CFI R4 SameValue
          CFI R5 SameValue
          CFI R6 SameValue
          CFI R7 SameValue
          CFI V0 SameValue
          CFI V1 SameValue
          CFI V2 SameValue
          CFI V3 SameValue
          CFI V4 SameValue
          CFI V5 SameValue
          CFI V6 SameValue
          CFI V7 SameValue
          CFI V8 SameValue
          CFI V9 SameValue
          CFI V10 SameValue
          CFI V11 SameValue
          CFI PSPH Undefined
          CFI PSPL Undefined
          CFI XSPH Undefined
          CFI XSPL Undefined
          CFI ?RET Concat
          CFI ?BRET_EXT SameValue
          CFI ?RET_HIGH Frame(CFA_SP, 2)
          CFI ?RET_LOW Frame(CFA_SP, 1)
          CFI EndCommon cfiCommon1
        
APSDE_DataReq       SYMBOL "APSDE_DataReq"
`??APSDE_DataReq::?relay` SYMBOL "?relay", APSDE_DataReq
APSDE_DataReqMTU    SYMBOL "APSDE_DataReqMTU"
`??APSDE_DataReqMTU::?relay` SYMBOL "?relay", APSDE_DataReqMTU
NLME_GetShortAddr   SYMBOL "NLME_GetShortAddr"
`??NLME_GetShortAddr::?relay` SYMBOL "?relay", NLME_GetShortAddr
NLME_IsAddressBroadcast SYMBOL "NLME_IsAddressBroadcast"
`??NLME_IsAddressBroadcast::?relay` SYMBOL "?relay", NLME_IsAddressBroadcast
RTG_AddSrcRtgEntry_Guaranteed SYMBOL "RTG_AddSrcRtgEntry_Guaranteed"
`??RTG_AddSrcRtgEntry_Guaranteed::?relay` SYMBOL "?relay", RTG_AddSrcRtgEntry_Guaranteed
RTG_CheckRtStatus   SYMBOL "RTG_CheckRtStatus"
`??RTG_CheckRtStatus::?relay` SYMBOL "?relay", RTG_CheckRtStatus
aps_FindGroupForEndpoint SYMBOL "aps_FindGroupForEndpoint"
`??aps_FindGroupForEndpoint::?relay` SYMBOL "?relay", aps_FindGroupForEndpoint
osal_mem_alloc      SYMBOL "osal_mem_alloc"
`??osal_mem_alloc::?relay` SYMBOL "?relay", osal_mem_alloc
osal_mem_free       SYMBOL "osal_mem_free"
`??osal_mem_free::?relay` SYMBOL "?relay", osal_mem_free
osal_memcpy         SYMBOL "osal_memcpy"
`??osal_memcpy::?relay` SYMBOL "?relay", osal_memcpy
osal_msg_allocate   SYMBOL "osal_msg_allocate"
`??osal_msg_allocate::?relay` SYMBOL "?relay", osal_msg_allocate
osal_msg_send       SYMBOL "osal_msg_send"
`??osal_msg_send::?relay` SYMBOL "?relay", osal_msg_send
sAddrExtCpy         SYMBOL "sAddrExtCpy"
`??sAddrExtCpy::?relay` SYMBOL "?relay", sAddrExtCpy
AF_DataRequest      SYMBOL "AF_DataRequest"
`??AF_DataRequest::?relay` SYMBOL "?relay", AF_DataRequest
AF_DataRequestSrcRtg SYMBOL "AF_DataRequestSrcRtg"
`??AF_DataRequestSrcRtg::?relay` SYMBOL "?relay", AF_DataRequestSrcRtg
afAPSF_ConfigGet    SYMBOL "afAPSF_ConfigGet"
`??afAPSF_ConfigGet::?relay` SYMBOL "?relay", afAPSF_ConfigGet
afAPSF_ConfigSet    SYMBOL "afAPSF_ConfigSet"
`??afAPSF_ConfigSet::?relay` SYMBOL "?relay", afAPSF_ConfigSet
afCopyAddress       SYMBOL "afCopyAddress"
`??afCopyAddress::?relay` SYMBOL "?relay", afCopyAddress
afDataConfirm       SYMBOL "afDataConfirm"
`??afDataConfirm::?relay` SYMBOL "?relay", afDataConfirm
afDataReqMTU        SYMBOL "afDataReqMTU"
`??afDataReqMTU::?relay` SYMBOL "?relay", afDataReqMTU
afEndPoints         SYMBOL "afEndPoints"
`??afEndPoints::?relay` SYMBOL "?relay", afEndPoints
afFindEndPointDesc  SYMBOL "afFindEndPointDesc"
`??afFindEndPointDesc::?relay` SYMBOL "?relay", afFindEndPointDesc
afFindSimpleDesc    SYMBOL "afFindSimpleDesc"
`??afFindSimpleDesc::?relay` SYMBOL "?relay", afFindSimpleDesc
afGetMatch          SYMBOL "afGetMatch"
`??afGetMatch::?relay` SYMBOL "?relay", afGetMatch
afIncomingData      SYMBOL "afIncomingData"
`??afIncomingData::?relay` SYMBOL "?relay", afIncomingData
afNumEndPoints      SYMBOL "afNumEndPoints"
`??afNumEndPoints::?relay` SYMBOL "?relay", afNumEndPoints
afRegister          SYMBOL "afRegister"
`??afRegister::?relay` SYMBOL "?relay", afRegister
afRegisterExtended  SYMBOL "afRegisterExtended"
`??afRegisterExtended::?relay` SYMBOL "?relay", afRegisterExtended
afSetMatch          SYMBOL "afSetMatch"
`??afSetMatch::?relay` SYMBOL "?relay", afSetMatch

        EXTERN `??APSDE_DataReq::?relay`
        FUNCTION `??APSDE_DataReq::?relay`,00H
        EXTERN `??APSDE_DataReqMTU::?relay`
        FUNCTION `??APSDE_DataReqMTU::?relay`,00H
        EXTERN `??NLME_GetShortAddr::?relay`
        FUNCTION `??NLME_GetShortAddr::?relay`,00H
        EXTERN `??NLME_IsAddressBroadcast::?relay`
        FUNCTION `??NLME_IsAddressBroadcast::?relay`,00H
        EXTERN `??RTG_AddSrcRtgEntry_Guaranteed::?relay`
        FUNCTION `??RTG_AddSrcRtgEntry_Guaranteed::?relay`,00H
        EXTERN `??RTG_CheckRtStatus::?relay`
        FUNCTION `??RTG_CheckRtStatus::?relay`,00H
        EXTERN `??aps_FindGroupForEndpoint::?relay`
        FUNCTION `??aps_FindGroupForEndpoint::?relay`,00H
        EXTERN `??osal_mem_alloc::?relay`
        FUNCTION `??osal_mem_alloc::?relay`,00H
        EXTERN `??osal_mem_free::?relay`
        FUNCTION `??osal_mem_free::?relay`,00H
        EXTERN `??osal_memcpy::?relay`
        FUNCTION `??osal_memcpy::?relay`,00H
        EXTERN `??osal_msg_allocate::?relay`
        FUNCTION `??osal_msg_allocate::?relay`,00H
        EXTERN `??osal_msg_send::?relay`
        FUNCTION `??osal_msg_send::?relay`,00H
        EXTERN `??sAddrExtCpy::?relay`
        FUNCTION `??sAddrExtCpy::?relay`,00H
        EXTERN APSDE_DataReq
        FUNCTION APSDE_DataReq,0202H
        ARGFRAME ISTACK, 0, STACK
        ARGFRAME PSTACK, 0, STACK
        ARGFRAME XSTACK, 46, STACK
        ARGFRAME IOVERLAY, 0, STATIC
        ARGFRAME DOVERLAY, 0, STATIC
        EXTERN APSDE_DataReqMTU
        FUNCTION APSDE_DataReqMTU,0202H
        ARGFRAME ISTACK, 0, STACK
        ARGFRAME PSTACK, 0, STACK
        ARGFRAME XSTACK, 9, STACK
        ARGFRAME IOVERLAY, 0, STATIC
        ARGFRAME DOVERLAY, 0, STATIC
        EXTERN NLME_GetShortAddr
        FUNCTION NLME_GetShortAddr,0202H
        ARGFRAME ISTACK, 0, STACK
        ARGFRAME PSTACK, 0, STACK
        ARGFRAME XSTACK, 46, STACK
        ARGFRAME IOVERLAY, 0, STATIC
        ARGFRAME DOVERLAY, 0, STATIC
        EXTERN NLME_IsAddressBroadcast
        FUNCTION NLME_IsAddressBroadcast,0202H
        ARGFRAME ISTACK, 0, STACK
        ARGFRAME PSTACK, 0, STACK
        ARGFRAME XSTACK, 46, STACK
        ARGFRAME IOVERLAY, 0, STATIC
        ARGFRAME DOVERLAY, 0, STATIC
        EXTERN RTG_AddSrcRtgEntry_Guaranteed
        FUNCTION RTG_AddSrcRtgEntry_Guaranteed,0202H
        ARGFRAME ISTACK, 0, STACK
        ARGFRAME PSTACK, 0, STACK
        ARGFRAME XSTACK, 12, STACK
        ARGFRAME IOVERLAY, 0, STATIC
        ARGFRAME DOVERLAY, 0, STATIC
        EXTERN RTG_CheckRtStatus
        FUNCTION RTG_CheckRtStatus,0202H
        ARGFRAME ISTACK, 0, STACK
        ARGFRAME PSTACK, 0, STACK
        ARGFRAME XSTACK, 46, STACK
        ARGFRAME IOVERLAY, 0, STATIC
        ARGFRAME DOVERLAY, 0, STATIC
        EXTERN aps_FindGroupForEndpoint
        FUNCTION aps_FindGroupForEndpoint,0202H
        ARGFRAME ISTACK, 0, STACK
        ARGFRAME PSTACK, 0, STACK
        ARGFRAME XSTACK, 26, STACK
        ARGFRAME IOVERLAY, 0, STATIC
        ARGFRAME DOVERLAY, 0, STATIC
        EXTERN apsfSendFragmented
        EXTERN osal_mem_alloc
        FUNCTION osal_mem_alloc,0202H
        ARGFRAME ISTACK, 0, STACK
        ARGFRAME PSTACK, 0, STACK
        ARGFRAME XSTACK, 12, STACK
        ARGFRAME IOVERLAY, 0, STATIC
        ARGFRAME DOVERLAY, 0, STATIC
        EXTERN osal_mem_free
        FUNCTION osal_mem_free,0202H
        ARGFRAME ISTACK, 0, STACK
        ARGFRAME PSTACK, 0, STACK
        ARGFRAME XSTACK, 46, STACK
        ARGFRAME IOVERLAY, 0, STATIC
        ARGFRAME DOVERLAY, 0, STATIC
        EXTERN osal_memcpy
        FUNCTION osal_memcpy,0202H
        ARGFRAME ISTACK, 0, STACK
        ARGFRAME PSTACK, 0, STACK
        ARGFRAME XSTACK, 21, STACK
        ARGFRAME IOVERLAY, 0, STATIC
        ARGFRAME DOVERLAY, 0, STATIC
        EXTERN osal_msg_allocate
        FUNCTION osal_msg_allocate,0202H
        ARGFRAME ISTACK, 0, STACK
        ARGFRAME PSTACK, 0, STACK
        ARGFRAME XSTACK, 18, STACK
        ARGFRAME IOVERLAY, 0, STATIC
        ARGFRAME DOVERLAY, 0, STATIC
        EXTERN osal_msg_send
        FUNCTION osal_msg_send,0202H
        ARGFRAME ISTACK, 0, STACK
        ARGFRAME PSTACK, 0, STACK
        ARGFRAME XSTACK, 18, STACK
        ARGFRAME IOVERLAY, 0, STATIC
        ARGFRAME DOVERLAY, 0, STATIC
        EXTERN sAddrExtCpy
        FUNCTION sAddrExtCpy,0202H
        ARGFRAME ISTACK, 0, STACK
        ARGFRAME PSTACK, 0, STACK
        ARGFRAME XSTACK, 46, STACK
        ARGFRAME IOVERLAY, 0, STATIC
        ARGFRAME DOVERLAY, 0, STATIC

// D:\MyData\Project\Graduation_project\GraduationProject_Hardware\ZStack-CC2530-r200\Components\stack\af\AF.c
//    1 /**************************************************************************************************
//    2   Filename:       AF.c
//    3   Revised:        $Date: 2011-05-31 10:03:43 -0700 (Tue, 31 May 2011) $
//    4   Revision:       $Revision: 26156 $
//    5 
//    6   Description:    Application Framework - Device Description helper functions
//    7 
//    8 
//    9   Copyright 2004-2011 Texas Instruments Incorporated. All rights reserved.
//   10 
//   11   IMPORTANT: Your use of this Software is limited to those specific rights
//   12   granted under the terms of a software license agreement between the user
//   13   who downloaded the software, his/her employer (which must be your employer)
//   14   and Texas Instruments Incorporated (the "License").  You may not use this
//   15   Software unless you agree to abide by the terms of the License. The License
//   16   limits your use, and you acknowledge, that the Software may not be modified,
//   17   copied or distributed unless embedded on a Texas Instruments microcontroller
//   18   or used solely and exclusively in conjunction with a Texas Instruments radio
//   19   frequency transceiver, which is integrated into your product.  Other than for
//   20   the foregoing purpose, you may not use, reproduce, copy, prepare derivative
//   21   works of, modify, distribute, perform, display or sell this Software and/or
//   22   its documentation for any purpose.
//   23 
//   24   YOU FURTHER ACKNOWLEDGE AND AGREE THAT THE SOFTWARE AND DOCUMENTATION ARE
//   25   PROVIDED “AS IS” WITHOUT WARRANTY OF ANY KIND, EITHER EXPRESS OR IMPLIED,
//   26   INCLUDING WITHOUT LIMITATION, ANY WARRANTY OF MERCHANTABILITY, TITLE,
//   27   NON-INFRINGEMENT AND FITNESS FOR A PARTICULAR PURPOSE. IN NO EVENT SHALL
//   28   TEXAS INSTRUMENTS OR ITS LICENSORS BE LIABLE OR OBLIGATED UNDER CONTRACT,
//   29   NEGLIGENCE, STRICT LIABILITY, CONTRIBUTION, BREACH OF WARRANTY, OR OTHER
//   30   LEGAL EQUITABLE THEORY ANY DIRECT OR INDIRECT DAMAGES OR EXPENSES
//   31   INCLUDING BUT NOT LIMITED TO ANY INCIDENTAL, SPECIAL, INDIRECT, PUNITIVE
//   32   OR CONSEQUENTIAL DAMAGES, LOST PROFITS OR LOST DATA, COST OF PROCUREMENT
//   33   OF SUBSTITUTE GOODS, TECHNOLOGY, SERVICES, OR ANY CLAIMS BY THIRD PARTIES
//   34   (INCLUDING BUT NOT LIMITED TO ANY DEFENSE THEREOF), OR OTHER SIMILAR COSTS.
//   35 
//   36   Should you have any questions regarding your right to use this Software,
//   37   contact Texas Instruments Incorporated at www.TI.com.
//   38 **************************************************************************************************/
//   39 
//   40 /*********************************************************************
//   41  * INCLUDES
//   42  */
//   43 
//   44 #include "OSAL.h"
//   45 #include "AF.h"
//   46 #include "nwk_globals.h"
//   47 #include "nwk_util.h"
//   48 #include "aps_groups.h"
//   49 #include "ZDProfile.h"
//   50 #include "aps_frag.h"
//   51 #include "rtg.h"
//   52 
//   53 #if defined ( MT_AF_CB_FUNC )
//   54   #include "MT_AF.h"
//   55 #endif
//   56 
//   57 #if defined ( INTER_PAN )
//   58   #include "stub_aps.h"
//   59 #endif
//   60 
//   61 /*********************************************************************
//   62  * MACROS
//   63  */
//   64 
//   65 /*********************************************************************
//   66  * @fn      afSend
//   67  *
//   68  * @brief   Helper macro for V1 API to invoke V2 API.
//   69  *
//   70  * input parameters
//   71  *
//   72  * @param  *dstAddr - Full ZB destination address: Nwk Addr + End Point.
//   73  * @param   srcEP - Origination (i.e. respond to or ack to) End Point.
//   74  * @param   cID - A valid cluster ID as specified by the Profile.
//   75  * @param   len - Number of bytes of data pointed to by next param.
//   76  * @param  *buf - A pointer to the data bytes to send.
//   77  * @param   options - Valid bit mask of AF Tx Options as defined in AF.h.
//   78  * @param  *transID - A pointer to a byte which can be modified and which will
//   79  *                    be used as the transaction sequence number of the msg.
//   80  *
//   81  * output parameters
//   82  *
//   83  * @param  *transID - Incremented by one if the return value is success.
//   84  *
//   85  * @return  afStatus_t - See previous definition of afStatus_... types.
//   86  */
//   87 #define afSend( dstAddr, srcEP, cID, len, buf, transID, options, radius ) \ 
//   88         AF_DataRequest( (dstAddr), afFindEndPointDesc( (srcEP) ), \ 
//   89                           (cID), (len), (buf), (transID), (options), (radius) )
//   90 
//   91 /*********************************************************************
//   92  * GLOBAL VARIABLES
//   93  */
//   94 

        RSEG XDATA_Z:XDATA:NOROOT(0)
        DATA16
//   95 epList_t *epList;
epList:
        DS 2
        REQUIRE __INIT_XDATA_Z
//   96 
//   97 /*********************************************************************
//   98  * LOCAL FUNCTIONS
//   99  */
//  100 
//  101 static void afBuildMSGIncoming( aps_FrameFormat_t *aff, endPointDesc_t *epDesc,
//  102                 zAddrType_t *SrcAddress, uint16 SrcPanId, NLDE_Signal_t *sig,
//  103                 uint8 nwkSeqNum, uint8 SecurityUse, uint32 timestamp );
//  104 
//  105 static epList_t *afFindEndPointDescList( uint8 EndPoint );
//  106 
//  107 static pDescCB afGetDescCB( endPointDesc_t *epDesc );
//  108 
//  109 /*********************************************************************
//  110  * PUBLIC FUNCTIONS
//  111  */
//  112 
//  113 /*********************************************************************
//  114  * @fn      afInit
//  115  *
//  116  * @brief   Initialization function for the AF.
//  117  *
//  118  * @param   none
//  119  *
//  120  * @return  none
//  121 void afInit( void )
//  122 {
//  123 }
//  124  */
//  125 
//  126 /*********************************************************************
//  127  * @fn      afRegisterExtended
//  128  *
//  129  * @brief   Register an Application's EndPoint description.
//  130  *
//  131  * @param   epDesc - pointer to the Application's endpoint descriptor.
//  132  * @param   descFn - pointer to descriptor callback function
//  133  *
//  134  * NOTE:  The memory that epDesc is pointing to must exist after this call.
//  135  *
//  136  * @return  Pointer to epList_t on success, NULL otherwise.
//  137  */

        RSEG BANKED_CODE:HUGECODE:NOROOT(0)
//  138 epList_t *afRegisterExtended( endPointDesc_t *epDesc, pDescCB descFn )
afRegisterExtended:
          CFI Block cfiBlock0 Using cfiCommon0
          CFI Function afRegisterExtended
        CODE
//  139 {
        FUNCALL afRegisterExtended, osal_mem_alloc
        LOCFRAME ISTACK, 0, STACK
        LOCFRAME PSTACK, 0, STACK
        LOCFRAME XSTACK, 12, STACK
        LOCFRAME IOVERLAY, 0, STATIC
        LOCFRAME DOVERLAY, 0, STATIC
        ARGFRAME ISTACK, 0, STACK
        ARGFRAME PSTACK, 0, STACK
        ARGFRAME XSTACK, 12, STACK
        ARGFRAME IOVERLAY, 0, STATIC
        ARGFRAME DOVERLAY, 0, STATIC
        REQUIRE ?V0
        REQUIRE ?V1
        REQUIRE ?V2
        REQUIRE ?V3
        MOV       A,#-0xc
        LCALL     ?BANKED_ENTER_XDATA
          CFI DPH0 load(1, XDATA, add(CFA_XSP16, literal(-1)))
          CFI DPL0 load(1, XDATA, add(CFA_XSP16, literal(-2)))
          CFI ?BRET_EXT load(1, XDATA, add(CFA_XSP16, literal(-3)))
          CFI ?RET_HIGH load(1, XDATA, add(CFA_XSP16, literal(-4)))
          CFI ?RET_LOW load(1, XDATA, add(CFA_XSP16, literal(-5)))
          CFI R7 load(1, XDATA, add(CFA_XSP16, literal(-6)))
          CFI V3 load(1, XDATA, add(CFA_XSP16, literal(-7)))
          CFI V2 load(1, XDATA, add(CFA_XSP16, literal(-8)))
          CFI V1 load(1, XDATA, add(CFA_XSP16, literal(-9)))
          CFI V0 load(1, XDATA, add(CFA_XSP16, literal(-10)))
          CFI VB load(1, XDATA, add(CFA_XSP16, literal(-11)))
          CFI R6 load(1, XDATA, add(CFA_XSP16, literal(-12)))
          CFI CFA_SP SP+0
          CFI CFA_XSP16 add(XSP16, 12)
        ; Saved register size: 12
        ; Auto size: 0
        MOV       A,R2
        MOV       R6,A
        MOV       A,R3
        MOV       R7,A
        MOV       ?V0,R4
        MOV       ?V1,R5
//  140   epList_t *ep = osal_mem_alloc(sizeof(epList_t));
        ; Setup parameters for call to function osal_mem_alloc
        MOV       R2,#0x9
        MOV       R3,#0x0
        LCALL     `??osal_mem_alloc::?relay`; Banked call to: osal_mem_alloc
//  141 
//  142   if (ep != NULL)
        MOV       A,R2
        ORL       A,R3
        JZ        ??afRegisterExtended_0
//  143   {
//  144     ep->nextDesc = epList;
        MOV       DPTR,#epList
        LCALL     ?Subroutine7 & 0xFFFF
//  145     epList = ep;
??CrossCallReturnLabel_2:
        MOV       DPTR,#epList
        MOV       A,R2
        MOVX      @DPTR,A
        INC       DPTR
        MOV       A,R3
        LCALL     ?Subroutine23 & 0xFFFF
//  146     ep->epDesc = epDesc;
//  147     ep->pfnDescCB = descFn;
//  148     ep->apsfCfg.frameDelay = APSF_DEFAULT_INTERFRAME_DELAY;
//  149     ep->apsfCfg.windowSize = APSF_DEFAULT_WINDOW_SIZE;
//  150     ep->flags = eEP_AllowMatch;  // Default to allow Match Descriptor.
//  151   }
??CrossCallReturnLabel_32:
        MOV       A,R6
        MOVX      @DPTR,A
        INC       DPTR
        MOV       A,R7
        LCALL     ?Subroutine22 & 0xFFFF
??CrossCallReturnLabel_30:
        MOV       A,?V0
        MOVX      @DPTR,A
        INC       DPTR
        MOV       A,?V1
        LCALL     ?Subroutine22 & 0xFFFF
??CrossCallReturnLabel_31:
        INC       DPTR
        INC       DPTR
        MOV       A,#0x32
        LCALL     ?Subroutine19 & 0xFFFF
??CrossCallReturnLabel_25:
        MOV       A,#0x1
        LCALL     ?Subroutine19 & 0xFFFF
??CrossCallReturnLabel_26:
        INC       DPTR
        MOVX      @DPTR,A
//  152 
//  153   return ep;
??afRegisterExtended_0:
        LJMP      ?Subroutine0 & 0xFFFF
//  154 }
          CFI EndBlock cfiBlock0

        RSEG BANKED_CODE:HUGECODE:NOROOT(0)
?Subroutine22:
          CFI Block cfiCond1 Using cfiCommon0
          CFI Function afRegisterExtended
          CFI Conditional ??CrossCallReturnLabel_30
          CFI R6 load(1, XDATA, add(CFA_XSP16, literal(-12)))
          CFI VB load(1, XDATA, add(CFA_XSP16, literal(-11)))
          CFI V0 load(1, XDATA, add(CFA_XSP16, literal(-10)))
          CFI V1 load(1, XDATA, add(CFA_XSP16, literal(-9)))
          CFI V2 load(1, XDATA, add(CFA_XSP16, literal(-8)))
          CFI V3 load(1, XDATA, add(CFA_XSP16, literal(-7)))
          CFI R7 load(1, XDATA, add(CFA_XSP16, literal(-6)))
          CFI ?RET_LOW load(1, XDATA, add(CFA_XSP16, literal(-5)))
          CFI ?RET_HIGH load(1, XDATA, add(CFA_XSP16, literal(-4)))
          CFI ?BRET_EXT load(1, XDATA, add(CFA_XSP16, literal(-3)))
          CFI DPL0 load(1, XDATA, add(CFA_XSP16, literal(-2)))
          CFI DPH0 load(1, XDATA, add(CFA_XSP16, literal(-1)))
          CFI CFA_SP SP+-2
          CFI CFA_XSP16 add(XSP16, 12)
          CFI Block cfiCond2 Using cfiCommon0
          CFI (cfiCond2) Function afRegisterExtended
          CFI (cfiCond2) Conditional ??CrossCallReturnLabel_31
          CFI (cfiCond2) R6 load(1, XDATA, add(CFA_XSP16, literal(-12)))
          CFI (cfiCond2) VB load(1, XDATA, add(CFA_XSP16, literal(-11)))
          CFI (cfiCond2) V0 load(1, XDATA, add(CFA_XSP16, literal(-10)))
          CFI (cfiCond2) V1 load(1, XDATA, add(CFA_XSP16, literal(-9)))
          CFI (cfiCond2) V2 load(1, XDATA, add(CFA_XSP16, literal(-8)))
          CFI (cfiCond2) V3 load(1, XDATA, add(CFA_XSP16, literal(-7)))
          CFI (cfiCond2) R7 load(1, XDATA, add(CFA_XSP16, literal(-6)))
          CFI (cfiCond2) ?RET_LOW load(1, XDATA, add(CFA_XSP16, literal(-5)))
          CFI (cfiCond2) ?RET_HIGH load(1, XDATA, add(CFA_XSP16, literal(-4)))
          CFI (cfiCond2) ?BRET_EXT load(1, XDATA, add(CFA_XSP16, literal(-3)))
          CFI (cfiCond2) DPL0 load(1, XDATA, add(CFA_XSP16, literal(-2)))
          CFI (cfiCond2) DPH0 load(1, XDATA, add(CFA_XSP16, literal(-1)))
          CFI (cfiCond2) CFA_SP SP+-2
          CFI (cfiCond2) CFA_XSP16 add(XSP16, 12)
          CFI Block cfiPicker3 Using cfiCommon1
          CFI (cfiPicker3) NoFunction
          CFI (cfiPicker3) Picker
        LCALL     ?Subroutine30 & 0xFFFF
??CrossCallReturnLabel_48:
        RET
          CFI EndBlock cfiCond1
          CFI EndBlock cfiCond2
          CFI EndBlock cfiPicker3

        RSEG BANKED_CODE:HUGECODE:NOROOT(0)
?Subroutine30:
          CFI Block cfiCond4 Using cfiCommon0
          CFI Function afRegisterExtended
          CFI Conditional ??CrossCallReturnLabel_48, ??CrossCallReturnLabel_30
          CFI R6 load(1, XDATA, add(CFA_XSP16, literal(-12)))
          CFI VB load(1, XDATA, add(CFA_XSP16, literal(-11)))
          CFI V0 load(1, XDATA, add(CFA_XSP16, literal(-10)))
          CFI V1 load(1, XDATA, add(CFA_XSP16, literal(-9)))
          CFI V2 load(1, XDATA, add(CFA_XSP16, literal(-8)))
          CFI V3 load(1, XDATA, add(CFA_XSP16, literal(-7)))
          CFI R7 load(1, XDATA, add(CFA_XSP16, literal(-6)))
          CFI ?RET_LOW load(1, XDATA, add(CFA_XSP16, literal(-5)))
          CFI ?RET_HIGH load(1, XDATA, add(CFA_XSP16, literal(-4)))
          CFI ?BRET_EXT load(1, XDATA, add(CFA_XSP16, literal(-3)))
          CFI DPL0 load(1, XDATA, add(CFA_XSP16, literal(-2)))
          CFI DPH0 load(1, XDATA, add(CFA_XSP16, literal(-1)))
          CFI CFA_SP SP+-4
          CFI CFA_XSP16 add(XSP16, 12)
          CFI Block cfiCond5 Using cfiCommon0
          CFI (cfiCond5) Function afRegisterExtended
          CFI (cfiCond5) Conditional ??CrossCallReturnLabel_48, ??CrossCallReturnLabel_31
          CFI (cfiCond5) R6 load(1, XDATA, add(CFA_XSP16, literal(-12)))
          CFI (cfiCond5) VB load(1, XDATA, add(CFA_XSP16, literal(-11)))
          CFI (cfiCond5) V0 load(1, XDATA, add(CFA_XSP16, literal(-10)))
          CFI (cfiCond5) V1 load(1, XDATA, add(CFA_XSP16, literal(-9)))
          CFI (cfiCond5) V2 load(1, XDATA, add(CFA_XSP16, literal(-8)))
          CFI (cfiCond5) V3 load(1, XDATA, add(CFA_XSP16, literal(-7)))
          CFI (cfiCond5) R7 load(1, XDATA, add(CFA_XSP16, literal(-6)))
          CFI (cfiCond5) ?RET_LOW load(1, XDATA, add(CFA_XSP16, literal(-5)))
          CFI (cfiCond5) ?RET_HIGH load(1, XDATA, add(CFA_XSP16, literal(-4)))
          CFI (cfiCond5) ?BRET_EXT load(1, XDATA, add(CFA_XSP16, literal(-3)))
          CFI (cfiCond5) DPL0 load(1, XDATA, add(CFA_XSP16, literal(-2)))
          CFI (cfiCond5) DPH0 load(1, XDATA, add(CFA_XSP16, literal(-1)))
          CFI (cfiCond5) CFA_SP SP+-4
          CFI (cfiCond5) CFA_XSP16 add(XSP16, 12)
          CFI Block cfiCond6 Using cfiCommon0
          CFI (cfiCond6) Function afRegisterExtended
          CFI (cfiCond6) Conditional ??CrossCallReturnLabel_49, ??CrossCallReturnLabel_25
          CFI (cfiCond6) R6 load(1, XDATA, add(CFA_XSP16, literal(-12)))
          CFI (cfiCond6) VB load(1, XDATA, add(CFA_XSP16, literal(-11)))
          CFI (cfiCond6) V0 load(1, XDATA, add(CFA_XSP16, literal(-10)))
          CFI (cfiCond6) V1 load(1, XDATA, add(CFA_XSP16, literal(-9)))
          CFI (cfiCond6) V2 load(1, XDATA, add(CFA_XSP16, literal(-8)))
          CFI (cfiCond6) V3 load(1, XDATA, add(CFA_XSP16, literal(-7)))
          CFI (cfiCond6) R7 load(1, XDATA, add(CFA_XSP16, literal(-6)))
          CFI (cfiCond6) ?RET_LOW load(1, XDATA, add(CFA_XSP16, literal(-5)))
          CFI (cfiCond6) ?RET_HIGH load(1, XDATA, add(CFA_XSP16, literal(-4)))
          CFI (cfiCond6) ?BRET_EXT load(1, XDATA, add(CFA_XSP16, literal(-3)))
          CFI (cfiCond6) DPL0 load(1, XDATA, add(CFA_XSP16, literal(-2)))
          CFI (cfiCond6) DPH0 load(1, XDATA, add(CFA_XSP16, literal(-1)))
          CFI (cfiCond6) CFA_SP SP+-4
          CFI (cfiCond6) CFA_XSP16 add(XSP16, 12)
          CFI Block cfiCond7 Using cfiCommon0
          CFI (cfiCond7) Function afRegisterExtended
          CFI (cfiCond7) Conditional ??CrossCallReturnLabel_49, ??CrossCallReturnLabel_26
          CFI (cfiCond7) R6 load(1, XDATA, add(CFA_XSP16, literal(-12)))
          CFI (cfiCond7) VB load(1, XDATA, add(CFA_XSP16, literal(-11)))
          CFI (cfiCond7) V0 load(1, XDATA, add(CFA_XSP16, literal(-10)))
          CFI (cfiCond7) V1 load(1, XDATA, add(CFA_XSP16, literal(-9)))
          CFI (cfiCond7) V2 load(1, XDATA, add(CFA_XSP16, literal(-8)))
          CFI (cfiCond7) V3 load(1, XDATA, add(CFA_XSP16, literal(-7)))
          CFI (cfiCond7) R7 load(1, XDATA, add(CFA_XSP16, literal(-6)))
          CFI (cfiCond7) ?RET_LOW load(1, XDATA, add(CFA_XSP16, literal(-5)))
          CFI (cfiCond7) ?RET_HIGH load(1, XDATA, add(CFA_XSP16, literal(-4)))
          CFI (cfiCond7) ?BRET_EXT load(1, XDATA, add(CFA_XSP16, literal(-3)))
          CFI (cfiCond7) DPL0 load(1, XDATA, add(CFA_XSP16, literal(-2)))
          CFI (cfiCond7) DPH0 load(1, XDATA, add(CFA_XSP16, literal(-1)))
          CFI (cfiCond7) CFA_SP SP+-4
          CFI (cfiCond7) CFA_XSP16 add(XSP16, 12)
          CFI Block cfiPicker8 Using cfiCommon1
          CFI (cfiPicker8) NoFunction
          CFI (cfiPicker8) Picker
        MOVX      @DPTR,A
        MOV       DPL,R2
        MOV       DPH,R3
        INC       DPTR
        INC       DPTR
        INC       DPTR
        INC       DPTR
        RET
          CFI EndBlock cfiCond4
          CFI EndBlock cfiCond5
          CFI EndBlock cfiCond6
          CFI EndBlock cfiCond7
          CFI EndBlock cfiPicker8

        RSEG BANKED_CODE:HUGECODE:NOROOT(0)
?Subroutine19:
          CFI Block cfiCond9 Using cfiCommon0
          CFI Function afRegisterExtended
          CFI Conditional ??CrossCallReturnLabel_25
          CFI R6 load(1, XDATA, add(CFA_XSP16, literal(-12)))
          CFI VB load(1, XDATA, add(CFA_XSP16, literal(-11)))
          CFI V0 load(1, XDATA, add(CFA_XSP16, literal(-10)))
          CFI V1 load(1, XDATA, add(CFA_XSP16, literal(-9)))
          CFI V2 load(1, XDATA, add(CFA_XSP16, literal(-8)))
          CFI V3 load(1, XDATA, add(CFA_XSP16, literal(-7)))
          CFI R7 load(1, XDATA, add(CFA_XSP16, literal(-6)))
          CFI ?RET_LOW load(1, XDATA, add(CFA_XSP16, literal(-5)))
          CFI ?RET_HIGH load(1, XDATA, add(CFA_XSP16, literal(-4)))
          CFI ?BRET_EXT load(1, XDATA, add(CFA_XSP16, literal(-3)))
          CFI DPL0 load(1, XDATA, add(CFA_XSP16, literal(-2)))
          CFI DPH0 load(1, XDATA, add(CFA_XSP16, literal(-1)))
          CFI CFA_SP SP+-2
          CFI CFA_XSP16 add(XSP16, 12)
          CFI Block cfiCond10 Using cfiCommon0
          CFI (cfiCond10) Function afRegisterExtended
          CFI (cfiCond10) Conditional ??CrossCallReturnLabel_26
          CFI (cfiCond10) R6 load(1, XDATA, add(CFA_XSP16, literal(-12)))
          CFI (cfiCond10) VB load(1, XDATA, add(CFA_XSP16, literal(-11)))
          CFI (cfiCond10) V0 load(1, XDATA, add(CFA_XSP16, literal(-10)))
          CFI (cfiCond10) V1 load(1, XDATA, add(CFA_XSP16, literal(-9)))
          CFI (cfiCond10) V2 load(1, XDATA, add(CFA_XSP16, literal(-8)))
          CFI (cfiCond10) V3 load(1, XDATA, add(CFA_XSP16, literal(-7)))
          CFI (cfiCond10) R7 load(1, XDATA, add(CFA_XSP16, literal(-6)))
          CFI (cfiCond10) ?RET_LOW load(1, XDATA, add(CFA_XSP16, literal(-5)))
          CFI (cfiCond10) ?RET_HIGH load(1, XDATA, add(CFA_XSP16, literal(-4)))
          CFI (cfiCond10) ?BRET_EXT load(1, XDATA, add(CFA_XSP16, literal(-3)))
          CFI (cfiCond10) DPL0 load(1, XDATA, add(CFA_XSP16, literal(-2)))
          CFI (cfiCond10) DPH0 load(1, XDATA, add(CFA_XSP16, literal(-1)))
          CFI (cfiCond10) CFA_SP SP+-2
          CFI (cfiCond10) CFA_XSP16 add(XSP16, 12)
          CFI Block cfiPicker11 Using cfiCommon1
          CFI (cfiPicker11) NoFunction
          CFI (cfiPicker11) Picker
        LCALL     ?Subroutine30 & 0xFFFF
??CrossCallReturnLabel_49:
        INC       DPTR
        INC       DPTR
        INC       DPTR
        RET
          CFI EndBlock cfiCond9
          CFI EndBlock cfiCond10
          CFI EndBlock cfiPicker11
//  155 
//  156 /*********************************************************************
//  157  * @fn      afRegister
//  158  *
//  159  * @brief   Register an Application's EndPoint description.
//  160  *
//  161  * @param   epDesc - pointer to the Application's endpoint descriptor.
//  162  *
//  163  * NOTE:  The memory that epDesc is pointing to must exist after this call.
//  164  *
//  165  * @return  afStatus_SUCCESS - Registered
//  166  *          afStatus_MEM_FAIL - not enough memory to add descriptor
//  167  *          afStatus_INVALID_PARAMETER - duplicate endpoint
//  168  */

        RSEG BANKED_CODE:HUGECODE:NOROOT(0)
//  169 afStatus_t afRegister( endPointDesc_t *epDesc )
afRegister:
          CFI Block cfiBlock12 Using cfiCommon0
          CFI Function afRegister
        CODE
//  170 {
        FUNCALL afRegister, afFindEndPointDescList
        LOCFRAME ISTACK, 0, STACK
        LOCFRAME PSTACK, 0, STACK
        LOCFRAME XSTACK, 10, STACK
        LOCFRAME IOVERLAY, 0, STATIC
        LOCFRAME DOVERLAY, 0, STATIC
        ARGFRAME ISTACK, 0, STACK
        ARGFRAME PSTACK, 0, STACK
        ARGFRAME XSTACK, 10, STACK
        ARGFRAME IOVERLAY, 0, STATIC
        ARGFRAME DOVERLAY, 0, STATIC
        FUNCALL afRegister, afRegisterExtended
        LOCFRAME ISTACK, 0, STACK
        LOCFRAME PSTACK, 0, STACK
        LOCFRAME XSTACK, 10, STACK
        LOCFRAME IOVERLAY, 0, STATIC
        LOCFRAME DOVERLAY, 0, STATIC
        ARGFRAME ISTACK, 0, STACK
        ARGFRAME PSTACK, 0, STACK
        ARGFRAME XSTACK, 10, STACK
        ARGFRAME IOVERLAY, 0, STATIC
        ARGFRAME DOVERLAY, 0, STATIC
        REQUIRE ?V0
        REQUIRE ?V1
        MOV       A,#-0xa
        LCALL     ?BANKED_ENTER_XDATA
          CFI DPH0 load(1, XDATA, add(CFA_XSP16, literal(-1)))
          CFI DPL0 load(1, XDATA, add(CFA_XSP16, literal(-2)))
          CFI ?BRET_EXT load(1, XDATA, add(CFA_XSP16, literal(-3)))
          CFI ?RET_HIGH load(1, XDATA, add(CFA_XSP16, literal(-4)))
          CFI ?RET_LOW load(1, XDATA, add(CFA_XSP16, literal(-5)))
          CFI R7 load(1, XDATA, add(CFA_XSP16, literal(-6)))
          CFI V1 load(1, XDATA, add(CFA_XSP16, literal(-7)))
          CFI V0 load(1, XDATA, add(CFA_XSP16, literal(-8)))
          CFI VB load(1, XDATA, add(CFA_XSP16, literal(-9)))
          CFI R6 load(1, XDATA, add(CFA_XSP16, literal(-10)))
          CFI CFA_SP SP+0
          CFI CFA_XSP16 add(XSP16, 10)
        ; Saved register size: 10
        ; Auto size: 0
        MOV       A,R2
        MOV       R6,A
        MOV       A,R3
        MOV       R7,A
//  171   if (afFindEndPointDescList(epDesc->endPoint))  // Look for duplicate endpoint.
        ; Setup parameters for call to function afFindEndPointDescList
        MOV       DPL,R2
        MOV       DPH,A
        MOVX      A,@DPTR
        MOV       R1,A
        LCALL     `??afFindEndPointDescList::?relay`; Banked call to: afFindEndPointDescList
        MOV       A,R2
        ORL       A,R3
        JZ        ??afRegister_0
//  172   {
//  173     return afStatus_INVALID_PARAMETER;
        MOV       R1,#0x2
        SJMP      ??afRegister_1
//  174   }
//  175 
//  176   return ((NULL == afRegisterExtended(epDesc, NULL)) ? afStatus_MEM_FAIL : afStatus_SUCCESS);
??afRegister_0:
        ; Setup parameters for call to function afRegisterExtended
        MOV       R4,#0x0
        MOV       R5,#0x0
        MOV       A,R6
        MOV       R2,A
        MOV       A,R7
        MOV       R3,A
        LCALL     `??afRegisterExtended::?relay`; Banked call to: afRegisterExtended
        MOV       A,R2
        ORL       A,R3
        JNZ       ??afRegister_2
        MOV       R1,#0x10
        SJMP      ??afRegister_1
??afRegister_2:
        MOV       R1,#0x0
??afRegister_1:
        LJMP      ?Subroutine1 & 0xFFFF
//  177 }
          CFI EndBlock cfiBlock12
//  178 
//  179 /*********************************************************************
//  180  * @fn          afDataConfirm
//  181  *
//  182  * @brief       This function will generate the Data Confirm back to
//  183  *              the application.
//  184  *
//  185  * @param       endPoint - confirm end point
//  186  * @param       transID - transaction ID from APSDE_DATA_REQUEST
//  187  * @param       status - status of APSDE_DATA_REQUEST
//  188  *
//  189  * @return      none
//  190  */

        RSEG BANKED_CODE:HUGECODE:NOROOT(0)
//  191 void afDataConfirm( uint8 endPoint, uint8 transID, ZStatus_t status )
afDataConfirm:
          CFI Block cfiBlock13 Using cfiCommon0
          CFI Function afDataConfirm
        CODE
//  192 {
        FUNCALL afDataConfirm, afFindEndPointDesc
        LOCFRAME ISTACK, 0, STACK
        LOCFRAME PSTACK, 0, STACK
        LOCFRAME XSTACK, 14, STACK
        LOCFRAME IOVERLAY, 0, STATIC
        LOCFRAME DOVERLAY, 0, STATIC
        ARGFRAME ISTACK, 0, STACK
        ARGFRAME PSTACK, 0, STACK
        ARGFRAME XSTACK, 14, STACK
        ARGFRAME IOVERLAY, 0, STATIC
        ARGFRAME DOVERLAY, 0, STATIC
        FUNCALL afDataConfirm, osal_msg_allocate
        LOCFRAME ISTACK, 0, STACK
        LOCFRAME PSTACK, 0, STACK
        LOCFRAME XSTACK, 14, STACK
        LOCFRAME IOVERLAY, 0, STATIC
        LOCFRAME DOVERLAY, 0, STATIC
        ARGFRAME ISTACK, 0, STACK
        ARGFRAME PSTACK, 0, STACK
        ARGFRAME XSTACK, 14, STACK
        ARGFRAME IOVERLAY, 0, STATIC
        ARGFRAME DOVERLAY, 0, STATIC
        FUNCALL afDataConfirm, osal_msg_send
        LOCFRAME ISTACK, 0, STACK
        LOCFRAME PSTACK, 0, STACK
        LOCFRAME XSTACK, 14, STACK
        LOCFRAME IOVERLAY, 0, STATIC
        LOCFRAME DOVERLAY, 0, STATIC
        ARGFRAME ISTACK, 0, STACK
        ARGFRAME PSTACK, 0, STACK
        ARGFRAME XSTACK, 14, STACK
        ARGFRAME IOVERLAY, 0, STATIC
        ARGFRAME DOVERLAY, 0, STATIC
        REQUIRE ?V0
        REQUIRE ?V1
        REQUIRE ?V2
        REQUIRE ?V4
        REQUIRE ?V5
        MOV       A,#-0xe
        LCALL     ?BANKED_ENTER_XDATA
          CFI DPH0 load(1, XDATA, add(CFA_XSP16, literal(-1)))
          CFI DPL0 load(1, XDATA, add(CFA_XSP16, literal(-2)))
          CFI ?BRET_EXT load(1, XDATA, add(CFA_XSP16, literal(-3)))
          CFI ?RET_HIGH load(1, XDATA, add(CFA_XSP16, literal(-4)))
          CFI ?RET_LOW load(1, XDATA, add(CFA_XSP16, literal(-5)))
          CFI R7 load(1, XDATA, add(CFA_XSP16, literal(-6)))
          CFI V5 load(1, XDATA, add(CFA_XSP16, literal(-7)))
          CFI V4 load(1, XDATA, add(CFA_XSP16, literal(-8)))
          CFI V3 load(1, XDATA, add(CFA_XSP16, literal(-9)))
          CFI V2 load(1, XDATA, add(CFA_XSP16, literal(-10)))
          CFI V1 load(1, XDATA, add(CFA_XSP16, literal(-11)))
          CFI V0 load(1, XDATA, add(CFA_XSP16, literal(-12)))
          CFI VB load(1, XDATA, add(CFA_XSP16, literal(-13)))
          CFI R6 load(1, XDATA, add(CFA_XSP16, literal(-14)))
          CFI CFA_SP SP+0
          CFI CFA_XSP16 add(XSP16, 14)
        ; Saved register size: 14
        ; Auto size: 0
        MOV       ?V0,R1
        MOV       ?V1,R2
        MOV       ?V2,R3
//  193   endPointDesc_t *epDesc;
//  194   afDataConfirm_t *msgPtr;
//  195 
//  196   // Find the endpoint description
//  197   epDesc = afFindEndPointDesc( endPoint );
        ; Setup parameters for call to function afFindEndPointDesc
        LCALL     ?Subroutine26 & 0xFFFF
//  198   if ( epDesc == NULL )
??CrossCallReturnLabel_40:
        JZ        ??CrossCallReturnLabel_4
//  199     return;
//  200 
//  201   // Determine the incoming command type
//  202   msgPtr = (afDataConfirm_t *)osal_msg_allocate( sizeof(afDataConfirm_t) );
        ; Setup parameters for call to function osal_msg_allocate
        MOV       R2,#0x4
        MOV       R3,#0x0
        LCALL     `??osal_msg_allocate::?relay`; Banked call to: osal_msg_allocate
//  203   if ( msgPtr )
        MOV       A,R2
        ORL       A,R3
        JZ        ??CrossCallReturnLabel_4
//  204   {
//  205     // Build the Data Confirm message
//  206     msgPtr->hdr.event = AF_DATA_CONFIRM_CMD;
        MOV       DPL,R2
        MOV       DPH,R3
        MOV       A,#-0x3
        MOVX      @DPTR,A
//  207     msgPtr->hdr.status = status;
        INC       DPTR
        MOV       A,?V2
        LCALL     ?Subroutine23 & 0xFFFF
//  208     msgPtr->endpoint = endPoint;
??CrossCallReturnLabel_33:
        MOV       A,?V0
        LCALL     ?Subroutine23 & 0xFFFF
//  209     msgPtr->transID = transID;
??CrossCallReturnLabel_34:
        INC       DPTR
        MOV       A,?V1
        MOVX      @DPTR,A
//  210 
//  211 #if defined ( MT_AF_CB_FUNC )
//  212     /* If MT has subscribed for this callback, don't send as a message. */
//  213     if ( AFCB_CHECK(CB_ID_AF_DATA_CNF,*(epDesc->task_id)) )
//  214     {
//  215       /* Send callback if it's subscribed */
//  216       MT_AfDataConfirm ((void *)msgPtr);
//  217       /* Release the memory. */
//  218       osal_msg_deallocate( (void *)msgPtr );
//  219     }
//  220     else
//  221 #endif
//  222     {
//  223       /* send message through task message */
//  224       osal_msg_send( *(epDesc->task_id), (uint8 *)msgPtr );
        ; Setup parameters for call to function osal_msg_send
        MOV       DPL,R6
        MOV       DPH,R7
        LCALL     ?Subroutine8 & 0xFFFF
//  225     }
//  226   }
//  227 }
??CrossCallReturnLabel_4:
        MOV       R7,#0x6
        LJMP      ?BANKED_LEAVE_XDATA
          CFI EndBlock cfiBlock13

        RSEG BANKED_CODE:HUGECODE:NOROOT(0)
?Subroutine23:
          CFI Block cfiCond14 Using cfiCommon0
          CFI Function afRegisterExtended
          CFI Conditional ??CrossCallReturnLabel_32
          CFI R6 load(1, XDATA, add(CFA_XSP16, literal(-12)))
          CFI VB load(1, XDATA, add(CFA_XSP16, literal(-11)))
          CFI V0 load(1, XDATA, add(CFA_XSP16, literal(-10)))
          CFI V1 load(1, XDATA, add(CFA_XSP16, literal(-9)))
          CFI V2 load(1, XDATA, add(CFA_XSP16, literal(-8)))
          CFI V3 load(1, XDATA, add(CFA_XSP16, literal(-7)))
          CFI R7 load(1, XDATA, add(CFA_XSP16, literal(-6)))
          CFI ?RET_LOW load(1, XDATA, add(CFA_XSP16, literal(-5)))
          CFI ?RET_HIGH load(1, XDATA, add(CFA_XSP16, literal(-4)))
          CFI ?BRET_EXT load(1, XDATA, add(CFA_XSP16, literal(-3)))
          CFI DPL0 load(1, XDATA, add(CFA_XSP16, literal(-2)))
          CFI DPH0 load(1, XDATA, add(CFA_XSP16, literal(-1)))
          CFI CFA_SP SP+-2
          CFI CFA_XSP16 add(XSP16, 12)
          CFI Block cfiCond15 Using cfiCommon0
          CFI (cfiCond15) Function afDataConfirm
          CFI (cfiCond15) Conditional ??CrossCallReturnLabel_33
          CFI (cfiCond15) R6 load(1, XDATA, add(CFA_XSP16, literal(-14)))
          CFI (cfiCond15) VB load(1, XDATA, add(CFA_XSP16, literal(-13)))
          CFI (cfiCond15) V0 load(1, XDATA, add(CFA_XSP16, literal(-12)))
          CFI (cfiCond15) V1 load(1, XDATA, add(CFA_XSP16, literal(-11)))
          CFI (cfiCond15) V2 load(1, XDATA, add(CFA_XSP16, literal(-10)))
          CFI (cfiCond15) V3 load(1, XDATA, add(CFA_XSP16, literal(-9)))
          CFI (cfiCond15) V4 load(1, XDATA, add(CFA_XSP16, literal(-8)))
          CFI (cfiCond15) V5 load(1, XDATA, add(CFA_XSP16, literal(-7)))
          CFI (cfiCond15) R7 load(1, XDATA, add(CFA_XSP16, literal(-6)))
          CFI (cfiCond15) ?RET_LOW load(1, XDATA, add(CFA_XSP16, literal(-5)))
          CFI (cfiCond15) ?RET_HIGH load(1, XDATA, add(CFA_XSP16, literal(-4)))
          CFI (cfiCond15) ?BRET_EXT load(1, XDATA, add(CFA_XSP16, literal(-3)))
          CFI (cfiCond15) DPL0 load(1, XDATA, add(CFA_XSP16, literal(-2)))
          CFI (cfiCond15) DPH0 load(1, XDATA, add(CFA_XSP16, literal(-1)))
          CFI (cfiCond15) CFA_SP SP+-2
          CFI (cfiCond15) CFA_XSP16 add(XSP16, 14)
          CFI Block cfiCond16 Using cfiCommon0
          CFI (cfiCond16) Function afDataConfirm
          CFI (cfiCond16) Conditional ??CrossCallReturnLabel_34
          CFI (cfiCond16) R6 load(1, XDATA, add(CFA_XSP16, literal(-14)))
          CFI (cfiCond16) VB load(1, XDATA, add(CFA_XSP16, literal(-13)))
          CFI (cfiCond16) V0 load(1, XDATA, add(CFA_XSP16, literal(-12)))
          CFI (cfiCond16) V1 load(1, XDATA, add(CFA_XSP16, literal(-11)))
          CFI (cfiCond16) V2 load(1, XDATA, add(CFA_XSP16, literal(-10)))
          CFI (cfiCond16) V3 load(1, XDATA, add(CFA_XSP16, literal(-9)))
          CFI (cfiCond16) V4 load(1, XDATA, add(CFA_XSP16, literal(-8)))
          CFI (cfiCond16) V5 load(1, XDATA, add(CFA_XSP16, literal(-7)))
          CFI (cfiCond16) R7 load(1, XDATA, add(CFA_XSP16, literal(-6)))
          CFI (cfiCond16) ?RET_LOW load(1, XDATA, add(CFA_XSP16, literal(-5)))
          CFI (cfiCond16) ?RET_HIGH load(1, XDATA, add(CFA_XSP16, literal(-4)))
          CFI (cfiCond16) ?BRET_EXT load(1, XDATA, add(CFA_XSP16, literal(-3)))
          CFI (cfiCond16) DPL0 load(1, XDATA, add(CFA_XSP16, literal(-2)))
          CFI (cfiCond16) DPH0 load(1, XDATA, add(CFA_XSP16, literal(-1)))
          CFI (cfiCond16) CFA_SP SP+-2
          CFI (cfiCond16) CFA_XSP16 add(XSP16, 14)
          CFI Block cfiPicker17 Using cfiCommon1
          CFI (cfiPicker17) NoFunction
          CFI (cfiPicker17) Picker
        MOVX      @DPTR,A
        MOV       DPL,R2
        MOV       DPH,R3
        INC       DPTR
        INC       DPTR
        RET
          CFI EndBlock cfiCond14
          CFI EndBlock cfiCond15
          CFI EndBlock cfiCond16
          CFI EndBlock cfiPicker17
//  228 
//  229 /*********************************************************************
//  230  * @fn          afIncomingData
//  231  *
//  232  * @brief       Transfer a data PDU (ASDU) from the APS sub-layer to the AF.
//  233  *
//  234  * @param       aff  - pointer to APS frame format
//  235  * @param       SrcAddress  - Source address
//  236  * @param       SrcPanId  - Source PAN ID
//  237  * @param       sig - incoming message's link quality
//  238  * @param       nwkSeqNum - incoming network sequence number (from nwk header frame)
//  239  * @param       SecurityUse - Security enable/disable
//  240  * @param       timestamp - the MAC Timer2 timestamp at Rx.
//  241  *
//  242  * @return      none
//  243  */

        RSEG BANKED_CODE:HUGECODE:NOROOT(0)
//  244 void afIncomingData( aps_FrameFormat_t *aff, zAddrType_t *SrcAddress, uint16 SrcPanId,
afIncomingData:
          CFI Block cfiBlock18 Using cfiCommon0
          CFI Function afIncomingData
        CODE
//  245                      NLDE_Signal_t *sig, uint8 nwkSeqNum, uint8 SecurityUse, uint32 timestamp )
//  246 {
        FUNCALL afIncomingData, aps_FindGroupForEndpoint
        LOCFRAME ISTACK, 0, STACK
        LOCFRAME PSTACK, 0, STACK
        LOCFRAME XSTACK, 26, STACK
        LOCFRAME IOVERLAY, 0, STATIC
        LOCFRAME DOVERLAY, 0, STATIC
        ARGFRAME ISTACK, 0, STACK
        ARGFRAME PSTACK, 0, STACK
        ARGFRAME XSTACK, 26, STACK
        ARGFRAME IOVERLAY, 0, STATIC
        ARGFRAME DOVERLAY, 0, STATIC
        FUNCALL afIncomingData, afFindEndPointDesc
        LOCFRAME ISTACK, 0, STACK
        LOCFRAME PSTACK, 0, STACK
        LOCFRAME XSTACK, 26, STACK
        LOCFRAME IOVERLAY, 0, STATIC
        LOCFRAME DOVERLAY, 0, STATIC
        ARGFRAME ISTACK, 0, STACK
        ARGFRAME PSTACK, 0, STACK
        ARGFRAME XSTACK, 26, STACK
        ARGFRAME IOVERLAY, 0, STATIC
        ARGFRAME DOVERLAY, 0, STATIC
        FUNCALL afIncomingData, afFindEndPointDesc
        LOCFRAME ISTACK, 0, STACK
        LOCFRAME PSTACK, 0, STACK
        LOCFRAME XSTACK, 26, STACK
        LOCFRAME IOVERLAY, 0, STATIC
        LOCFRAME DOVERLAY, 0, STATIC
        ARGFRAME ISTACK, 0, STACK
        ARGFRAME PSTACK, 0, STACK
        ARGFRAME XSTACK, 26, STACK
        ARGFRAME IOVERLAY, 0, STATIC
        ARGFRAME DOVERLAY, 0, STATIC
        FUNCALL afIncomingData, afFindEndPointDescList
        LOCFRAME ISTACK, 0, STACK
        LOCFRAME PSTACK, 0, STACK
        LOCFRAME XSTACK, 26, STACK
        LOCFRAME IOVERLAY, 0, STATIC
        LOCFRAME DOVERLAY, 0, STATIC
        ARGFRAME ISTACK, 0, STACK
        ARGFRAME PSTACK, 0, STACK
        ARGFRAME XSTACK, 26, STACK
        ARGFRAME IOVERLAY, 0, STATIC
        ARGFRAME DOVERLAY, 0, STATIC
        FUNCALL afIncomingData, afFindEndPointDescList
        LOCFRAME ISTACK, 0, STACK
        LOCFRAME PSTACK, 0, STACK
        LOCFRAME XSTACK, 26, STACK
        LOCFRAME IOVERLAY, 0, STATIC
        LOCFRAME DOVERLAY, 0, STATIC
        ARGFRAME ISTACK, 0, STACK
        ARGFRAME PSTACK, 0, STACK
        ARGFRAME XSTACK, 26, STACK
        ARGFRAME IOVERLAY, 0, STATIC
        ARGFRAME DOVERLAY, 0, STATIC
        FUNCALL afIncomingData, osal_mem_free
        LOCFRAME ISTACK, 0, STACK
        LOCFRAME PSTACK, 0, STACK
        LOCFRAME XSTACK, 26, STACK
        LOCFRAME IOVERLAY, 0, STATIC
        LOCFRAME DOVERLAY, 0, STATIC
        ARGFRAME ISTACK, 0, STACK
        ARGFRAME PSTACK, 0, STACK
        ARGFRAME XSTACK, 26, STACK
        ARGFRAME IOVERLAY, 0, STATIC
        ARGFRAME DOVERLAY, 0, STATIC
        FUNCALL afIncomingData, afBuildMSGIncoming
        LOCFRAME ISTACK, 0, STACK
        LOCFRAME PSTACK, 0, STACK
        LOCFRAME XSTACK, 37, STACK
        LOCFRAME IOVERLAY, 0, STATIC
        LOCFRAME DOVERLAY, 0, STATIC
        ARGFRAME ISTACK, 0, STACK
        ARGFRAME PSTACK, 0, STACK
        ARGFRAME XSTACK, 37, STACK
        ARGFRAME IOVERLAY, 0, STATIC
        ARGFRAME DOVERLAY, 0, STATIC
        FUNCALL afIncomingData, aps_FindGroupForEndpoint
        LOCFRAME ISTACK, 0, STACK
        LOCFRAME PSTACK, 0, STACK
        LOCFRAME XSTACK, 26, STACK
        LOCFRAME IOVERLAY, 0, STATIC
        LOCFRAME DOVERLAY, 0, STATIC
        ARGFRAME ISTACK, 0, STACK
        ARGFRAME PSTACK, 0, STACK
        ARGFRAME XSTACK, 26, STACK
        ARGFRAME IOVERLAY, 0, STATIC
        ARGFRAME DOVERLAY, 0, STATIC
        FUNCALL afIncomingData, afFindEndPointDesc
        LOCFRAME ISTACK, 0, STACK
        LOCFRAME PSTACK, 0, STACK
        LOCFRAME XSTACK, 26, STACK
        LOCFRAME IOVERLAY, 0, STATIC
        LOCFRAME DOVERLAY, 0, STATIC
        ARGFRAME ISTACK, 0, STACK
        ARGFRAME PSTACK, 0, STACK
        ARGFRAME XSTACK, 26, STACK
        ARGFRAME IOVERLAY, 0, STATIC
        ARGFRAME DOVERLAY, 0, STATIC
        REQUIRE ?V0
        REQUIRE ?V1
        REQUIRE ?V2
        REQUIRE ?V3
        REQUIRE ?V4
        REQUIRE ?V5
        REQUIRE ?V6
        REQUIRE ?V7
        REQUIRE ?V8
        REQUIRE ?V9
        REQUIRE ?V10
        REQUIRE ?V11
        MOV       A,#-0x14
        LCALL     ?BANKED_ENTER_XDATA
          CFI DPH0 load(1, XDATA, add(CFA_XSP16, literal(-1)))
          CFI DPL0 load(1, XDATA, add(CFA_XSP16, literal(-2)))
          CFI ?BRET_EXT load(1, XDATA, add(CFA_XSP16, literal(-3)))
          CFI ?RET_HIGH load(1, XDATA, add(CFA_XSP16, literal(-4)))
          CFI ?RET_LOW load(1, XDATA, add(CFA_XSP16, literal(-5)))
          CFI R7 load(1, XDATA, add(CFA_XSP16, literal(-6)))
          CFI V11 load(1, XDATA, add(CFA_XSP16, literal(-7)))
          CFI V10 load(1, XDATA, add(CFA_XSP16, literal(-8)))
          CFI V9 load(1, XDATA, add(CFA_XSP16, literal(-9)))
          CFI V8 load(1, XDATA, add(CFA_XSP16, literal(-10)))
          CFI V7 load(1, XDATA, add(CFA_XSP16, literal(-11)))
          CFI V6 load(1, XDATA, add(CFA_XSP16, literal(-12)))
          CFI V5 load(1, XDATA, add(CFA_XSP16, literal(-13)))
          CFI V4 load(1, XDATA, add(CFA_XSP16, literal(-14)))
          CFI V3 load(1, XDATA, add(CFA_XSP16, literal(-15)))
          CFI V2 load(1, XDATA, add(CFA_XSP16, literal(-16)))
          CFI V1 load(1, XDATA, add(CFA_XSP16, literal(-17)))
          CFI V0 load(1, XDATA, add(CFA_XSP16, literal(-18)))
          CFI VB load(1, XDATA, add(CFA_XSP16, literal(-19)))
          CFI R6 load(1, XDATA, add(CFA_XSP16, literal(-20)))
          CFI CFA_SP SP+0
          CFI CFA_XSP16 add(XSP16, 20)
        ; Saved register size: 20
        ; Auto size: 6
        MOV       A,#-0x6
        LCALL     ?ALLOC_XSTACK8
          CFI CFA_XSP16 add(XSP16, 26)
        MOV       DPL,?XSP + 0
        MOV       DPH,?XSP + 1
        MOV       A,R2
        MOVX      @DPTR,A
        INC       DPTR
        MOV       A,R3
        MOVX      @DPTR,A
        MOV       A,#0x4
        LCALL     ?XSTACK_DISP0_8
        MOV       A,R4
        MOVX      @DPTR,A
        INC       DPTR
        MOV       A,R5
        MOVX      @DPTR,A
        MOV       A,#0x3
        LCALL     ?XSTACK_DISP0_8
        MOV       A,R1
        MOVX      @DPTR,A
//  247   endPointDesc_t *epDesc = NULL;
//  248   epList_t *pList = epList;
        MOV       DPTR,#epList
        LCALL     ?Subroutine11 & 0xFFFF
//  249 #if !defined ( APS_NO_GROUPS )
//  250   uint8 grpEp = APS_GROUPS_EP_NOT_FOUND;
??CrossCallReturnLabel_10:
        MOV       ?V6,#-0x2
//  251 #endif
//  252 
//  253   if ( ((aff->FrmCtrl & APS_DELIVERYMODE_MASK) == APS_FC_DM_GROUP) )
        LCALL     ?Subroutine9 & 0xFFFF
??CrossCallReturnLabel_6:
        JNZ       ??afIncomingData_0
//  254   {
//  255 #if !defined ( APS_NO_GROUPS )
//  256     // Find the first endpoint for this group
//  257     grpEp = aps_FindGroupForEndpoint( aff->GroupID, APS_GROUPS_FIND_FIRST );
        ; Setup parameters for call to function aps_FindGroupForEndpoint
        MOV       R1,#-0x2
        LCALL     ?Subroutine5 & 0xFFFF
//  258     if ( grpEp == APS_GROUPS_EP_NOT_FOUND )
??CrossCallReturnLabel_0:
        JNZ       $+5
        LJMP      ??afIncomingData_1 & 0xFFFF
//  259       return;   // No endpoint found
//  260 
//  261     epDesc = afFindEndPointDesc( grpEp );
        ; Setup parameters for call to function afFindEndPointDesc
        LCALL     `??afFindEndPointDesc::?relay`; Banked call to: afFindEndPointDesc
        MOV       ?V0,R2
        MOV       ?V1,R3
        MOV       R6,?V0
        MOV       R7,?V1
//  262     if ( epDesc == NULL )
        MOV       A,R2
        ORL       A,R7
        JNZ       ??afIncomingData_2
//  263       return;   // Endpoint descriptor not found
        LJMP      ??afIncomingData_1 & 0xFFFF
//  264 
//  265     pList = afFindEndPointDescList( epDesc->endPoint );
//  266 #else
//  267     return; // Not supported
//  268 #endif
//  269   }
//  270   else if ( aff->DstEndPoint == AF_BROADCAST_ENDPOINT )
??afIncomingData_0:
        LCALL     ?Subroutine15 & 0xFFFF
??CrossCallReturnLabel_17:
        JNZ       ??afIncomingData_3
//  271   {
//  272     // Set the list
//  273     if ( pList != NULL )
        MOV       A,?V4
        ORL       A,?V5
        JNZ       $+5
        LJMP      ??afIncomingData_1 & 0xFFFF
//  274     {
//  275       epDesc = pList->epDesc;
        MOV       DPL,?V4
        MOV       DPH,?V5
        INC       DPTR
        INC       DPTR
        MOVX      A,@DPTR
        MOV       R6,A
        INC       DPTR
        MOVX      A,@DPTR
        MOV       R7,A
??afIncomingData_4:
        MOV       A,#0x1f
        LCALL     ?XSTACK_DISP0_8
        MOV       R0,#?V0
        LCALL     ?L_MOV_X
        SJMP      ??afIncomingData_5
//  276     }
//  277   }
//  278   else if ( (epDesc = afFindEndPointDesc( aff->DstEndPoint )) )
??afIncomingData_3:
        ; Setup parameters for call to function afFindEndPointDesc
        MOV       DPL,?XSP + 0
        MOV       DPH,?XSP + 1
        LCALL     ??Subroutine40_0 & 0xFFFF
??CrossCallReturnLabel_77:
        INC       DPTR
        INC       DPTR
        MOVX      A,@DPTR
        MOV       R1,A
        LCALL     `??afFindEndPointDesc::?relay`; Banked call to: afFindEndPointDesc
        MOV       ?V1,R3
        MOV       R1,?V1
        MOV       A,R2
        MOV       R6,A
        MOV       A,R3
        MOV       R7,A
        MOV       A,R2
        ORL       A,R1
        JZ        ??afIncomingData_4
//  279   {
//  280     pList = afFindEndPointDescList( epDesc->endPoint );
??afIncomingData_2:
        ; Setup parameters for call to function afFindEndPointDescList
        MOV       DPL,R6
        MOV       DPH,R7
        LCALL     ?Subroutine14 & 0xFFFF
//  281   }
??CrossCallReturnLabel_15:
        SJMP      ??afIncomingData_4
//  282 
//  283   while ( epDesc )
//  284   {
//  285     uint16 epProfileID = 0xFFFF;  // Invalid Profile ID
//  286 
//  287     if ( pList->pfnDescCB )
//  288     {
//  289       uint16 *pID = (uint16 *)(pList->pfnDescCB(
//  290                                  AF_DESCRIPTOR_PROFILE_ID, epDesc->endPoint ));
//  291       if ( pID )
//  292       {
//  293         epProfileID = *pID;
//  294         osal_mem_free( pID );
//  295       }
//  296     }
//  297     else if ( epDesc->simpleDesc )
//  298     {
//  299       epProfileID = epDesc->simpleDesc->AppProfId;
//  300     }
//  301 
//  302     if ( (aff->ProfileID == epProfileID) ||
//  303          ((epDesc->endPoint == ZDO_EP) && (aff->ProfileID == ZDO_PROFILE_ID)) )
//  304     {
//  305       {
//  306         // Save original endpoint
//  307         uint8 endpoint = aff->DstEndPoint;
//  308 
//  309         // overwrite with descriptor's endpoint
//  310         aff->DstEndPoint = epDesc->endPoint;
//  311 
//  312         afBuildMSGIncoming( aff, epDesc, SrcAddress, SrcPanId, sig,
//  313                            nwkSeqNum, SecurityUse, timestamp );
//  314 
//  315         // Restore with original endpoint
//  316         aff->DstEndPoint = endpoint;
//  317       }
//  318     }
//  319 
//  320     if ( ((aff->FrmCtrl & APS_DELIVERYMODE_MASK) == APS_FC_DM_GROUP) )
//  321     {
//  322 #if !defined ( APS_NO_GROUPS )
//  323       // Find the next endpoint for this group
//  324       grpEp = aps_FindGroupForEndpoint( aff->GroupID, grpEp );
//  325       if ( grpEp == APS_GROUPS_EP_NOT_FOUND )
//  326         return;   // No endpoint found
//  327 
//  328       epDesc = afFindEndPointDesc( grpEp );
//  329       if ( epDesc == NULL )
//  330         return;   // Endpoint descriptor not found
//  331 
//  332       pList = afFindEndPointDescList( epDesc->endPoint );
//  333 #else
//  334       return;
//  335 #endif
//  336     }
//  337     else if ( aff->DstEndPoint == AF_BROADCAST_ENDPOINT )
//  338     {
//  339       pList = pList->nextDesc;
//  340       if ( pList )
//  341         epDesc = pList->epDesc;
??afIncomingData_6:
        MOV       DPL,?V4
        MOV       DPH,?V5
        INC       DPTR
        INC       DPTR
        MOVX      A,@DPTR
        MOV       R6,A
        INC       DPTR
        MOVX      A,@DPTR
        MOV       R7,A
??afIncomingData_5:
        MOV       A,R6
        ORL       A,R7
        JNZ       $+5
        LJMP      ??afIncomingData_1 & 0xFFFF
        SJMP      ??CrossCallReturnLabel_16
??afIncomingData_7:
        ; Setup parameters for call to function afFindEndPointDescList
        MOV       DPL,R2
        MOV       DPH,R3
        LCALL     ?Subroutine14 & 0xFFFF
??CrossCallReturnLabel_16:
        MOV       ?V10,#-0x1
        MOV       ?V11,#-0x1
        MOV       DPL,?V4
        MOV       DPH,?V5
        INC       DPTR
        LCALL     ?Subroutine4 & 0xFFFF
??CrossCallReturnLabel_73:
        MOV       DPL,R6
        MOV       DPH,R7
        JZ        ??afIncomingData_8
        ; Setup parameters for indirect call
        MOVX      A,@DPTR
        MOV       R2,A
        MOV       R1,#0x2
        MOV       DPL,?V4
        MOV       DPH,?V5
        INC       DPTR
        INC       DPTR
        INC       DPTR
        INC       DPTR
        LCALL     ??Subroutine40_0 & 0xFFFF
??CrossCallReturnLabel_78:
        LCALL     ?CALL_IND
        MOV       A,R2
        ORL       A,R3
        JZ        ??afIncomingData_9
        MOV       DPL,R2
        MOV       DPH,R3
        MOVX      A,@DPTR
        MOV       ?V10,A
        INC       DPTR
        MOVX      A,@DPTR
        MOV       ?V11,A
        ; Setup parameters for call to function osal_mem_free
        LCALL     `??osal_mem_free::?relay`; Banked call to: osal_mem_free
        SJMP      ??afIncomingData_9
??afIncomingData_8:
        LCALL     ?Subroutine4 & 0xFFFF
??CrossCallReturnLabel_74:
        JZ        ??afIncomingData_9
        MOV       DPL,R6
        MOV       DPH,R7
        INC       DPTR
        INC       DPTR
        INC       DPTR
        LCALL     ??Subroutine40_0 & 0xFFFF
??CrossCallReturnLabel_79:
        INC       DPTR
        MOVX      A,@DPTR
        MOV       ?V10,A
        INC       DPTR
        MOVX      A,@DPTR
        MOV       ?V11,A
??afIncomingData_9:
        LCALL     ?Subroutine10 & 0xFFFF
??CrossCallReturnLabel_8:
        MOVX      A,@DPTR
        XRL       A,?V10
        JNZ       ??afIncomingData_10
        INC       DPTR
        MOVX      A,@DPTR
        XRL       A,?V11
??afIncomingData_10:
        JZ        ??afIncomingData_11
        MOV       DPL,R6
        MOV       DPH,R7
        MOVX      A,@DPTR
        JNZ       ??CrossCallReturnLabel_24
        LCALL     ?Subroutine10 & 0xFFFF
??CrossCallReturnLabel_9:
        LCALL     ??Subroutine38_0 & 0xFFFF
??CrossCallReturnLabel_71:
        JNZ       ??CrossCallReturnLabel_24
??afIncomingData_11:
        MOV       DPL,?XSP + 0
        MOV       DPH,?XSP + 1
        MOVX      A,@DPTR
        ADD       A,#0x2
        MOV       ?V8,A
        INC       DPTR
        MOVX      A,@DPTR
        ADDC      A,#0x0
        MOV       ?V9,A
        MOV       DPL,?V8
        MOV       DPH,A
        MOVX      A,@DPTR
        PUSH      A
          CFI CFA_SP SP+-1
        MOV       A,#0x2
        LCALL     ?XSTACK_DISP0_8
        POP       A
          CFI CFA_SP SP+0
        MOVX      @DPTR,A
        MOV       DPL,R6
        MOV       DPH,R7
        LCALL     ?Subroutine18 & 0xFFFF
??CrossCallReturnLabel_23:
        ; Setup parameters for call to function afBuildMSGIncoming
        MOV       R0,#?V0
        LCALL     ?PUSH_XSTACK_I_FOUR
          CFI CFA_XSP16 add(XSP16, 30)
        MOV       A,#0x22
        LCALL     ?XSTACK_DISP0_8
        MOVX      A,@DPTR
        MOV       ?V7,A
        MOV       R0,#?V7
        LCALL     ?PUSH_XSTACK_I_ONE
          CFI CFA_XSP16 add(XSP16, 31)
        MOV       A,#0x21
        LCALL     ?XSTACK_DISP0_8
        LCALL     ?PUSH_XSTACK8_X_TWO
          CFI CFA_XSP16 add(XSP16, 33)
        MOV       A,#0x21
        LCALL     ?XSTACK_DISP0_8
        LCALL     ?PUSH_XSTACK8_X_TWO
          CFI CFA_XSP16 add(XSP16, 35)
        MOV       A,#0xd
        LCALL     ?XSTACK_DISP0_8
        LCALL     ?PUSH_XSTACK8_X_TWO
          CFI CFA_XSP16 add(XSP16, 37)
        MOV       A,#0xe
        LCALL     ?XSTACK_DISP0_8
        MOVX      A,@DPTR
        MOV       R1,A
        MOV       A,R6
        MOV       R4,A
        MOV       A,R7
        MOV       R5,A
        MOV       A,#0xb
        LCALL     ?XSTACK_DISP0_8
        LCALL     ??Subroutine43_0 & 0xFFFF
??CrossCallReturnLabel_90:
        LCALL     `??afBuildMSGIncoming::?relay`; Banked call to: afBuildMSGIncoming
        MOV       A,#0xb
        LCALL     ?DEALLOC_XSTACK8
          CFI CFA_XSP16 add(XSP16, 26)
        MOV       A,#0x2
        LCALL     ?XSTACK_DISP0_8
        LCALL     ?Subroutine18 & 0xFFFF
??CrossCallReturnLabel_24:
        LCALL     ?Subroutine9 & 0xFFFF
??CrossCallReturnLabel_7:
        JNZ       ??afIncomingData_12
        ; Setup parameters for call to function aps_FindGroupForEndpoint
        MOV       R1,?V6
        LCALL     ?Subroutine5 & 0xFFFF
??CrossCallReturnLabel_1:
        JZ        ??afIncomingData_1
        ; Setup parameters for call to function afFindEndPointDesc
        LCALL     ?Subroutine26 & 0xFFFF
??CrossCallReturnLabel_41:
        JZ        $+5
        LJMP      ??afIncomingData_7 & 0xFFFF
        SJMP      ??afIncomingData_1
??afIncomingData_12:
        LCALL     ?Subroutine15 & 0xFFFF
??CrossCallReturnLabel_18:
        JNZ       ??afIncomingData_1
        MOV       DPL,?V4
        MOV       DPH,?V5
        LCALL     ?Subroutine11 & 0xFFFF
??CrossCallReturnLabel_11:
        MOV       A,?V4
        ORL       A,?V5
        JZ        $+5
        LJMP      ??afIncomingData_6 & 0xFFFF
//  342       else
//  343         epDesc = NULL;
//  344     }
//  345     else
//  346       epDesc = NULL;
//  347   }
//  348 }
??afIncomingData_1:
        MOV       A,#0x6
        LCALL     ?DEALLOC_XSTACK8
          CFI CFA_XSP16 add(XSP16, 20)
        MOV       R7,#0xc
        LJMP      ?BANKED_LEAVE_XDATA
          CFI EndBlock cfiBlock18

        RSEG BANKED_CODE:HUGECODE:NOROOT(0)
?Subroutine26:
          CFI Block cfiCond19 Using cfiCommon0
          CFI Function afDataConfirm
          CFI Conditional ??CrossCallReturnLabel_40
          CFI R6 load(1, XDATA, add(CFA_XSP16, literal(-14)))
          CFI VB load(1, XDATA, add(CFA_XSP16, literal(-13)))
          CFI V0 load(1, XDATA, add(CFA_XSP16, literal(-12)))
          CFI V1 load(1, XDATA, add(CFA_XSP16, literal(-11)))
          CFI V2 load(1, XDATA, add(CFA_XSP16, literal(-10)))
          CFI V3 load(1, XDATA, add(CFA_XSP16, literal(-9)))
          CFI V4 load(1, XDATA, add(CFA_XSP16, literal(-8)))
          CFI V5 load(1, XDATA, add(CFA_XSP16, literal(-7)))
          CFI R7 load(1, XDATA, add(CFA_XSP16, literal(-6)))
          CFI ?RET_LOW load(1, XDATA, add(CFA_XSP16, literal(-5)))
          CFI ?RET_HIGH load(1, XDATA, add(CFA_XSP16, literal(-4)))
          CFI ?BRET_EXT load(1, XDATA, add(CFA_XSP16, literal(-3)))
          CFI DPL0 load(1, XDATA, add(CFA_XSP16, literal(-2)))
          CFI DPH0 load(1, XDATA, add(CFA_XSP16, literal(-1)))
          CFI CFA_SP SP+-2
          CFI CFA_XSP16 add(XSP16, 14)
          CFI Block cfiCond20 Using cfiCommon0
          CFI (cfiCond20) Function afIncomingData
          CFI (cfiCond20) Conditional ??CrossCallReturnLabel_41
          CFI (cfiCond20) R6 load(1, XDATA, add(CFA_XSP16, literal(-20)))
          CFI (cfiCond20) VB load(1, XDATA, add(CFA_XSP16, literal(-19)))
          CFI (cfiCond20) V0 load(1, XDATA, add(CFA_XSP16, literal(-18)))
          CFI (cfiCond20) V1 load(1, XDATA, add(CFA_XSP16, literal(-17)))
          CFI (cfiCond20) V2 load(1, XDATA, add(CFA_XSP16, literal(-16)))
          CFI (cfiCond20) V3 load(1, XDATA, add(CFA_XSP16, literal(-15)))
          CFI (cfiCond20) V4 load(1, XDATA, add(CFA_XSP16, literal(-14)))
          CFI (cfiCond20) V5 load(1, XDATA, add(CFA_XSP16, literal(-13)))
          CFI (cfiCond20) V6 load(1, XDATA, add(CFA_XSP16, literal(-12)))
          CFI (cfiCond20) V7 load(1, XDATA, add(CFA_XSP16, literal(-11)))
          CFI (cfiCond20) V8 load(1, XDATA, add(CFA_XSP16, literal(-10)))
          CFI (cfiCond20) V9 load(1, XDATA, add(CFA_XSP16, literal(-9)))
          CFI (cfiCond20) V10 load(1, XDATA, add(CFA_XSP16, literal(-8)))
          CFI (cfiCond20) V11 load(1, XDATA, add(CFA_XSP16, literal(-7)))
          CFI (cfiCond20) R7 load(1, XDATA, add(CFA_XSP16, literal(-6)))
          CFI (cfiCond20) ?RET_LOW load(1, XDATA, add(CFA_XSP16, literal(-5)))
          CFI (cfiCond20) ?RET_HIGH load(1, XDATA, add(CFA_XSP16, literal(-4)))
          CFI (cfiCond20) ?BRET_EXT load(1, XDATA, add(CFA_XSP16, literal(-3)))
          CFI (cfiCond20) DPL0 load(1, XDATA, add(CFA_XSP16, literal(-2)))
          CFI (cfiCond20) DPH0 load(1, XDATA, add(CFA_XSP16, literal(-1)))
          CFI (cfiCond20) CFA_SP SP+-2
          CFI (cfiCond20) CFA_XSP16 add(XSP16, 26)
          CFI Block cfiPicker21 Using cfiCommon1
          CFI (cfiPicker21) NoFunction
          CFI (cfiPicker21) Picker
        LCALL     `??afFindEndPointDesc::?relay`; Banked call to: afFindEndPointDesc
        MOV       ?V4,R2
        MOV       ?V5,R3
        MOV       R6,?V4
        MOV       R7,?V5
        MOV       A,R2
        ORL       A,R7
        RET
          CFI EndBlock cfiCond19
          CFI EndBlock cfiCond20
          CFI EndBlock cfiPicker21

        RSEG BANKED_CODE:HUGECODE:NOROOT(0)
?Subroutine18:
          CFI Block cfiCond22 Using cfiCommon0
          CFI Function afIncomingData
          CFI Conditional ??CrossCallReturnLabel_23
          CFI R6 load(1, XDATA, add(CFA_XSP16, literal(-20)))
          CFI VB load(1, XDATA, add(CFA_XSP16, literal(-19)))
          CFI V0 load(1, XDATA, add(CFA_XSP16, literal(-18)))
          CFI V1 load(1, XDATA, add(CFA_XSP16, literal(-17)))
          CFI V2 load(1, XDATA, add(CFA_XSP16, literal(-16)))
          CFI V3 load(1, XDATA, add(CFA_XSP16, literal(-15)))
          CFI V4 load(1, XDATA, add(CFA_XSP16, literal(-14)))
          CFI V5 load(1, XDATA, add(CFA_XSP16, literal(-13)))
          CFI V6 load(1, XDATA, add(CFA_XSP16, literal(-12)))
          CFI V7 load(1, XDATA, add(CFA_XSP16, literal(-11)))
          CFI V8 load(1, XDATA, add(CFA_XSP16, literal(-10)))
          CFI V9 load(1, XDATA, add(CFA_XSP16, literal(-9)))
          CFI V10 load(1, XDATA, add(CFA_XSP16, literal(-8)))
          CFI V11 load(1, XDATA, add(CFA_XSP16, literal(-7)))
          CFI R7 load(1, XDATA, add(CFA_XSP16, literal(-6)))
          CFI ?RET_LOW load(1, XDATA, add(CFA_XSP16, literal(-5)))
          CFI ?RET_HIGH load(1, XDATA, add(CFA_XSP16, literal(-4)))
          CFI ?BRET_EXT load(1, XDATA, add(CFA_XSP16, literal(-3)))
          CFI DPL0 load(1, XDATA, add(CFA_XSP16, literal(-2)))
          CFI DPH0 load(1, XDATA, add(CFA_XSP16, literal(-1)))
          CFI CFA_SP SP+-2
          CFI CFA_XSP16 add(XSP16, 26)
          CFI Block cfiCond23 Using cfiCommon0
          CFI (cfiCond23) Function afIncomingData
          CFI (cfiCond23) Conditional ??CrossCallReturnLabel_24
          CFI (cfiCond23) R6 load(1, XDATA, add(CFA_XSP16, literal(-20)))
          CFI (cfiCond23) VB load(1, XDATA, add(CFA_XSP16, literal(-19)))
          CFI (cfiCond23) V0 load(1, XDATA, add(CFA_XSP16, literal(-18)))
          CFI (cfiCond23) V1 load(1, XDATA, add(CFA_XSP16, literal(-17)))
          CFI (cfiCond23) V2 load(1, XDATA, add(CFA_XSP16, literal(-16)))
          CFI (cfiCond23) V3 load(1, XDATA, add(CFA_XSP16, literal(-15)))
          CFI (cfiCond23) V4 load(1, XDATA, add(CFA_XSP16, literal(-14)))
          CFI (cfiCond23) V5 load(1, XDATA, add(CFA_XSP16, literal(-13)))
          CFI (cfiCond23) V6 load(1, XDATA, add(CFA_XSP16, literal(-12)))
          CFI (cfiCond23) V7 load(1, XDATA, add(CFA_XSP16, literal(-11)))
          CFI (cfiCond23) V8 load(1, XDATA, add(CFA_XSP16, literal(-10)))
          CFI (cfiCond23) V9 load(1, XDATA, add(CFA_XSP16, literal(-9)))
          CFI (cfiCond23) V10 load(1, XDATA, add(CFA_XSP16, literal(-8)))
          CFI (cfiCond23) V11 load(1, XDATA, add(CFA_XSP16, literal(-7)))
          CFI (cfiCond23) R7 load(1, XDATA, add(CFA_XSP16, literal(-6)))
          CFI (cfiCond23) ?RET_LOW load(1, XDATA, add(CFA_XSP16, literal(-5)))
          CFI (cfiCond23) ?RET_HIGH load(1, XDATA, add(CFA_XSP16, literal(-4)))
          CFI (cfiCond23) ?BRET_EXT load(1, XDATA, add(CFA_XSP16, literal(-3)))
          CFI (cfiCond23) DPL0 load(1, XDATA, add(CFA_XSP16, literal(-2)))
          CFI (cfiCond23) DPH0 load(1, XDATA, add(CFA_XSP16, literal(-1)))
          CFI (cfiCond23) CFA_SP SP+-2
          CFI (cfiCond23) CFA_XSP16 add(XSP16, 26)
          CFI Block cfiPicker24 Using cfiCommon1
          CFI (cfiPicker24) NoFunction
          CFI (cfiPicker24) Picker
        MOVX      A,@DPTR
        MOV       DPL,?V8
        MOV       DPH,?V9
        MOVX      @DPTR,A
        RET
          CFI EndBlock cfiCond22
          CFI EndBlock cfiCond23
          CFI EndBlock cfiPicker24

        RSEG BANKED_CODE:HUGECODE:NOROOT(0)
?Subroutine15:
          CFI Block cfiCond25 Using cfiCommon0
          CFI Function afIncomingData
          CFI Conditional ??CrossCallReturnLabel_17
          CFI R6 load(1, XDATA, add(CFA_XSP16, literal(-20)))
          CFI VB load(1, XDATA, add(CFA_XSP16, literal(-19)))
          CFI V0 load(1, XDATA, add(CFA_XSP16, literal(-18)))
          CFI V1 load(1, XDATA, add(CFA_XSP16, literal(-17)))
          CFI V2 load(1, XDATA, add(CFA_XSP16, literal(-16)))
          CFI V3 load(1, XDATA, add(CFA_XSP16, literal(-15)))
          CFI V4 load(1, XDATA, add(CFA_XSP16, literal(-14)))
          CFI V5 load(1, XDATA, add(CFA_XSP16, literal(-13)))
          CFI V6 load(1, XDATA, add(CFA_XSP16, literal(-12)))
          CFI V7 load(1, XDATA, add(CFA_XSP16, literal(-11)))
          CFI V8 load(1, XDATA, add(CFA_XSP16, literal(-10)))
          CFI V9 load(1, XDATA, add(CFA_XSP16, literal(-9)))
          CFI V10 load(1, XDATA, add(CFA_XSP16, literal(-8)))
          CFI V11 load(1, XDATA, add(CFA_XSP16, literal(-7)))
          CFI R7 load(1, XDATA, add(CFA_XSP16, literal(-6)))
          CFI ?RET_LOW load(1, XDATA, add(CFA_XSP16, literal(-5)))
          CFI ?RET_HIGH load(1, XDATA, add(CFA_XSP16, literal(-4)))
          CFI ?BRET_EXT load(1, XDATA, add(CFA_XSP16, literal(-3)))
          CFI DPL0 load(1, XDATA, add(CFA_XSP16, literal(-2)))
          CFI DPH0 load(1, XDATA, add(CFA_XSP16, literal(-1)))
          CFI CFA_SP SP+-2
          CFI CFA_XSP16 add(XSP16, 26)
          CFI Block cfiCond26 Using cfiCommon0
          CFI (cfiCond26) Function afIncomingData
          CFI (cfiCond26) Conditional ??CrossCallReturnLabel_18
          CFI (cfiCond26) R6 load(1, XDATA, add(CFA_XSP16, literal(-20)))
          CFI (cfiCond26) VB load(1, XDATA, add(CFA_XSP16, literal(-19)))
          CFI (cfiCond26) V0 load(1, XDATA, add(CFA_XSP16, literal(-18)))
          CFI (cfiCond26) V1 load(1, XDATA, add(CFA_XSP16, literal(-17)))
          CFI (cfiCond26) V2 load(1, XDATA, add(CFA_XSP16, literal(-16)))
          CFI (cfiCond26) V3 load(1, XDATA, add(CFA_XSP16, literal(-15)))
          CFI (cfiCond26) V4 load(1, XDATA, add(CFA_XSP16, literal(-14)))
          CFI (cfiCond26) V5 load(1, XDATA, add(CFA_XSP16, literal(-13)))
          CFI (cfiCond26) V6 load(1, XDATA, add(CFA_XSP16, literal(-12)))
          CFI (cfiCond26) V7 load(1, XDATA, add(CFA_XSP16, literal(-11)))
          CFI (cfiCond26) V8 load(1, XDATA, add(CFA_XSP16, literal(-10)))
          CFI (cfiCond26) V9 load(1, XDATA, add(CFA_XSP16, literal(-9)))
          CFI (cfiCond26) V10 load(1, XDATA, add(CFA_XSP16, literal(-8)))
          CFI (cfiCond26) V11 load(1, XDATA, add(CFA_XSP16, literal(-7)))
          CFI (cfiCond26) R7 load(1, XDATA, add(CFA_XSP16, literal(-6)))
          CFI (cfiCond26) ?RET_LOW load(1, XDATA, add(CFA_XSP16, literal(-5)))
          CFI (cfiCond26) ?RET_HIGH load(1, XDATA, add(CFA_XSP16, literal(-4)))
          CFI (cfiCond26) ?BRET_EXT load(1, XDATA, add(CFA_XSP16, literal(-3)))
          CFI (cfiCond26) DPL0 load(1, XDATA, add(CFA_XSP16, literal(-2)))
          CFI (cfiCond26) DPH0 load(1, XDATA, add(CFA_XSP16, literal(-1)))
          CFI (cfiCond26) CFA_SP SP+-2
          CFI (cfiCond26) CFA_XSP16 add(XSP16, 26)
          CFI Block cfiPicker27 Using cfiCommon1
          CFI (cfiPicker27) NoFunction
          CFI (cfiPicker27) Picker
        LCALL     ?Subroutine31 & 0xFFFF
??CrossCallReturnLabel_88:
        INC       DPTR
        INC       DPTR
        MOVX      A,@DPTR
        CPL       A
        RET
          CFI EndBlock cfiCond25
          CFI EndBlock cfiCond26
          CFI EndBlock cfiPicker27

        RSEG BANKED_CODE:HUGECODE:NOROOT(0)
?Subroutine14:
          CFI Block cfiCond28 Using cfiCommon0
          CFI Function afIncomingData
          CFI Conditional ??CrossCallReturnLabel_15
          CFI R6 load(1, XDATA, add(CFA_XSP16, literal(-20)))
          CFI VB load(1, XDATA, add(CFA_XSP16, literal(-19)))
          CFI V0 load(1, XDATA, add(CFA_XSP16, literal(-18)))
          CFI V1 load(1, XDATA, add(CFA_XSP16, literal(-17)))
          CFI V2 load(1, XDATA, add(CFA_XSP16, literal(-16)))
          CFI V3 load(1, XDATA, add(CFA_XSP16, literal(-15)))
          CFI V4 load(1, XDATA, add(CFA_XSP16, literal(-14)))
          CFI V5 load(1, XDATA, add(CFA_XSP16, literal(-13)))
          CFI V6 load(1, XDATA, add(CFA_XSP16, literal(-12)))
          CFI V7 load(1, XDATA, add(CFA_XSP16, literal(-11)))
          CFI V8 load(1, XDATA, add(CFA_XSP16, literal(-10)))
          CFI V9 load(1, XDATA, add(CFA_XSP16, literal(-9)))
          CFI V10 load(1, XDATA, add(CFA_XSP16, literal(-8)))
          CFI V11 load(1, XDATA, add(CFA_XSP16, literal(-7)))
          CFI R7 load(1, XDATA, add(CFA_XSP16, literal(-6)))
          CFI ?RET_LOW load(1, XDATA, add(CFA_XSP16, literal(-5)))
          CFI ?RET_HIGH load(1, XDATA, add(CFA_XSP16, literal(-4)))
          CFI ?BRET_EXT load(1, XDATA, add(CFA_XSP16, literal(-3)))
          CFI DPL0 load(1, XDATA, add(CFA_XSP16, literal(-2)))
          CFI DPH0 load(1, XDATA, add(CFA_XSP16, literal(-1)))
          CFI CFA_SP SP+-2
          CFI CFA_XSP16 add(XSP16, 26)
          CFI Block cfiCond29 Using cfiCommon0
          CFI (cfiCond29) Function afIncomingData
          CFI (cfiCond29) Conditional ??CrossCallReturnLabel_16
          CFI (cfiCond29) R6 load(1, XDATA, add(CFA_XSP16, literal(-20)))
          CFI (cfiCond29) VB load(1, XDATA, add(CFA_XSP16, literal(-19)))
          CFI (cfiCond29) V0 load(1, XDATA, add(CFA_XSP16, literal(-18)))
          CFI (cfiCond29) V1 load(1, XDATA, add(CFA_XSP16, literal(-17)))
          CFI (cfiCond29) V2 load(1, XDATA, add(CFA_XSP16, literal(-16)))
          CFI (cfiCond29) V3 load(1, XDATA, add(CFA_XSP16, literal(-15)))
          CFI (cfiCond29) V4 load(1, XDATA, add(CFA_XSP16, literal(-14)))
          CFI (cfiCond29) V5 load(1, XDATA, add(CFA_XSP16, literal(-13)))
          CFI (cfiCond29) V6 load(1, XDATA, add(CFA_XSP16, literal(-12)))
          CFI (cfiCond29) V7 load(1, XDATA, add(CFA_XSP16, literal(-11)))
          CFI (cfiCond29) V8 load(1, XDATA, add(CFA_XSP16, literal(-10)))
          CFI (cfiCond29) V9 load(1, XDATA, add(CFA_XSP16, literal(-9)))
          CFI (cfiCond29) V10 load(1, XDATA, add(CFA_XSP16, literal(-8)))
          CFI (cfiCond29) V11 load(1, XDATA, add(CFA_XSP16, literal(-7)))
          CFI (cfiCond29) R7 load(1, XDATA, add(CFA_XSP16, literal(-6)))
          CFI (cfiCond29) ?RET_LOW load(1, XDATA, add(CFA_XSP16, literal(-5)))
          CFI (cfiCond29) ?RET_HIGH load(1, XDATA, add(CFA_XSP16, literal(-4)))
          CFI (cfiCond29) ?BRET_EXT load(1, XDATA, add(CFA_XSP16, literal(-3)))
          CFI (cfiCond29) DPL0 load(1, XDATA, add(CFA_XSP16, literal(-2)))
          CFI (cfiCond29) DPH0 load(1, XDATA, add(CFA_XSP16, literal(-1)))
          CFI (cfiCond29) CFA_SP SP+-2
          CFI (cfiCond29) CFA_XSP16 add(XSP16, 26)
          CFI Block cfiPicker30 Using cfiCommon1
          CFI (cfiPicker30) NoFunction
          CFI (cfiPicker30) Picker
        MOVX      A,@DPTR
        MOV       R1,A
        LCALL     `??afFindEndPointDescList::?relay`; Banked call to: afFindEndPointDescList
        MOV       ?V4,R2
        MOV       ?V5,R3
        RET
          CFI EndBlock cfiCond28
          CFI EndBlock cfiCond29
          CFI EndBlock cfiPicker30

        RSEG BANKED_CODE:HUGECODE:NOROOT(0)
?Subroutine10:
          CFI Block cfiCond31 Using cfiCommon0
          CFI Function afIncomingData
          CFI Conditional ??CrossCallReturnLabel_8
          CFI R6 load(1, XDATA, add(CFA_XSP16, literal(-20)))
          CFI VB load(1, XDATA, add(CFA_XSP16, literal(-19)))
          CFI V0 load(1, XDATA, add(CFA_XSP16, literal(-18)))
          CFI V1 load(1, XDATA, add(CFA_XSP16, literal(-17)))
          CFI V2 load(1, XDATA, add(CFA_XSP16, literal(-16)))
          CFI V3 load(1, XDATA, add(CFA_XSP16, literal(-15)))
          CFI V4 load(1, XDATA, add(CFA_XSP16, literal(-14)))
          CFI V5 load(1, XDATA, add(CFA_XSP16, literal(-13)))
          CFI V6 load(1, XDATA, add(CFA_XSP16, literal(-12)))
          CFI V7 load(1, XDATA, add(CFA_XSP16, literal(-11)))
          CFI V8 load(1, XDATA, add(CFA_XSP16, literal(-10)))
          CFI V9 load(1, XDATA, add(CFA_XSP16, literal(-9)))
          CFI V10 load(1, XDATA, add(CFA_XSP16, literal(-8)))
          CFI V11 load(1, XDATA, add(CFA_XSP16, literal(-7)))
          CFI R7 load(1, XDATA, add(CFA_XSP16, literal(-6)))
          CFI ?RET_LOW load(1, XDATA, add(CFA_XSP16, literal(-5)))
          CFI ?RET_HIGH load(1, XDATA, add(CFA_XSP16, literal(-4)))
          CFI ?BRET_EXT load(1, XDATA, add(CFA_XSP16, literal(-3)))
          CFI DPL0 load(1, XDATA, add(CFA_XSP16, literal(-2)))
          CFI DPH0 load(1, XDATA, add(CFA_XSP16, literal(-1)))
          CFI CFA_SP SP+-2
          CFI CFA_XSP16 add(XSP16, 26)
          CFI Block cfiCond32 Using cfiCommon0
          CFI (cfiCond32) Function afIncomingData
          CFI (cfiCond32) Conditional ??CrossCallReturnLabel_9
          CFI (cfiCond32) R6 load(1, XDATA, add(CFA_XSP16, literal(-20)))
          CFI (cfiCond32) VB load(1, XDATA, add(CFA_XSP16, literal(-19)))
          CFI (cfiCond32) V0 load(1, XDATA, add(CFA_XSP16, literal(-18)))
          CFI (cfiCond32) V1 load(1, XDATA, add(CFA_XSP16, literal(-17)))
          CFI (cfiCond32) V2 load(1, XDATA, add(CFA_XSP16, literal(-16)))
          CFI (cfiCond32) V3 load(1, XDATA, add(CFA_XSP16, literal(-15)))
          CFI (cfiCond32) V4 load(1, XDATA, add(CFA_XSP16, literal(-14)))
          CFI (cfiCond32) V5 load(1, XDATA, add(CFA_XSP16, literal(-13)))
          CFI (cfiCond32) V6 load(1, XDATA, add(CFA_XSP16, literal(-12)))
          CFI (cfiCond32) V7 load(1, XDATA, add(CFA_XSP16, literal(-11)))
          CFI (cfiCond32) V8 load(1, XDATA, add(CFA_XSP16, literal(-10)))
          CFI (cfiCond32) V9 load(1, XDATA, add(CFA_XSP16, literal(-9)))
          CFI (cfiCond32) V10 load(1, XDATA, add(CFA_XSP16, literal(-8)))
          CFI (cfiCond32) V11 load(1, XDATA, add(CFA_XSP16, literal(-7)))
          CFI (cfiCond32) R7 load(1, XDATA, add(CFA_XSP16, literal(-6)))
          CFI (cfiCond32) ?RET_LOW load(1, XDATA, add(CFA_XSP16, literal(-5)))
          CFI (cfiCond32) ?RET_HIGH load(1, XDATA, add(CFA_XSP16, literal(-4)))
          CFI (cfiCond32) ?BRET_EXT load(1, XDATA, add(CFA_XSP16, literal(-3)))
          CFI (cfiCond32) DPL0 load(1, XDATA, add(CFA_XSP16, literal(-2)))
          CFI (cfiCond32) DPH0 load(1, XDATA, add(CFA_XSP16, literal(-1)))
          CFI (cfiCond32) CFA_SP SP+-2
          CFI (cfiCond32) CFA_XSP16 add(XSP16, 26)
          CFI Block cfiPicker33 Using cfiCommon1
          CFI (cfiPicker33) NoFunction
          CFI (cfiPicker33) Picker
        MOV       DPL,?XSP + 0
        MOV       DPH,?XSP + 1
        MOVX      A,@DPTR
        MOV       R0,A
        INC       DPTR
        MOVX      A,@DPTR
        XCH       A,R0
        ADD       A,#0x8
        MOV       DPL,A
        CLR       A
        ADDC      A,R0
        MOV       DPH,A
        RET
          CFI EndBlock cfiCond31
          CFI EndBlock cfiCond32
          CFI EndBlock cfiPicker33

        RSEG BANKED_CODE:HUGECODE:NOROOT(0)
?Subroutine9:
          CFI Block cfiCond34 Using cfiCommon0
          CFI Function afIncomingData
          CFI Conditional ??CrossCallReturnLabel_6
          CFI R6 load(1, XDATA, add(CFA_XSP16, literal(-20)))
          CFI VB load(1, XDATA, add(CFA_XSP16, literal(-19)))
          CFI V0 load(1, XDATA, add(CFA_XSP16, literal(-18)))
          CFI V1 load(1, XDATA, add(CFA_XSP16, literal(-17)))
          CFI V2 load(1, XDATA, add(CFA_XSP16, literal(-16)))
          CFI V3 load(1, XDATA, add(CFA_XSP16, literal(-15)))
          CFI V4 load(1, XDATA, add(CFA_XSP16, literal(-14)))
          CFI V5 load(1, XDATA, add(CFA_XSP16, literal(-13)))
          CFI V6 load(1, XDATA, add(CFA_XSP16, literal(-12)))
          CFI V7 load(1, XDATA, add(CFA_XSP16, literal(-11)))
          CFI V8 load(1, XDATA, add(CFA_XSP16, literal(-10)))
          CFI V9 load(1, XDATA, add(CFA_XSP16, literal(-9)))
          CFI V10 load(1, XDATA, add(CFA_XSP16, literal(-8)))
          CFI V11 load(1, XDATA, add(CFA_XSP16, literal(-7)))
          CFI R7 load(1, XDATA, add(CFA_XSP16, literal(-6)))
          CFI ?RET_LOW load(1, XDATA, add(CFA_XSP16, literal(-5)))
          CFI ?RET_HIGH load(1, XDATA, add(CFA_XSP16, literal(-4)))
          CFI ?BRET_EXT load(1, XDATA, add(CFA_XSP16, literal(-3)))
          CFI DPL0 load(1, XDATA, add(CFA_XSP16, literal(-2)))
          CFI DPH0 load(1, XDATA, add(CFA_XSP16, literal(-1)))
          CFI CFA_SP SP+-2
          CFI CFA_XSP16 add(XSP16, 26)
          CFI Block cfiCond35 Using cfiCommon0
          CFI (cfiCond35) Function afIncomingData
          CFI (cfiCond35) Conditional ??CrossCallReturnLabel_7
          CFI (cfiCond35) R6 load(1, XDATA, add(CFA_XSP16, literal(-20)))
          CFI (cfiCond35) VB load(1, XDATA, add(CFA_XSP16, literal(-19)))
          CFI (cfiCond35) V0 load(1, XDATA, add(CFA_XSP16, literal(-18)))
          CFI (cfiCond35) V1 load(1, XDATA, add(CFA_XSP16, literal(-17)))
          CFI (cfiCond35) V2 load(1, XDATA, add(CFA_XSP16, literal(-16)))
          CFI (cfiCond35) V3 load(1, XDATA, add(CFA_XSP16, literal(-15)))
          CFI (cfiCond35) V4 load(1, XDATA, add(CFA_XSP16, literal(-14)))
          CFI (cfiCond35) V5 load(1, XDATA, add(CFA_XSP16, literal(-13)))
          CFI (cfiCond35) V6 load(1, XDATA, add(CFA_XSP16, literal(-12)))
          CFI (cfiCond35) V7 load(1, XDATA, add(CFA_XSP16, literal(-11)))
          CFI (cfiCond35) V8 load(1, XDATA, add(CFA_XSP16, literal(-10)))
          CFI (cfiCond35) V9 load(1, XDATA, add(CFA_XSP16, literal(-9)))
          CFI (cfiCond35) V10 load(1, XDATA, add(CFA_XSP16, literal(-8)))
          CFI (cfiCond35) V11 load(1, XDATA, add(CFA_XSP16, literal(-7)))
          CFI (cfiCond35) R7 load(1, XDATA, add(CFA_XSP16, literal(-6)))
          CFI (cfiCond35) ?RET_LOW load(1, XDATA, add(CFA_XSP16, literal(-5)))
          CFI (cfiCond35) ?RET_HIGH load(1, XDATA, add(CFA_XSP16, literal(-4)))
          CFI (cfiCond35) ?BRET_EXT load(1, XDATA, add(CFA_XSP16, literal(-3)))
          CFI (cfiCond35) DPL0 load(1, XDATA, add(CFA_XSP16, literal(-2)))
          CFI (cfiCond35) DPH0 load(1, XDATA, add(CFA_XSP16, literal(-1)))
          CFI (cfiCond35) CFA_SP SP+-2
          CFI (cfiCond35) CFA_XSP16 add(XSP16, 26)
          CFI Block cfiPicker36 Using cfiCommon1
          CFI (cfiPicker36) NoFunction
          CFI (cfiPicker36) Picker
        MOV       DPL,?XSP + 0
        MOV       DPH,?XSP + 1
        MOVX      A,@DPTR
        MOV       R0,A
        LCALL     ??Subroutine34_0 & 0xFFFF
??CrossCallReturnLabel_86:
        MOVX      A,@DPTR
        ANL       A,#0xc
        XRL       A,#0xc
        RET
          CFI EndBlock cfiCond34
          CFI EndBlock cfiCond35
          CFI EndBlock cfiPicker36

        RSEG BANKED_CODE:HUGECODE:NOROOT(0)
?Subroutine5:
          CFI Block cfiCond37 Using cfiCommon0
          CFI Function afIncomingData
          CFI Conditional ??CrossCallReturnLabel_0
          CFI R6 load(1, XDATA, add(CFA_XSP16, literal(-20)))
          CFI VB load(1, XDATA, add(CFA_XSP16, literal(-19)))
          CFI V0 load(1, XDATA, add(CFA_XSP16, literal(-18)))
          CFI V1 load(1, XDATA, add(CFA_XSP16, literal(-17)))
          CFI V2 load(1, XDATA, add(CFA_XSP16, literal(-16)))
          CFI V3 load(1, XDATA, add(CFA_XSP16, literal(-15)))
          CFI V4 load(1, XDATA, add(CFA_XSP16, literal(-14)))
          CFI V5 load(1, XDATA, add(CFA_XSP16, literal(-13)))
          CFI V6 load(1, XDATA, add(CFA_XSP16, literal(-12)))
          CFI V7 load(1, XDATA, add(CFA_XSP16, literal(-11)))
          CFI V8 load(1, XDATA, add(CFA_XSP16, literal(-10)))
          CFI V9 load(1, XDATA, add(CFA_XSP16, literal(-9)))
          CFI V10 load(1, XDATA, add(CFA_XSP16, literal(-8)))
          CFI V11 load(1, XDATA, add(CFA_XSP16, literal(-7)))
          CFI R7 load(1, XDATA, add(CFA_XSP16, literal(-6)))
          CFI ?RET_LOW load(1, XDATA, add(CFA_XSP16, literal(-5)))
          CFI ?RET_HIGH load(1, XDATA, add(CFA_XSP16, literal(-4)))
          CFI ?BRET_EXT load(1, XDATA, add(CFA_XSP16, literal(-3)))
          CFI DPL0 load(1, XDATA, add(CFA_XSP16, literal(-2)))
          CFI DPH0 load(1, XDATA, add(CFA_XSP16, literal(-1)))
          CFI CFA_SP SP+-2
          CFI CFA_XSP16 add(XSP16, 26)
          CFI Block cfiCond38 Using cfiCommon0
          CFI (cfiCond38) Function afIncomingData
          CFI (cfiCond38) Conditional ??CrossCallReturnLabel_1
          CFI (cfiCond38) R6 load(1, XDATA, add(CFA_XSP16, literal(-20)))
          CFI (cfiCond38) VB load(1, XDATA, add(CFA_XSP16, literal(-19)))
          CFI (cfiCond38) V0 load(1, XDATA, add(CFA_XSP16, literal(-18)))
          CFI (cfiCond38) V1 load(1, XDATA, add(CFA_XSP16, literal(-17)))
          CFI (cfiCond38) V2 load(1, XDATA, add(CFA_XSP16, literal(-16)))
          CFI (cfiCond38) V3 load(1, XDATA, add(CFA_XSP16, literal(-15)))
          CFI (cfiCond38) V4 load(1, XDATA, add(CFA_XSP16, literal(-14)))
          CFI (cfiCond38) V5 load(1, XDATA, add(CFA_XSP16, literal(-13)))
          CFI (cfiCond38) V6 load(1, XDATA, add(CFA_XSP16, literal(-12)))
          CFI (cfiCond38) V7 load(1, XDATA, add(CFA_XSP16, literal(-11)))
          CFI (cfiCond38) V8 load(1, XDATA, add(CFA_XSP16, literal(-10)))
          CFI (cfiCond38) V9 load(1, XDATA, add(CFA_XSP16, literal(-9)))
          CFI (cfiCond38) V10 load(1, XDATA, add(CFA_XSP16, literal(-8)))
          CFI (cfiCond38) V11 load(1, XDATA, add(CFA_XSP16, literal(-7)))
          CFI (cfiCond38) R7 load(1, XDATA, add(CFA_XSP16, literal(-6)))
          CFI (cfiCond38) ?RET_LOW load(1, XDATA, add(CFA_XSP16, literal(-5)))
          CFI (cfiCond38) ?RET_HIGH load(1, XDATA, add(CFA_XSP16, literal(-4)))
          CFI (cfiCond38) ?BRET_EXT load(1, XDATA, add(CFA_XSP16, literal(-3)))
          CFI (cfiCond38) DPL0 load(1, XDATA, add(CFA_XSP16, literal(-2)))
          CFI (cfiCond38) DPH0 load(1, XDATA, add(CFA_XSP16, literal(-1)))
          CFI (cfiCond38) CFA_SP SP+-2
          CFI (cfiCond38) CFA_XSP16 add(XSP16, 26)
          CFI Block cfiPicker39 Using cfiCommon1
          CFI (cfiPicker39) NoFunction
          CFI (cfiPicker39) Picker
        LCALL     ?Subroutine31 & 0xFFFF
??CrossCallReturnLabel_87:
        INC       DPTR
        INC       DPTR
        INC       DPTR
        INC       DPTR
        MOVX      A,@DPTR
        MOV       R2,A
        INC       DPTR
        MOVX      A,@DPTR
        MOV       R3,A
        LCALL     `??aps_FindGroupForEndpoint::?relay`; Banked call to: aps_FindGroupForEndpoint
        MOV       A,R1
        MOV       ?V6,A
        MOV       A,#-0x2
        XRL       A,R1
        RET
          CFI EndBlock cfiCond37
          CFI EndBlock cfiCond38
          CFI EndBlock cfiPicker39
//  349 
//  350 /*********************************************************************
//  351  * @fn          afBuildMSGIncoming
//  352  *
//  353  * @brief       Build the message for the app
//  354  *
//  355  * @param
//  356  *
//  357  * @return      pointer to next in data buffer
//  358  */

        RSEG BANKED_CODE:HUGECODE:NOROOT(0)
//  359 static void afBuildMSGIncoming( aps_FrameFormat_t *aff, endPointDesc_t *epDesc,
afBuildMSGIncoming:
          CFI Block cfiBlock40 Using cfiCommon0
          CFI Function afBuildMSGIncoming
        CODE
//  360                  zAddrType_t *SrcAddress, uint16 SrcPanId, NLDE_Signal_t *sig,
//  361                  uint8 nwkSeqNum, uint8 SecurityUse, uint32 timestamp )
//  362 {
        FUNCALL afBuildMSGIncoming, osal_msg_allocate
        LOCFRAME ISTACK, 0, STACK
        LOCFRAME PSTACK, 0, STACK
        LOCFRAME XSTACK, 18, STACK
        LOCFRAME IOVERLAY, 0, STATIC
        LOCFRAME DOVERLAY, 0, STATIC
        ARGFRAME ISTACK, 0, STACK
        ARGFRAME PSTACK, 0, STACK
        ARGFRAME XSTACK, 18, STACK
        ARGFRAME IOVERLAY, 0, STATIC
        ARGFRAME DOVERLAY, 0, STATIC
        FUNCALL afBuildMSGIncoming, afCopyAddress
        LOCFRAME ISTACK, 0, STACK
        LOCFRAME PSTACK, 0, STACK
        LOCFRAME XSTACK, 18, STACK
        LOCFRAME IOVERLAY, 0, STATIC
        LOCFRAME DOVERLAY, 0, STATIC
        ARGFRAME ISTACK, 0, STACK
        ARGFRAME PSTACK, 0, STACK
        ARGFRAME XSTACK, 18, STACK
        ARGFRAME IOVERLAY, 0, STATIC
        ARGFRAME DOVERLAY, 0, STATIC
        FUNCALL afBuildMSGIncoming, osal_memcpy
        LOCFRAME ISTACK, 0, STACK
        LOCFRAME PSTACK, 0, STACK
        LOCFRAME XSTACK, 21, STACK
        LOCFRAME IOVERLAY, 0, STATIC
        LOCFRAME DOVERLAY, 0, STATIC
        ARGFRAME ISTACK, 0, STACK
        ARGFRAME PSTACK, 0, STACK
        ARGFRAME XSTACK, 21, STACK
        ARGFRAME IOVERLAY, 0, STATIC
        ARGFRAME DOVERLAY, 0, STATIC
        FUNCALL afBuildMSGIncoming, osal_msg_send
        LOCFRAME ISTACK, 0, STACK
        LOCFRAME PSTACK, 0, STACK
        LOCFRAME XSTACK, 18, STACK
        LOCFRAME IOVERLAY, 0, STATIC
        LOCFRAME DOVERLAY, 0, STATIC
        ARGFRAME ISTACK, 0, STACK
        ARGFRAME PSTACK, 0, STACK
        ARGFRAME XSTACK, 18, STACK
        ARGFRAME IOVERLAY, 0, STATIC
        ARGFRAME DOVERLAY, 0, STATIC
        REQUIRE ?V0
        REQUIRE ?V1
        REQUIRE ?V2
        REQUIRE ?V3
        REQUIRE ?V4
        REQUIRE ?V5
        REQUIRE ?V6
        REQUIRE ?V7
        REQUIRE ?V8
        REQUIRE ?V9
        MOV       A,#-0x12
        LCALL     ?BANKED_ENTER_XDATA
          CFI DPH0 load(1, XDATA, add(CFA_XSP16, literal(-1)))
          CFI DPL0 load(1, XDATA, add(CFA_XSP16, literal(-2)))
          CFI ?BRET_EXT load(1, XDATA, add(CFA_XSP16, literal(-3)))
          CFI ?RET_HIGH load(1, XDATA, add(CFA_XSP16, literal(-4)))
          CFI ?RET_LOW load(1, XDATA, add(CFA_XSP16, literal(-5)))
          CFI R7 load(1, XDATA, add(CFA_XSP16, literal(-6)))
          CFI V9 load(1, XDATA, add(CFA_XSP16, literal(-7)))
          CFI V8 load(1, XDATA, add(CFA_XSP16, literal(-8)))
          CFI V7 load(1, XDATA, add(CFA_XSP16, literal(-9)))
          CFI V6 load(1, XDATA, add(CFA_XSP16, literal(-10)))
          CFI V5 load(1, XDATA, add(CFA_XSP16, literal(-11)))
          CFI V4 load(1, XDATA, add(CFA_XSP16, literal(-12)))
          CFI V3 load(1, XDATA, add(CFA_XSP16, literal(-13)))
          CFI V2 load(1, XDATA, add(CFA_XSP16, literal(-14)))
          CFI V1 load(1, XDATA, add(CFA_XSP16, literal(-15)))
          CFI V0 load(1, XDATA, add(CFA_XSP16, literal(-16)))
          CFI VB load(1, XDATA, add(CFA_XSP16, literal(-17)))
          CFI R6 load(1, XDATA, add(CFA_XSP16, literal(-18)))
          CFI CFA_SP SP+0
          CFI CFA_XSP16 add(XSP16, 18)
        ; Saved register size: 18
        ; Auto size: 0
        MOV       ?V0,R2
        MOV       ?V1,R3
        MOV       ?V2,R4
        MOV       ?V3,R5
        MOV       ?V7,R1
//  363   afIncomingMSGPacket_t *MSGpkt;
//  364   const uint8 len = sizeof( afIncomingMSGPacket_t ) + aff->asduLength;
//  365   uint8 *asdu = aff->asdu;
        MOV       A,R2
        ADD       A,#0xe
        MOV       DPL,A
        CLR       A
        ADDC      A,?V1
        MOV       DPH,A
        LCALL     ?Subroutine11 & 0xFFFF
//  366   MSGpkt = (afIncomingMSGPacket_t *)osal_msg_allocate( len );
??CrossCallReturnLabel_12:
        ; Setup parameters for call to function osal_msg_allocate
        MOV       A,R2
        LCALL     ?Subroutine27 & 0xFFFF
??CrossCallReturnLabel_42:
        ADD       A,#0x24
        MOV       R2,A
        MOV       R3,#0x0
        LCALL     `??osal_msg_allocate::?relay`; Banked call to: osal_msg_allocate
        MOV       ?V8,R2
        MOV       ?V9,R3
        MOV       R6,?V8
        MOV       R7,?V9
//  367 
//  368   if ( MSGpkt == NULL )
        MOV       A,R2
        ORL       A,R7
        JNZ       $+5
        LJMP      ??CrossCallReturnLabel_5 & 0xFFFF
//  369   {
//  370     return;
//  371   }
//  372 
//  373   MSGpkt->hdr.event = AF_INCOMING_MSG_CMD;
        MOV       DPL,R2
        MOV       DPH,R3
        MOV       A,#0x1a
        LCALL     ?Subroutine21 & 0xFFFF
//  374   MSGpkt->groupId = aff->GroupID;
??CrossCallReturnLabel_27:
        LCALL     ?Subroutine12 & 0xFFFF
??CrossCallReturnLabel_13:
        LCALL     ??Subroutine36_0 & 0xFFFF
//  375   MSGpkt->clusterId = aff->ClusterID;
??CrossCallReturnLabel_53:
        MOV       DPL,?V0
        MOV       DPH,?V1
        INC       DPTR
        INC       DPTR
        LCALL     ?Subroutine12 & 0xFFFF
??CrossCallReturnLabel_14:
        INC       DPTR
        INC       DPTR
        LCALL     ??Subroutine36_0 & 0xFFFF
//  376   afCopyAddress( &MSGpkt->srcAddr, SrcAddress );
??CrossCallReturnLabel_54:
        ; Setup parameters for call to function afCopyAddress
        MOV       A,#0x12
        LCALL     ?XSTACK_DISP0_8
        LCALL     ?Subroutine17 & 0xFFFF
??CrossCallReturnLabel_19:
        MOV       A,R2
        ADD       A,#0x6
        MOV       R2,A
        CLR       A
        ADDC      A,R7
        MOV       R3,A
        LCALL     `??afCopyAddress::?relay`; Banked call to: afCopyAddress
//  377   MSGpkt->srcAddr.endPoint = aff->SrcEndPoint;
        MOV       DPL,?V0
        MOV       DPH,?V1
        INC       DPTR
        INC       DPTR
        INC       DPTR
        MOVX      A,@DPTR
        PUSH      A
          CFI CFA_SP SP+-1
        MOV       A,R6
        ADD       A,#0xf
        MOV       DPL,A
        CLR       A
        ADDC      A,R7
        MOV       DPH,A
        POP       A
          CFI CFA_SP SP+0
        MOVX      @DPTR,A
//  378   MSGpkt->endPoint = epDesc->endPoint;
        MOV       DPL,?V2
        MOV       DPH,?V3
        MOVX      A,@DPTR
        PUSH      A
          CFI CFA_SP SP+-1
        MOV       A,R6
        ADD       A,#0x14
        MOV       DPL,A
        CLR       A
        ADDC      A,R7
        MOV       DPH,A
        POP       A
          CFI CFA_SP SP+0
        MOVX      @DPTR,A
//  379   MSGpkt->wasBroadcast = aff->wasBroadcast;
        MOV       A,?V0
        ADD       A,#0xc
        MOV       DPL,A
        CLR       A
        ADDC      A,?V1
        MOV       DPH,A
        MOVX      A,@DPTR
        PUSH      A
          CFI CFA_SP SP+-1
        MOV       A,R6
        ADD       A,#0x15
        MOV       DPL,A
        CLR       A
        ADDC      A,R7
        MOV       DPH,A
        POP       A
          CFI CFA_SP SP+0
        MOVX      @DPTR,A
        MOV       A,#0x16
        LCALL     ?XSTACK_DISP0_8
        LCALL     ??Subroutine37_0 & 0xFFFF
//  380   MSGpkt->LinkQuality = sig->LinkQuality;
??CrossCallReturnLabel_62:
        MOV       DPL,R0
        MOV       DPH,A
        MOVX      A,@DPTR
        PUSH      A
          CFI CFA_SP SP+-1
        MOV       A,R6
        ADD       A,#0x16
        MOV       DPL,A
        CLR       A
        ADDC      A,R7
        MOV       DPH,A
        POP       A
          CFI CFA_SP SP+0
        MOVX      @DPTR,A
//  381   MSGpkt->correlation = sig->correlation;
        MOV       DPL,R0
        MOV       DPH,R1
        INC       DPTR
        MOVX      A,@DPTR
        PUSH      A
          CFI CFA_SP SP+-1
        MOV       A,R6
        ADD       A,#0x17
        MOV       DPL,A
        CLR       A
        ADDC      A,R7
        MOV       DPH,A
        POP       A
          CFI CFA_SP SP+0
        MOVX      @DPTR,A
//  382   MSGpkt->rssi = sig->rssi;
        MOV       DPL,R0
        MOV       DPH,R1
        INC       DPTR
        INC       DPTR
        MOVX      A,@DPTR
        PUSH      A
          CFI CFA_SP SP+-1
        MOV       A,R6
        ADD       A,#0x18
        MOV       DPL,A
        CLR       A
        ADDC      A,R7
        MOV       DPH,A
        POP       A
          CFI CFA_SP SP+0
        MOVX      @DPTR,A
//  383   MSGpkt->SecurityUse = SecurityUse;
        MOV       A,#0x18
        LCALL     ?XSTACK_DISP0_8
        MOVX      A,@DPTR
        PUSH      A
          CFI CFA_SP SP+-1
        MOV       A,R6
        ADD       A,#0x19
        MOV       DPL,A
        CLR       A
        ADDC      A,R7
        MOV       DPH,A
        POP       A
          CFI CFA_SP SP+0
        MOVX      @DPTR,A
//  384   MSGpkt->timestamp = timestamp;
        MOV       A,#0x19
        LCALL     ?XSTACK_DISP0_8
        LCALL     ?XLOAD_R0123
        MOV       A,R6
        ADD       A,#0x1a
        MOV       DPL,A
        CLR       A
        ADDC      A,R7
        MOV       DPH,A
        LCALL     ?XSTORE_R0123
//  385   MSGpkt->nwkSeqNum = nwkSeqNum;
        MOV       A,R6
        ADD       A,#0x1e
        MOV       DPL,A
        CLR       A
        ADDC      A,R7
        MOV       DPH,A
        MOV       A,?V7
        LCALL     ?Subroutine21 & 0xFFFF
//  386   MSGpkt->macDestAddr = aff->macDestAddr;
??CrossCallReturnLabel_28:
        INC       DPTR
        INC       DPTR
        INC       DPTR
        INC       DPTR
        INC       DPTR
        INC       DPTR
        INC       DPTR
        INC       DPTR
        INC       DPTR
        LCALL     ?Subroutine13 & 0xFFFF
??CrossCallReturnLabel_68:
        MOV       A,R6
        ADD       A,#0x12
        LCALL     ?Subroutine20 & 0xFFFF
//  387   MSGpkt->srcAddr.panId = SrcPanId;
??CrossCallReturnLabel_60:
        MOV       A,#0x14
        LCALL     ?XSTACK_DISP0_8
        LCALL     ??Subroutine37_0 & 0xFFFF
??CrossCallReturnLabel_63:
        MOV       A,R6
        ADD       A,#0x10
        LCALL     ?Subroutine20 & 0xFFFF
//  388   MSGpkt->cmd.TransSeqNumber = 0;
??CrossCallReturnLabel_61:
        MOV       A,R6
        ADD       A,#0x1f
        MOV       DPL,A
        CLR       A
        ADDC      A,R7
        MOV       DPH,A
        CLR       A
        MOVX      @DPTR,A
        MOV       A,?V0
        LCALL     ?Subroutine27 & 0xFFFF
??CrossCallReturnLabel_43:
        MOV       R0,A
        LCALL     ?Subroutine28 & 0xFFFF
??CrossCallReturnLabel_44:
        MOV       A,R0
        MOVX      @DPTR,A
        INC       DPTR
        CLR       A
        MOVX      @DPTR,A
//  389   MSGpkt->cmd.DataLength = aff->asduLength;
//  390 
//  391   if ( MSGpkt->cmd.DataLength )
        MOV       A,R0
        JZ        ??afBuildMSGIncoming_0
//  392   {
//  393     MSGpkt->cmd.Data = (uint8 *)(MSGpkt + 1);
        MOV       A,R6
        ADD       A,#0x24
        MOV       R2,A
        CLR       A
        ADDC      A,R7
        MOV       R3,A
        LCALL     ?Subroutine29 & 0xFFFF
??CrossCallReturnLabel_46:
        MOV       A,R2
        MOVX      @DPTR,A
        INC       DPTR
        MOV       A,R3
        MOVX      @DPTR,A
//  394     osal_memcpy( MSGpkt->cmd.Data, asdu, MSGpkt->cmd.DataLength );
        ; Setup parameters for call to function osal_memcpy
        MOV       ?V6,#0x0
        MOV       R0,#?V4
        LCALL     ?PUSH_XSTACK_I_THREE
          CFI CFA_XSP16 add(XSP16, 21)
        LCALL     ?Subroutine28 & 0xFFFF
//  395   }
??CrossCallReturnLabel_45:
        LCALL     ?Subroutine17 & 0xFFFF
??CrossCallReturnLabel_20:
        LCALL     `??osal_memcpy::?relay`; Banked call to: osal_memcpy
        MOV       A,#0x3
        LCALL     ?DEALLOC_XSTACK8
          CFI CFA_XSP16 add(XSP16, 18)
        SJMP      ??afBuildMSGIncoming_1
//  396   else
//  397   {
//  398     MSGpkt->cmd.Data = NULL;
??afBuildMSGIncoming_0:
        LCALL     ?Subroutine29 & 0xFFFF
//  399   }
??CrossCallReturnLabel_47:
        CLR       A
        MOVX      @DPTR,A
        INC       DPTR
        MOVX      @DPTR,A
//  400 
//  401 #if defined ( MT_AF_CB_FUNC )
//  402   // If ZDO or SAPI have registered for this endpoint, dont intercept it here
//  403   if (AFCB_CHECK(CB_ID_AF_DATA_IND, *(epDesc->task_id)))
//  404   {
//  405     MT_AfIncomingMsg( (void *)MSGpkt );
//  406     // Release the memory.
//  407     osal_msg_deallocate( (void *)MSGpkt );
//  408   }
//  409   else
//  410 #endif
//  411   {
//  412     // Send message through task message.
//  413     osal_msg_send( *(epDesc->task_id), (uint8 *)MSGpkt );
??afBuildMSGIncoming_1:
        ; Setup parameters for call to function osal_msg_send
        MOV       A,R6
        MOV       R2,A
        MOV       A,R7
        MOV       R3,A
        MOV       DPL,?V2
        MOV       DPH,?V3
        LCALL     ?Subroutine8 & 0xFFFF
//  414   }
//  415 }
??CrossCallReturnLabel_5:
        MOV       R7,#0xa
        LJMP      ?BANKED_LEAVE_XDATA
          CFI EndBlock cfiBlock40

        RSEG BANKED_CODE:HUGECODE:NOROOT(0)
?Subroutine29:
          CFI Block cfiCond41 Using cfiCommon0
          CFI Function afBuildMSGIncoming
          CFI Conditional ??CrossCallReturnLabel_46
          CFI R6 load(1, XDATA, add(CFA_XSP16, literal(-18)))
          CFI VB load(1, XDATA, add(CFA_XSP16, literal(-17)))
          CFI V0 load(1, XDATA, add(CFA_XSP16, literal(-16)))
          CFI V1 load(1, XDATA, add(CFA_XSP16, literal(-15)))
          CFI V2 load(1, XDATA, add(CFA_XSP16, literal(-14)))
          CFI V3 load(1, XDATA, add(CFA_XSP16, literal(-13)))
          CFI V4 load(1, XDATA, add(CFA_XSP16, literal(-12)))
          CFI V5 load(1, XDATA, add(CFA_XSP16, literal(-11)))
          CFI V6 load(1, XDATA, add(CFA_XSP16, literal(-10)))
          CFI V7 load(1, XDATA, add(CFA_XSP16, literal(-9)))
          CFI V8 load(1, XDATA, add(CFA_XSP16, literal(-8)))
          CFI V9 load(1, XDATA, add(CFA_XSP16, literal(-7)))
          CFI R7 load(1, XDATA, add(CFA_XSP16, literal(-6)))
          CFI ?RET_LOW load(1, XDATA, add(CFA_XSP16, literal(-5)))
          CFI ?RET_HIGH load(1, XDATA, add(CFA_XSP16, literal(-4)))
          CFI ?BRET_EXT load(1, XDATA, add(CFA_XSP16, literal(-3)))
          CFI DPL0 load(1, XDATA, add(CFA_XSP16, literal(-2)))
          CFI DPH0 load(1, XDATA, add(CFA_XSP16, literal(-1)))
          CFI CFA_SP SP+-2
          CFI CFA_XSP16 add(XSP16, 18)
          CFI Block cfiCond42 Using cfiCommon0
          CFI (cfiCond42) Function afBuildMSGIncoming
          CFI (cfiCond42) Conditional ??CrossCallReturnLabel_47
          CFI (cfiCond42) R6 load(1, XDATA, add(CFA_XSP16, literal(-18)))
          CFI (cfiCond42) VB load(1, XDATA, add(CFA_XSP16, literal(-17)))
          CFI (cfiCond42) V0 load(1, XDATA, add(CFA_XSP16, literal(-16)))
          CFI (cfiCond42) V1 load(1, XDATA, add(CFA_XSP16, literal(-15)))
          CFI (cfiCond42) V2 load(1, XDATA, add(CFA_XSP16, literal(-14)))
          CFI (cfiCond42) V3 load(1, XDATA, add(CFA_XSP16, literal(-13)))
          CFI (cfiCond42) V4 load(1, XDATA, add(CFA_XSP16, literal(-12)))
          CFI (cfiCond42) V5 load(1, XDATA, add(CFA_XSP16, literal(-11)))
          CFI (cfiCond42) V6 load(1, XDATA, add(CFA_XSP16, literal(-10)))
          CFI (cfiCond42) V7 load(1, XDATA, add(CFA_XSP16, literal(-9)))
          CFI (cfiCond42) V8 load(1, XDATA, add(CFA_XSP16, literal(-8)))
          CFI (cfiCond42) V9 load(1, XDATA, add(CFA_XSP16, literal(-7)))
          CFI (cfiCond42) R7 load(1, XDATA, add(CFA_XSP16, literal(-6)))
          CFI (cfiCond42) ?RET_LOW load(1, XDATA, add(CFA_XSP16, literal(-5)))
          CFI (cfiCond42) ?RET_HIGH load(1, XDATA, add(CFA_XSP16, literal(-4)))
          CFI (cfiCond42) ?BRET_EXT load(1, XDATA, add(CFA_XSP16, literal(-3)))
          CFI (cfiCond42) DPL0 load(1, XDATA, add(CFA_XSP16, literal(-2)))
          CFI (cfiCond42) DPH0 load(1, XDATA, add(CFA_XSP16, literal(-1)))
          CFI (cfiCond42) CFA_SP SP+-2
          CFI (cfiCond42) CFA_XSP16 add(XSP16, 18)
          CFI Block cfiPicker43 Using cfiCommon1
          CFI (cfiPicker43) NoFunction
          CFI (cfiPicker43) Picker
        MOV       A,R6
        ADD       A,#0x22
        MOV       DPL,A
        CLR       A
        ADDC      A,R7
        MOV       DPH,A
        RET
          CFI EndBlock cfiCond41
          CFI EndBlock cfiCond42
          CFI EndBlock cfiPicker43

        RSEG BANKED_CODE:HUGECODE:NOROOT(0)
?Subroutine28:
          CFI Block cfiCond44 Using cfiCommon0
          CFI Function afBuildMSGIncoming
          CFI Conditional ??CrossCallReturnLabel_44
          CFI R6 load(1, XDATA, add(CFA_XSP16, literal(-18)))
          CFI VB load(1, XDATA, add(CFA_XSP16, literal(-17)))
          CFI V0 load(1, XDATA, add(CFA_XSP16, literal(-16)))
          CFI V1 load(1, XDATA, add(CFA_XSP16, literal(-15)))
          CFI V2 load(1, XDATA, add(CFA_XSP16, literal(-14)))
          CFI V3 load(1, XDATA, add(CFA_XSP16, literal(-13)))
          CFI V4 load(1, XDATA, add(CFA_XSP16, literal(-12)))
          CFI V5 load(1, XDATA, add(CFA_XSP16, literal(-11)))
          CFI V6 load(1, XDATA, add(CFA_XSP16, literal(-10)))
          CFI V7 load(1, XDATA, add(CFA_XSP16, literal(-9)))
          CFI V8 load(1, XDATA, add(CFA_XSP16, literal(-8)))
          CFI V9 load(1, XDATA, add(CFA_XSP16, literal(-7)))
          CFI R7 load(1, XDATA, add(CFA_XSP16, literal(-6)))
          CFI ?RET_LOW load(1, XDATA, add(CFA_XSP16, literal(-5)))
          CFI ?RET_HIGH load(1, XDATA, add(CFA_XSP16, literal(-4)))
          CFI ?BRET_EXT load(1, XDATA, add(CFA_XSP16, literal(-3)))
          CFI DPL0 load(1, XDATA, add(CFA_XSP16, literal(-2)))
          CFI DPH0 load(1, XDATA, add(CFA_XSP16, literal(-1)))
          CFI CFA_SP SP+-2
          CFI CFA_XSP16 add(XSP16, 18)
          CFI Block cfiCond45 Using cfiCommon0
          CFI (cfiCond45) Function afBuildMSGIncoming
          CFI (cfiCond45) Conditional ??CrossCallReturnLabel_45
          CFI (cfiCond45) R6 load(1, XDATA, add(CFA_XSP16, literal(-18)))
          CFI (cfiCond45) VB load(1, XDATA, add(CFA_XSP16, literal(-17)))
          CFI (cfiCond45) V0 load(1, XDATA, add(CFA_XSP16, literal(-16)))
          CFI (cfiCond45) V1 load(1, XDATA, add(CFA_XSP16, literal(-15)))
          CFI (cfiCond45) V2 load(1, XDATA, add(CFA_XSP16, literal(-14)))
          CFI (cfiCond45) V3 load(1, XDATA, add(CFA_XSP16, literal(-13)))
          CFI (cfiCond45) V4 load(1, XDATA, add(CFA_XSP16, literal(-12)))
          CFI (cfiCond45) V5 load(1, XDATA, add(CFA_XSP16, literal(-11)))
          CFI (cfiCond45) V6 load(1, XDATA, add(CFA_XSP16, literal(-10)))
          CFI (cfiCond45) V7 load(1, XDATA, add(CFA_XSP16, literal(-9)))
          CFI (cfiCond45) V8 load(1, XDATA, add(CFA_XSP16, literal(-8)))
          CFI (cfiCond45) V9 load(1, XDATA, add(CFA_XSP16, literal(-7)))
          CFI (cfiCond45) R7 load(1, XDATA, add(CFA_XSP16, literal(-6)))
          CFI (cfiCond45) ?RET_LOW load(1, XDATA, add(CFA_XSP16, literal(-5)))
          CFI (cfiCond45) ?RET_HIGH load(1, XDATA, add(CFA_XSP16, literal(-4)))
          CFI (cfiCond45) ?BRET_EXT load(1, XDATA, add(CFA_XSP16, literal(-3)))
          CFI (cfiCond45) DPL0 load(1, XDATA, add(CFA_XSP16, literal(-2)))
          CFI (cfiCond45) DPH0 load(1, XDATA, add(CFA_XSP16, literal(-1)))
          CFI (cfiCond45) CFA_SP SP+-2
          CFI (cfiCond45) CFA_XSP16 add(XSP16, 21)
          CFI Block cfiPicker46 Using cfiCommon1
          CFI (cfiPicker46) NoFunction
          CFI (cfiPicker46) Picker
        MOV       A,R6
        ADD       A,#0x20
        MOV       DPL,A
        CLR       A
        ADDC      A,R7
        MOV       DPH,A
        RET
          CFI EndBlock cfiCond44
          CFI EndBlock cfiCond45
          CFI EndBlock cfiPicker46

        RSEG BANKED_CODE:HUGECODE:NOROOT(0)
?Subroutine27:
          CFI Block cfiCond47 Using cfiCommon0
          CFI Function afBuildMSGIncoming
          CFI Conditional ??CrossCallReturnLabel_42
          CFI R6 load(1, XDATA, add(CFA_XSP16, literal(-18)))
          CFI VB load(1, XDATA, add(CFA_XSP16, literal(-17)))
          CFI V0 load(1, XDATA, add(CFA_XSP16, literal(-16)))
          CFI V1 load(1, XDATA, add(CFA_XSP16, literal(-15)))
          CFI V2 load(1, XDATA, add(CFA_XSP16, literal(-14)))
          CFI V3 load(1, XDATA, add(CFA_XSP16, literal(-13)))
          CFI V4 load(1, XDATA, add(CFA_XSP16, literal(-12)))
          CFI V5 load(1, XDATA, add(CFA_XSP16, literal(-11)))
          CFI V6 load(1, XDATA, add(CFA_XSP16, literal(-10)))
          CFI V7 load(1, XDATA, add(CFA_XSP16, literal(-9)))
          CFI V8 load(1, XDATA, add(CFA_XSP16, literal(-8)))
          CFI V9 load(1, XDATA, add(CFA_XSP16, literal(-7)))
          CFI R7 load(1, XDATA, add(CFA_XSP16, literal(-6)))
          CFI ?RET_LOW load(1, XDATA, add(CFA_XSP16, literal(-5)))
          CFI ?RET_HIGH load(1, XDATA, add(CFA_XSP16, literal(-4)))
          CFI ?BRET_EXT load(1, XDATA, add(CFA_XSP16, literal(-3)))
          CFI DPL0 load(1, XDATA, add(CFA_XSP16, literal(-2)))
          CFI DPH0 load(1, XDATA, add(CFA_XSP16, literal(-1)))
          CFI CFA_SP SP+-2
          CFI CFA_XSP16 add(XSP16, 18)
          CFI Block cfiCond48 Using cfiCommon0
          CFI (cfiCond48) Function afBuildMSGIncoming
          CFI (cfiCond48) Conditional ??CrossCallReturnLabel_43
          CFI (cfiCond48) R6 load(1, XDATA, add(CFA_XSP16, literal(-18)))
          CFI (cfiCond48) VB load(1, XDATA, add(CFA_XSP16, literal(-17)))
          CFI (cfiCond48) V0 load(1, XDATA, add(CFA_XSP16, literal(-16)))
          CFI (cfiCond48) V1 load(1, XDATA, add(CFA_XSP16, literal(-15)))
          CFI (cfiCond48) V2 load(1, XDATA, add(CFA_XSP16, literal(-14)))
          CFI (cfiCond48) V3 load(1, XDATA, add(CFA_XSP16, literal(-13)))
          CFI (cfiCond48) V4 load(1, XDATA, add(CFA_XSP16, literal(-12)))
          CFI (cfiCond48) V5 load(1, XDATA, add(CFA_XSP16, literal(-11)))
          CFI (cfiCond48) V6 load(1, XDATA, add(CFA_XSP16, literal(-10)))
          CFI (cfiCond48) V7 load(1, XDATA, add(CFA_XSP16, literal(-9)))
          CFI (cfiCond48) V8 load(1, XDATA, add(CFA_XSP16, literal(-8)))
          CFI (cfiCond48) V9 load(1, XDATA, add(CFA_XSP16, literal(-7)))
          CFI (cfiCond48) R7 load(1, XDATA, add(CFA_XSP16, literal(-6)))
          CFI (cfiCond48) ?RET_LOW load(1, XDATA, add(CFA_XSP16, literal(-5)))
          CFI (cfiCond48) ?RET_HIGH load(1, XDATA, add(CFA_XSP16, literal(-4)))
          CFI (cfiCond48) ?BRET_EXT load(1, XDATA, add(CFA_XSP16, literal(-3)))
          CFI (cfiCond48) DPL0 load(1, XDATA, add(CFA_XSP16, literal(-2)))
          CFI (cfiCond48) DPH0 load(1, XDATA, add(CFA_XSP16, literal(-1)))
          CFI (cfiCond48) CFA_SP SP+-2
          CFI (cfiCond48) CFA_XSP16 add(XSP16, 18)
          CFI Block cfiPicker49 Using cfiCommon1
          CFI (cfiPicker49) NoFunction
          CFI (cfiPicker49) Picker
        ADD       A,#0x10
        MOV       DPL,A
        CLR       A
        ADDC      A,?V1
        MOV       DPH,A
        MOVX      A,@DPTR
        RET
          CFI EndBlock cfiCond47
          CFI EndBlock cfiCond48
          CFI EndBlock cfiPicker49

        RSEG BANKED_CODE:HUGECODE:NOROOT(0)
?Subroutine12:
          CFI Block cfiCond50 Using cfiCommon0
          CFI Function afBuildMSGIncoming
          CFI Conditional ??CrossCallReturnLabel_13
          CFI R6 load(1, XDATA, add(CFA_XSP16, literal(-18)))
          CFI VB load(1, XDATA, add(CFA_XSP16, literal(-17)))
          CFI V0 load(1, XDATA, add(CFA_XSP16, literal(-16)))
          CFI V1 load(1, XDATA, add(CFA_XSP16, literal(-15)))
          CFI V2 load(1, XDATA, add(CFA_XSP16, literal(-14)))
          CFI V3 load(1, XDATA, add(CFA_XSP16, literal(-13)))
          CFI V4 load(1, XDATA, add(CFA_XSP16, literal(-12)))
          CFI V5 load(1, XDATA, add(CFA_XSP16, literal(-11)))
          CFI V6 load(1, XDATA, add(CFA_XSP16, literal(-10)))
          CFI V7 load(1, XDATA, add(CFA_XSP16, literal(-9)))
          CFI V8 load(1, XDATA, add(CFA_XSP16, literal(-8)))
          CFI V9 load(1, XDATA, add(CFA_XSP16, literal(-7)))
          CFI R7 load(1, XDATA, add(CFA_XSP16, literal(-6)))
          CFI ?RET_LOW load(1, XDATA, add(CFA_XSP16, literal(-5)))
          CFI ?RET_HIGH load(1, XDATA, add(CFA_XSP16, literal(-4)))
          CFI ?BRET_EXT load(1, XDATA, add(CFA_XSP16, literal(-3)))
          CFI DPL0 load(1, XDATA, add(CFA_XSP16, literal(-2)))
          CFI DPH0 load(1, XDATA, add(CFA_XSP16, literal(-1)))
          CFI CFA_SP SP+-2
          CFI CFA_XSP16 add(XSP16, 18)
          CFI Block cfiCond51 Using cfiCommon0
          CFI (cfiCond51) Function afBuildMSGIncoming
          CFI (cfiCond51) Conditional ??CrossCallReturnLabel_14
          CFI (cfiCond51) R6 load(1, XDATA, add(CFA_XSP16, literal(-18)))
          CFI (cfiCond51) VB load(1, XDATA, add(CFA_XSP16, literal(-17)))
          CFI (cfiCond51) V0 load(1, XDATA, add(CFA_XSP16, literal(-16)))
          CFI (cfiCond51) V1 load(1, XDATA, add(CFA_XSP16, literal(-15)))
          CFI (cfiCond51) V2 load(1, XDATA, add(CFA_XSP16, literal(-14)))
          CFI (cfiCond51) V3 load(1, XDATA, add(CFA_XSP16, literal(-13)))
          CFI (cfiCond51) V4 load(1, XDATA, add(CFA_XSP16, literal(-12)))
          CFI (cfiCond51) V5 load(1, XDATA, add(CFA_XSP16, literal(-11)))
          CFI (cfiCond51) V6 load(1, XDATA, add(CFA_XSP16, literal(-10)))
          CFI (cfiCond51) V7 load(1, XDATA, add(CFA_XSP16, literal(-9)))
          CFI (cfiCond51) V8 load(1, XDATA, add(CFA_XSP16, literal(-8)))
          CFI (cfiCond51) V9 load(1, XDATA, add(CFA_XSP16, literal(-7)))
          CFI (cfiCond51) R7 load(1, XDATA, add(CFA_XSP16, literal(-6)))
          CFI (cfiCond51) ?RET_LOW load(1, XDATA, add(CFA_XSP16, literal(-5)))
          CFI (cfiCond51) ?RET_HIGH load(1, XDATA, add(CFA_XSP16, literal(-4)))
          CFI (cfiCond51) ?BRET_EXT load(1, XDATA, add(CFA_XSP16, literal(-3)))
          CFI (cfiCond51) DPL0 load(1, XDATA, add(CFA_XSP16, literal(-2)))
          CFI (cfiCond51) DPH0 load(1, XDATA, add(CFA_XSP16, literal(-1)))
          CFI (cfiCond51) CFA_SP SP+-2
          CFI (cfiCond51) CFA_XSP16 add(XSP16, 18)
          CFI Block cfiPicker52 Using cfiCommon1
          CFI (cfiPicker52) NoFunction
          CFI (cfiPicker52) Picker
        INC       DPTR
        INC       DPTR
        INC       DPTR
        INC       DPTR
        LCALL     ?Subroutine32 & 0xFFFF
??CrossCallReturnLabel_52:
        INC       DPTR
        INC       DPTR
        RET
          CFI EndBlock cfiCond50
          CFI EndBlock cfiCond51
          CFI EndBlock cfiPicker52

        RSEG BANKED_CODE:HUGECODE:NOROOT(0)
?Subroutine32:
          CFI Block cfiCond53 Using cfiCommon0
          CFI Function afBuildMSGIncoming
          CFI Conditional ??CrossCallReturnLabel_52, ??CrossCallReturnLabel_13
          CFI R6 load(1, XDATA, add(CFA_XSP16, literal(-18)))
          CFI VB load(1, XDATA, add(CFA_XSP16, literal(-17)))
          CFI V0 load(1, XDATA, add(CFA_XSP16, literal(-16)))
          CFI V1 load(1, XDATA, add(CFA_XSP16, literal(-15)))
          CFI V2 load(1, XDATA, add(CFA_XSP16, literal(-14)))
          CFI V3 load(1, XDATA, add(CFA_XSP16, literal(-13)))
          CFI V4 load(1, XDATA, add(CFA_XSP16, literal(-12)))
          CFI V5 load(1, XDATA, add(CFA_XSP16, literal(-11)))
          CFI V6 load(1, XDATA, add(CFA_XSP16, literal(-10)))
          CFI V7 load(1, XDATA, add(CFA_XSP16, literal(-9)))
          CFI V8 load(1, XDATA, add(CFA_XSP16, literal(-8)))
          CFI V9 load(1, XDATA, add(CFA_XSP16, literal(-7)))
          CFI R7 load(1, XDATA, add(CFA_XSP16, literal(-6)))
          CFI ?RET_LOW load(1, XDATA, add(CFA_XSP16, literal(-5)))
          CFI ?RET_HIGH load(1, XDATA, add(CFA_XSP16, literal(-4)))
          CFI ?BRET_EXT load(1, XDATA, add(CFA_XSP16, literal(-3)))
          CFI DPL0 load(1, XDATA, add(CFA_XSP16, literal(-2)))
          CFI DPH0 load(1, XDATA, add(CFA_XSP16, literal(-1)))
          CFI CFA_SP SP+-4
          CFI CFA_XSP16 add(XSP16, 18)
          CFI Block cfiCond54 Using cfiCommon0
          CFI (cfiCond54) Function afBuildMSGIncoming
          CFI (cfiCond54) Conditional ??CrossCallReturnLabel_52, ??CrossCallReturnLabel_14
          CFI (cfiCond54) R6 load(1, XDATA, add(CFA_XSP16, literal(-18)))
          CFI (cfiCond54) VB load(1, XDATA, add(CFA_XSP16, literal(-17)))
          CFI (cfiCond54) V0 load(1, XDATA, add(CFA_XSP16, literal(-16)))
          CFI (cfiCond54) V1 load(1, XDATA, add(CFA_XSP16, literal(-15)))
          CFI (cfiCond54) V2 load(1, XDATA, add(CFA_XSP16, literal(-14)))
          CFI (cfiCond54) V3 load(1, XDATA, add(CFA_XSP16, literal(-13)))
          CFI (cfiCond54) V4 load(1, XDATA, add(CFA_XSP16, literal(-12)))
          CFI (cfiCond54) V5 load(1, XDATA, add(CFA_XSP16, literal(-11)))
          CFI (cfiCond54) V6 load(1, XDATA, add(CFA_XSP16, literal(-10)))
          CFI (cfiCond54) V7 load(1, XDATA, add(CFA_XSP16, literal(-9)))
          CFI (cfiCond54) V8 load(1, XDATA, add(CFA_XSP16, literal(-8)))
          CFI (cfiCond54) V9 load(1, XDATA, add(CFA_XSP16, literal(-7)))
          CFI (cfiCond54) R7 load(1, XDATA, add(CFA_XSP16, literal(-6)))
          CFI (cfiCond54) ?RET_LOW load(1, XDATA, add(CFA_XSP16, literal(-5)))
          CFI (cfiCond54) ?RET_HIGH load(1, XDATA, add(CFA_XSP16, literal(-4)))
          CFI (cfiCond54) ?BRET_EXT load(1, XDATA, add(CFA_XSP16, literal(-3)))
          CFI (cfiCond54) DPL0 load(1, XDATA, add(CFA_XSP16, literal(-2)))
          CFI (cfiCond54) DPH0 load(1, XDATA, add(CFA_XSP16, literal(-1)))
          CFI (cfiCond54) CFA_SP SP+-4
          CFI (cfiCond54) CFA_XSP16 add(XSP16, 18)
          CFI Block cfiCond55 Using cfiCommon0
          CFI (cfiCond55) Function afRegisterExtended
          CFI (cfiCond55) Conditional ??CrossCallReturnLabel_51, ??CrossCallReturnLabel_2
          CFI (cfiCond55) R6 load(1, XDATA, add(CFA_XSP16, literal(-12)))
          CFI (cfiCond55) VB load(1, XDATA, add(CFA_XSP16, literal(-11)))
          CFI (cfiCond55) V0 load(1, XDATA, add(CFA_XSP16, literal(-10)))
          CFI (cfiCond55) V1 load(1, XDATA, add(CFA_XSP16, literal(-9)))
          CFI (cfiCond55) V2 load(1, XDATA, add(CFA_XSP16, literal(-8)))
          CFI (cfiCond55) V3 load(1, XDATA, add(CFA_XSP16, literal(-7)))
          CFI (cfiCond55) R7 load(1, XDATA, add(CFA_XSP16, literal(-6)))
          CFI (cfiCond55) ?RET_LOW load(1, XDATA, add(CFA_XSP16, literal(-5)))
          CFI (cfiCond55) ?RET_HIGH load(1, XDATA, add(CFA_XSP16, literal(-4)))
          CFI (cfiCond55) ?BRET_EXT load(1, XDATA, add(CFA_XSP16, literal(-3)))
          CFI (cfiCond55) DPL0 load(1, XDATA, add(CFA_XSP16, literal(-2)))
          CFI (cfiCond55) DPH0 load(1, XDATA, add(CFA_XSP16, literal(-1)))
          CFI (cfiCond55) CFA_SP SP+-4
          CFI (cfiCond55) CFA_XSP16 add(XSP16, 12)
          CFI Block cfiCond56 Using cfiCommon0
          CFI (cfiCond56) Function afCopyAddress
          CFI (cfiCond56) Conditional ??CrossCallReturnLabel_51, ??CrossCallReturnLabel_3
          CFI (cfiCond56) R6 load(1, XDATA, add(CFA_XSP16, literal(-9)))
          CFI (cfiCond56) VB load(1, XDATA, add(CFA_XSP16, literal(-8)))
          CFI (cfiCond56) V0 load(1, XDATA, add(CFA_XSP16, literal(-7)))
          CFI (cfiCond56) R7 load(1, XDATA, add(CFA_XSP16, literal(-6)))
          CFI (cfiCond56) ?RET_LOW load(1, XDATA, add(CFA_XSP16, literal(-5)))
          CFI (cfiCond56) ?RET_HIGH load(1, XDATA, add(CFA_XSP16, literal(-4)))
          CFI (cfiCond56) ?BRET_EXT load(1, XDATA, add(CFA_XSP16, literal(-3)))
          CFI (cfiCond56) DPL0 load(1, XDATA, add(CFA_XSP16, literal(-2)))
          CFI (cfiCond56) DPH0 load(1, XDATA, add(CFA_XSP16, literal(-1)))
          CFI (cfiCond56) CFA_SP SP+-4
          CFI (cfiCond56) CFA_XSP16 add(XSP16, 9)
          CFI Block cfiPicker57 Using cfiCommon1
          CFI (cfiPicker57) NoFunction
          CFI (cfiPicker57) Picker
        MOVX      A,@DPTR
        MOV       R0,A
        INC       DPTR
          CFI EndBlock cfiCond53
          CFI EndBlock cfiCond54
          CFI EndBlock cfiCond55
          CFI EndBlock cfiCond56
          CFI EndBlock cfiPicker57
        REQUIRE ??Subroutine33_0
        ; // Fall through to label ??Subroutine33_0

        RSEG BANKED_CODE:HUGECODE:NOROOT(0)
??Subroutine33_0:
          CFI Block cfiCond58 Using cfiCommon0
          CFI Function AF_DataRequestSrcRtg
          CFI Conditional ??CrossCallReturnLabel_50
          CFI R6 load(1, XDATA, add(CFA_XSP16, literal(-12)))
          CFI VB load(1, XDATA, add(CFA_XSP16, literal(-11)))
          CFI V0 load(1, XDATA, add(CFA_XSP16, literal(-10)))
          CFI V1 load(1, XDATA, add(CFA_XSP16, literal(-9)))
          CFI V2 load(1, XDATA, add(CFA_XSP16, literal(-8)))
          CFI V3 load(1, XDATA, add(CFA_XSP16, literal(-7)))
          CFI R7 load(1, XDATA, add(CFA_XSP16, literal(-6)))
          CFI ?RET_LOW load(1, XDATA, add(CFA_XSP16, literal(-5)))
          CFI ?RET_HIGH load(1, XDATA, add(CFA_XSP16, literal(-4)))
          CFI ?BRET_EXT load(1, XDATA, add(CFA_XSP16, literal(-3)))
          CFI DPL0 load(1, XDATA, add(CFA_XSP16, literal(-2)))
          CFI DPH0 load(1, XDATA, add(CFA_XSP16, literal(-1)))
          CFI CFA_SP SP+-2
          CFI CFA_XSP16 add(XSP16, 12)
          CFI Block cfiCond59 Using cfiCommon0
          CFI (cfiCond59) Function afBuildMSGIncoming
          CFI (cfiCond59) Conditional ??CrossCallReturnLabel_52, ??CrossCallReturnLabel_13
          CFI (cfiCond59) R6 load(1, XDATA, add(CFA_XSP16, literal(-18)))
          CFI (cfiCond59) VB load(1, XDATA, add(CFA_XSP16, literal(-17)))
          CFI (cfiCond59) V0 load(1, XDATA, add(CFA_XSP16, literal(-16)))
          CFI (cfiCond59) V1 load(1, XDATA, add(CFA_XSP16, literal(-15)))
          CFI (cfiCond59) V2 load(1, XDATA, add(CFA_XSP16, literal(-14)))
          CFI (cfiCond59) V3 load(1, XDATA, add(CFA_XSP16, literal(-13)))
          CFI (cfiCond59) V4 load(1, XDATA, add(CFA_XSP16, literal(-12)))
          CFI (cfiCond59) V5 load(1, XDATA, add(CFA_XSP16, literal(-11)))
          CFI (cfiCond59) V6 load(1, XDATA, add(CFA_XSP16, literal(-10)))
          CFI (cfiCond59) V7 load(1, XDATA, add(CFA_XSP16, literal(-9)))
          CFI (cfiCond59) V8 load(1, XDATA, add(CFA_XSP16, literal(-8)))
          CFI (cfiCond59) V9 load(1, XDATA, add(CFA_XSP16, literal(-7)))
          CFI (cfiCond59) R7 load(1, XDATA, add(CFA_XSP16, literal(-6)))
          CFI (cfiCond59) ?RET_LOW load(1, XDATA, add(CFA_XSP16, literal(-5)))
          CFI (cfiCond59) ?RET_HIGH load(1, XDATA, add(CFA_XSP16, literal(-4)))
          CFI (cfiCond59) ?BRET_EXT load(1, XDATA, add(CFA_XSP16, literal(-3)))
          CFI (cfiCond59) DPL0 load(1, XDATA, add(CFA_XSP16, literal(-2)))
          CFI (cfiCond59) DPH0 load(1, XDATA, add(CFA_XSP16, literal(-1)))
          CFI (cfiCond59) CFA_SP SP+-4
          CFI (cfiCond59) CFA_XSP16 add(XSP16, 18)
          CFI Block cfiCond60 Using cfiCommon0
          CFI (cfiCond60) Function afBuildMSGIncoming
          CFI (cfiCond60) Conditional ??CrossCallReturnLabel_52, ??CrossCallReturnLabel_14
          CFI (cfiCond60) R6 load(1, XDATA, add(CFA_XSP16, literal(-18)))
          CFI (cfiCond60) VB load(1, XDATA, add(CFA_XSP16, literal(-17)))
          CFI (cfiCond60) V0 load(1, XDATA, add(CFA_XSP16, literal(-16)))
          CFI (cfiCond60) V1 load(1, XDATA, add(CFA_XSP16, literal(-15)))
          CFI (cfiCond60) V2 load(1, XDATA, add(CFA_XSP16, literal(-14)))
          CFI (cfiCond60) V3 load(1, XDATA, add(CFA_XSP16, literal(-13)))
          CFI (cfiCond60) V4 load(1, XDATA, add(CFA_XSP16, literal(-12)))
          CFI (cfiCond60) V5 load(1, XDATA, add(CFA_XSP16, literal(-11)))
          CFI (cfiCond60) V6 load(1, XDATA, add(CFA_XSP16, literal(-10)))
          CFI (cfiCond60) V7 load(1, XDATA, add(CFA_XSP16, literal(-9)))
          CFI (cfiCond60) V8 load(1, XDATA, add(CFA_XSP16, literal(-8)))
          CFI (cfiCond60) V9 load(1, XDATA, add(CFA_XSP16, literal(-7)))
          CFI (cfiCond60) R7 load(1, XDATA, add(CFA_XSP16, literal(-6)))
          CFI (cfiCond60) ?RET_LOW load(1, XDATA, add(CFA_XSP16, literal(-5)))
          CFI (cfiCond60) ?RET_HIGH load(1, XDATA, add(CFA_XSP16, literal(-4)))
          CFI (cfiCond60) ?BRET_EXT load(1, XDATA, add(CFA_XSP16, literal(-3)))
          CFI (cfiCond60) DPL0 load(1, XDATA, add(CFA_XSP16, literal(-2)))
          CFI (cfiCond60) DPH0 load(1, XDATA, add(CFA_XSP16, literal(-1)))
          CFI (cfiCond60) CFA_SP SP+-4
          CFI (cfiCond60) CFA_XSP16 add(XSP16, 18)
          CFI Block cfiCond61 Using cfiCommon0
          CFI (cfiCond61) Function afRegisterExtended
          CFI (cfiCond61) Conditional ??CrossCallReturnLabel_51, ??CrossCallReturnLabel_2
          CFI (cfiCond61) R6 load(1, XDATA, add(CFA_XSP16, literal(-12)))
          CFI (cfiCond61) VB load(1, XDATA, add(CFA_XSP16, literal(-11)))
          CFI (cfiCond61) V0 load(1, XDATA, add(CFA_XSP16, literal(-10)))
          CFI (cfiCond61) V1 load(1, XDATA, add(CFA_XSP16, literal(-9)))
          CFI (cfiCond61) V2 load(1, XDATA, add(CFA_XSP16, literal(-8)))
          CFI (cfiCond61) V3 load(1, XDATA, add(CFA_XSP16, literal(-7)))
          CFI (cfiCond61) R7 load(1, XDATA, add(CFA_XSP16, literal(-6)))
          CFI (cfiCond61) ?RET_LOW load(1, XDATA, add(CFA_XSP16, literal(-5)))
          CFI (cfiCond61) ?RET_HIGH load(1, XDATA, add(CFA_XSP16, literal(-4)))
          CFI (cfiCond61) ?BRET_EXT load(1, XDATA, add(CFA_XSP16, literal(-3)))
          CFI (cfiCond61) DPL0 load(1, XDATA, add(CFA_XSP16, literal(-2)))
          CFI (cfiCond61) DPH0 load(1, XDATA, add(CFA_XSP16, literal(-1)))
          CFI (cfiCond61) CFA_SP SP+-4
          CFI (cfiCond61) CFA_XSP16 add(XSP16, 12)
          CFI Block cfiCond62 Using cfiCommon0
          CFI (cfiCond62) Function afCopyAddress
          CFI (cfiCond62) Conditional ??CrossCallReturnLabel_51, ??CrossCallReturnLabel_3
          CFI (cfiCond62) R6 load(1, XDATA, add(CFA_XSP16, literal(-9)))
          CFI (cfiCond62) VB load(1, XDATA, add(CFA_XSP16, literal(-8)))
          CFI (cfiCond62) V0 load(1, XDATA, add(CFA_XSP16, literal(-7)))
          CFI (cfiCond62) R7 load(1, XDATA, add(CFA_XSP16, literal(-6)))
          CFI (cfiCond62) ?RET_LOW load(1, XDATA, add(CFA_XSP16, literal(-5)))
          CFI (cfiCond62) ?RET_HIGH load(1, XDATA, add(CFA_XSP16, literal(-4)))
          CFI (cfiCond62) ?BRET_EXT load(1, XDATA, add(CFA_XSP16, literal(-3)))
          CFI (cfiCond62) DPL0 load(1, XDATA, add(CFA_XSP16, literal(-2)))
          CFI (cfiCond62) DPH0 load(1, XDATA, add(CFA_XSP16, literal(-1)))
          CFI (cfiCond62) CFA_SP SP+-4
          CFI (cfiCond62) CFA_XSP16 add(XSP16, 9)
          CFI Block cfiPicker63 Using cfiCommon1
          CFI (cfiPicker63) NoFunction
          CFI (cfiPicker63) Picker
        MOVX      A,@DPTR
        MOV       R1,A
        MOV       DPL,R2
        MOV       DPH,R3
        RET
          CFI EndBlock cfiCond58
          CFI EndBlock cfiCond59
          CFI EndBlock cfiCond60
          CFI EndBlock cfiCond61
          CFI EndBlock cfiCond62
          CFI EndBlock cfiPicker63

        RSEG BANKED_CODE:HUGECODE:NOROOT(0)
?Subroutine11:
          CFI Block cfiCond64 Using cfiCommon0
          CFI Function afIncomingData
          CFI Conditional ??CrossCallReturnLabel_10
          CFI R6 load(1, XDATA, add(CFA_XSP16, literal(-20)))
          CFI VB load(1, XDATA, add(CFA_XSP16, literal(-19)))
          CFI V0 load(1, XDATA, add(CFA_XSP16, literal(-18)))
          CFI V1 load(1, XDATA, add(CFA_XSP16, literal(-17)))
          CFI V2 load(1, XDATA, add(CFA_XSP16, literal(-16)))
          CFI V3 load(1, XDATA, add(CFA_XSP16, literal(-15)))
          CFI V4 load(1, XDATA, add(CFA_XSP16, literal(-14)))
          CFI V5 load(1, XDATA, add(CFA_XSP16, literal(-13)))
          CFI V6 load(1, XDATA, add(CFA_XSP16, literal(-12)))
          CFI V7 load(1, XDATA, add(CFA_XSP16, literal(-11)))
          CFI V8 load(1, XDATA, add(CFA_XSP16, literal(-10)))
          CFI V9 load(1, XDATA, add(CFA_XSP16, literal(-9)))
          CFI V10 load(1, XDATA, add(CFA_XSP16, literal(-8)))
          CFI V11 load(1, XDATA, add(CFA_XSP16, literal(-7)))
          CFI R7 load(1, XDATA, add(CFA_XSP16, literal(-6)))
          CFI ?RET_LOW load(1, XDATA, add(CFA_XSP16, literal(-5)))
          CFI ?RET_HIGH load(1, XDATA, add(CFA_XSP16, literal(-4)))
          CFI ?BRET_EXT load(1, XDATA, add(CFA_XSP16, literal(-3)))
          CFI DPL0 load(1, XDATA, add(CFA_XSP16, literal(-2)))
          CFI DPH0 load(1, XDATA, add(CFA_XSP16, literal(-1)))
          CFI CFA_SP SP+-2
          CFI CFA_XSP16 add(XSP16, 26)
          CFI Block cfiCond65 Using cfiCommon0
          CFI (cfiCond65) Function afIncomingData
          CFI (cfiCond65) Conditional ??CrossCallReturnLabel_11
          CFI (cfiCond65) R6 load(1, XDATA, add(CFA_XSP16, literal(-20)))
          CFI (cfiCond65) VB load(1, XDATA, add(CFA_XSP16, literal(-19)))
          CFI (cfiCond65) V0 load(1, XDATA, add(CFA_XSP16, literal(-18)))
          CFI (cfiCond65) V1 load(1, XDATA, add(CFA_XSP16, literal(-17)))
          CFI (cfiCond65) V2 load(1, XDATA, add(CFA_XSP16, literal(-16)))
          CFI (cfiCond65) V3 load(1, XDATA, add(CFA_XSP16, literal(-15)))
          CFI (cfiCond65) V4 load(1, XDATA, add(CFA_XSP16, literal(-14)))
          CFI (cfiCond65) V5 load(1, XDATA, add(CFA_XSP16, literal(-13)))
          CFI (cfiCond65) V6 load(1, XDATA, add(CFA_XSP16, literal(-12)))
          CFI (cfiCond65) V7 load(1, XDATA, add(CFA_XSP16, literal(-11)))
          CFI (cfiCond65) V8 load(1, XDATA, add(CFA_XSP16, literal(-10)))
          CFI (cfiCond65) V9 load(1, XDATA, add(CFA_XSP16, literal(-9)))
          CFI (cfiCond65) V10 load(1, XDATA, add(CFA_XSP16, literal(-8)))
          CFI (cfiCond65) V11 load(1, XDATA, add(CFA_XSP16, literal(-7)))
          CFI (cfiCond65) R7 load(1, XDATA, add(CFA_XSP16, literal(-6)))
          CFI (cfiCond65) ?RET_LOW load(1, XDATA, add(CFA_XSP16, literal(-5)))
          CFI (cfiCond65) ?RET_HIGH load(1, XDATA, add(CFA_XSP16, literal(-4)))
          CFI (cfiCond65) ?BRET_EXT load(1, XDATA, add(CFA_XSP16, literal(-3)))
          CFI (cfiCond65) DPL0 load(1, XDATA, add(CFA_XSP16, literal(-2)))
          CFI (cfiCond65) DPH0 load(1, XDATA, add(CFA_XSP16, literal(-1)))
          CFI (cfiCond65) CFA_SP SP+-2
          CFI (cfiCond65) CFA_XSP16 add(XSP16, 26)
          CFI Block cfiCond66 Using cfiCommon0
          CFI (cfiCond66) Function afBuildMSGIncoming
          CFI (cfiCond66) Conditional ??CrossCallReturnLabel_12
          CFI (cfiCond66) R6 load(1, XDATA, add(CFA_XSP16, literal(-18)))
          CFI (cfiCond66) VB load(1, XDATA, add(CFA_XSP16, literal(-17)))
          CFI (cfiCond66) V0 load(1, XDATA, add(CFA_XSP16, literal(-16)))
          CFI (cfiCond66) V1 load(1, XDATA, add(CFA_XSP16, literal(-15)))
          CFI (cfiCond66) V2 load(1, XDATA, add(CFA_XSP16, literal(-14)))
          CFI (cfiCond66) V3 load(1, XDATA, add(CFA_XSP16, literal(-13)))
          CFI (cfiCond66) V4 load(1, XDATA, add(CFA_XSP16, literal(-12)))
          CFI (cfiCond66) V5 load(1, XDATA, add(CFA_XSP16, literal(-11)))
          CFI (cfiCond66) V6 load(1, XDATA, add(CFA_XSP16, literal(-10)))
          CFI (cfiCond66) V7 load(1, XDATA, add(CFA_XSP16, literal(-9)))
          CFI (cfiCond66) V8 load(1, XDATA, add(CFA_XSP16, literal(-8)))
          CFI (cfiCond66) V9 load(1, XDATA, add(CFA_XSP16, literal(-7)))
          CFI (cfiCond66) R7 load(1, XDATA, add(CFA_XSP16, literal(-6)))
          CFI (cfiCond66) ?RET_LOW load(1, XDATA, add(CFA_XSP16, literal(-5)))
          CFI (cfiCond66) ?RET_HIGH load(1, XDATA, add(CFA_XSP16, literal(-4)))
          CFI (cfiCond66) ?BRET_EXT load(1, XDATA, add(CFA_XSP16, literal(-3)))
          CFI (cfiCond66) DPL0 load(1, XDATA, add(CFA_XSP16, literal(-2)))
          CFI (cfiCond66) DPH0 load(1, XDATA, add(CFA_XSP16, literal(-1)))
          CFI (cfiCond66) CFA_SP SP+-2
          CFI (cfiCond66) CFA_XSP16 add(XSP16, 18)
          CFI Block cfiPicker67 Using cfiCommon1
          CFI (cfiPicker67) NoFunction
          CFI (cfiPicker67) Picker
        MOVX      A,@DPTR
        MOV       ?V4,A
        INC       DPTR
        MOVX      A,@DPTR
        MOV       ?V5,A
        RET
          CFI EndBlock cfiCond64
          CFI EndBlock cfiCond65
          CFI EndBlock cfiCond66
          CFI EndBlock cfiPicker67

        RSEG BANKED_CODE:HUGECODE:NOROOT(0)
?Subroutine8:
          CFI Block cfiCond68 Using cfiCommon0
          CFI Function afDataConfirm
          CFI Conditional ??CrossCallReturnLabel_4
          CFI R6 load(1, XDATA, add(CFA_XSP16, literal(-14)))
          CFI VB load(1, XDATA, add(CFA_XSP16, literal(-13)))
          CFI V0 load(1, XDATA, add(CFA_XSP16, literal(-12)))
          CFI V1 load(1, XDATA, add(CFA_XSP16, literal(-11)))
          CFI V2 load(1, XDATA, add(CFA_XSP16, literal(-10)))
          CFI V3 load(1, XDATA, add(CFA_XSP16, literal(-9)))
          CFI V4 load(1, XDATA, add(CFA_XSP16, literal(-8)))
          CFI V5 load(1, XDATA, add(CFA_XSP16, literal(-7)))
          CFI R7 load(1, XDATA, add(CFA_XSP16, literal(-6)))
          CFI ?RET_LOW load(1, XDATA, add(CFA_XSP16, literal(-5)))
          CFI ?RET_HIGH load(1, XDATA, add(CFA_XSP16, literal(-4)))
          CFI ?BRET_EXT load(1, XDATA, add(CFA_XSP16, literal(-3)))
          CFI DPL0 load(1, XDATA, add(CFA_XSP16, literal(-2)))
          CFI DPH0 load(1, XDATA, add(CFA_XSP16, literal(-1)))
          CFI CFA_SP SP+-2
          CFI CFA_XSP16 add(XSP16, 14)
          CFI Block cfiCond69 Using cfiCommon0
          CFI (cfiCond69) Function afBuildMSGIncoming
          CFI (cfiCond69) Conditional ??CrossCallReturnLabel_5
          CFI (cfiCond69) R6 load(1, XDATA, add(CFA_XSP16, literal(-18)))
          CFI (cfiCond69) VB load(1, XDATA, add(CFA_XSP16, literal(-17)))
          CFI (cfiCond69) V0 load(1, XDATA, add(CFA_XSP16, literal(-16)))
          CFI (cfiCond69) V1 load(1, XDATA, add(CFA_XSP16, literal(-15)))
          CFI (cfiCond69) V2 load(1, XDATA, add(CFA_XSP16, literal(-14)))
          CFI (cfiCond69) V3 load(1, XDATA, add(CFA_XSP16, literal(-13)))
          CFI (cfiCond69) V4 load(1, XDATA, add(CFA_XSP16, literal(-12)))
          CFI (cfiCond69) V5 load(1, XDATA, add(CFA_XSP16, literal(-11)))
          CFI (cfiCond69) V6 load(1, XDATA, add(CFA_XSP16, literal(-10)))
          CFI (cfiCond69) V7 load(1, XDATA, add(CFA_XSP16, literal(-9)))
          CFI (cfiCond69) V8 load(1, XDATA, add(CFA_XSP16, literal(-8)))
          CFI (cfiCond69) V9 load(1, XDATA, add(CFA_XSP16, literal(-7)))
          CFI (cfiCond69) R7 load(1, XDATA, add(CFA_XSP16, literal(-6)))
          CFI (cfiCond69) ?RET_LOW load(1, XDATA, add(CFA_XSP16, literal(-5)))
          CFI (cfiCond69) ?RET_HIGH load(1, XDATA, add(CFA_XSP16, literal(-4)))
          CFI (cfiCond69) ?BRET_EXT load(1, XDATA, add(CFA_XSP16, literal(-3)))
          CFI (cfiCond69) DPL0 load(1, XDATA, add(CFA_XSP16, literal(-2)))
          CFI (cfiCond69) DPH0 load(1, XDATA, add(CFA_XSP16, literal(-1)))
          CFI (cfiCond69) CFA_SP SP+-2
          CFI (cfiCond69) CFA_XSP16 add(XSP16, 18)
          CFI Block cfiPicker70 Using cfiCommon1
          CFI (cfiPicker70) NoFunction
          CFI (cfiPicker70) Picker
        INC       DPTR
        MOVX      A,@DPTR
        MOV       R0,A
        LCALL     ??Subroutine34_0 & 0xFFFF
??CrossCallReturnLabel_85:
        MOVX      A,@DPTR
        MOV       R1,A
        LCALL     `??osal_msg_send::?relay`; Banked call to: osal_msg_send
        RET
          CFI EndBlock cfiCond68
          CFI EndBlock cfiCond69
          CFI EndBlock cfiPicker70

        RSEG BANKED_CODE:HUGECODE:NOROOT(0)
?Subroutine31:
          CFI Block cfiCond71 Using cfiCommon0
          CFI Function afIncomingData
          CFI Conditional ??CrossCallReturnLabel_88, ??CrossCallReturnLabel_17
          CFI R6 load(1, XDATA, add(CFA_XSP16, literal(-20)))
          CFI VB load(1, XDATA, add(CFA_XSP16, literal(-19)))
          CFI V0 load(1, XDATA, add(CFA_XSP16, literal(-18)))
          CFI V1 load(1, XDATA, add(CFA_XSP16, literal(-17)))
          CFI V2 load(1, XDATA, add(CFA_XSP16, literal(-16)))
          CFI V3 load(1, XDATA, add(CFA_XSP16, literal(-15)))
          CFI V4 load(1, XDATA, add(CFA_XSP16, literal(-14)))
          CFI V5 load(1, XDATA, add(CFA_XSP16, literal(-13)))
          CFI V6 load(1, XDATA, add(CFA_XSP16, literal(-12)))
          CFI V7 load(1, XDATA, add(CFA_XSP16, literal(-11)))
          CFI V8 load(1, XDATA, add(CFA_XSP16, literal(-10)))
          CFI V9 load(1, XDATA, add(CFA_XSP16, literal(-9)))
          CFI V10 load(1, XDATA, add(CFA_XSP16, literal(-8)))
          CFI V11 load(1, XDATA, add(CFA_XSP16, literal(-7)))
          CFI R7 load(1, XDATA, add(CFA_XSP16, literal(-6)))
          CFI ?RET_LOW load(1, XDATA, add(CFA_XSP16, literal(-5)))
          CFI ?RET_HIGH load(1, XDATA, add(CFA_XSP16, literal(-4)))
          CFI ?BRET_EXT load(1, XDATA, add(CFA_XSP16, literal(-3)))
          CFI DPL0 load(1, XDATA, add(CFA_XSP16, literal(-2)))
          CFI DPH0 load(1, XDATA, add(CFA_XSP16, literal(-1)))
          CFI CFA_SP SP+-4
          CFI CFA_XSP16 add(XSP16, 26)
          CFI Block cfiCond72 Using cfiCommon0
          CFI (cfiCond72) Function afIncomingData
          CFI (cfiCond72) Conditional ??CrossCallReturnLabel_88, ??CrossCallReturnLabel_18
          CFI (cfiCond72) R6 load(1, XDATA, add(CFA_XSP16, literal(-20)))
          CFI (cfiCond72) VB load(1, XDATA, add(CFA_XSP16, literal(-19)))
          CFI (cfiCond72) V0 load(1, XDATA, add(CFA_XSP16, literal(-18)))
          CFI (cfiCond72) V1 load(1, XDATA, add(CFA_XSP16, literal(-17)))
          CFI (cfiCond72) V2 load(1, XDATA, add(CFA_XSP16, literal(-16)))
          CFI (cfiCond72) V3 load(1, XDATA, add(CFA_XSP16, literal(-15)))
          CFI (cfiCond72) V4 load(1, XDATA, add(CFA_XSP16, literal(-14)))
          CFI (cfiCond72) V5 load(1, XDATA, add(CFA_XSP16, literal(-13)))
          CFI (cfiCond72) V6 load(1, XDATA, add(CFA_XSP16, literal(-12)))
          CFI (cfiCond72) V7 load(1, XDATA, add(CFA_XSP16, literal(-11)))
          CFI (cfiCond72) V8 load(1, XDATA, add(CFA_XSP16, literal(-10)))
          CFI (cfiCond72) V9 load(1, XDATA, add(CFA_XSP16, literal(-9)))
          CFI (cfiCond72) V10 load(1, XDATA, add(CFA_XSP16, literal(-8)))
          CFI (cfiCond72) V11 load(1, XDATA, add(CFA_XSP16, literal(-7)))
          CFI (cfiCond72) R7 load(1, XDATA, add(CFA_XSP16, literal(-6)))
          CFI (cfiCond72) ?RET_LOW load(1, XDATA, add(CFA_XSP16, literal(-5)))
          CFI (cfiCond72) ?RET_HIGH load(1, XDATA, add(CFA_XSP16, literal(-4)))
          CFI (cfiCond72) ?BRET_EXT load(1, XDATA, add(CFA_XSP16, literal(-3)))
          CFI (cfiCond72) DPL0 load(1, XDATA, add(CFA_XSP16, literal(-2)))
          CFI (cfiCond72) DPH0 load(1, XDATA, add(CFA_XSP16, literal(-1)))
          CFI (cfiCond72) CFA_SP SP+-4
          CFI (cfiCond72) CFA_XSP16 add(XSP16, 26)
          CFI Block cfiCond73 Using cfiCommon0
          CFI (cfiCond73) Function afIncomingData
          CFI (cfiCond73) Conditional ??CrossCallReturnLabel_87, ??CrossCallReturnLabel_0
          CFI (cfiCond73) R6 load(1, XDATA, add(CFA_XSP16, literal(-20)))
          CFI (cfiCond73) VB load(1, XDATA, add(CFA_XSP16, literal(-19)))
          CFI (cfiCond73) V0 load(1, XDATA, add(CFA_XSP16, literal(-18)))
          CFI (cfiCond73) V1 load(1, XDATA, add(CFA_XSP16, literal(-17)))
          CFI (cfiCond73) V2 load(1, XDATA, add(CFA_XSP16, literal(-16)))
          CFI (cfiCond73) V3 load(1, XDATA, add(CFA_XSP16, literal(-15)))
          CFI (cfiCond73) V4 load(1, XDATA, add(CFA_XSP16, literal(-14)))
          CFI (cfiCond73) V5 load(1, XDATA, add(CFA_XSP16, literal(-13)))
          CFI (cfiCond73) V6 load(1, XDATA, add(CFA_XSP16, literal(-12)))
          CFI (cfiCond73) V7 load(1, XDATA, add(CFA_XSP16, literal(-11)))
          CFI (cfiCond73) V8 load(1, XDATA, add(CFA_XSP16, literal(-10)))
          CFI (cfiCond73) V9 load(1, XDATA, add(CFA_XSP16, literal(-9)))
          CFI (cfiCond73) V10 load(1, XDATA, add(CFA_XSP16, literal(-8)))
          CFI (cfiCond73) V11 load(1, XDATA, add(CFA_XSP16, literal(-7)))
          CFI (cfiCond73) R7 load(1, XDATA, add(CFA_XSP16, literal(-6)))
          CFI (cfiCond73) ?RET_LOW load(1, XDATA, add(CFA_XSP16, literal(-5)))
          CFI (cfiCond73) ?RET_HIGH load(1, XDATA, add(CFA_XSP16, literal(-4)))
          CFI (cfiCond73) ?BRET_EXT load(1, XDATA, add(CFA_XSP16, literal(-3)))
          CFI (cfiCond73) DPL0 load(1, XDATA, add(CFA_XSP16, literal(-2)))
          CFI (cfiCond73) DPH0 load(1, XDATA, add(CFA_XSP16, literal(-1)))
          CFI (cfiCond73) CFA_SP SP+-4
          CFI (cfiCond73) CFA_XSP16 add(XSP16, 26)
          CFI Block cfiCond74 Using cfiCommon0
          CFI (cfiCond74) Function afIncomingData
          CFI (cfiCond74) Conditional ??CrossCallReturnLabel_87, ??CrossCallReturnLabel_1
          CFI (cfiCond74) R6 load(1, XDATA, add(CFA_XSP16, literal(-20)))
          CFI (cfiCond74) VB load(1, XDATA, add(CFA_XSP16, literal(-19)))
          CFI (cfiCond74) V0 load(1, XDATA, add(CFA_XSP16, literal(-18)))
          CFI (cfiCond74) V1 load(1, XDATA, add(CFA_XSP16, literal(-17)))
          CFI (cfiCond74) V2 load(1, XDATA, add(CFA_XSP16, literal(-16)))
          CFI (cfiCond74) V3 load(1, XDATA, add(CFA_XSP16, literal(-15)))
          CFI (cfiCond74) V4 load(1, XDATA, add(CFA_XSP16, literal(-14)))
          CFI (cfiCond74) V5 load(1, XDATA, add(CFA_XSP16, literal(-13)))
          CFI (cfiCond74) V6 load(1, XDATA, add(CFA_XSP16, literal(-12)))
          CFI (cfiCond74) V7 load(1, XDATA, add(CFA_XSP16, literal(-11)))
          CFI (cfiCond74) V8 load(1, XDATA, add(CFA_XSP16, literal(-10)))
          CFI (cfiCond74) V9 load(1, XDATA, add(CFA_XSP16, literal(-9)))
          CFI (cfiCond74) V10 load(1, XDATA, add(CFA_XSP16, literal(-8)))
          CFI (cfiCond74) V11 load(1, XDATA, add(CFA_XSP16, literal(-7)))
          CFI (cfiCond74) R7 load(1, XDATA, add(CFA_XSP16, literal(-6)))
          CFI (cfiCond74) ?RET_LOW load(1, XDATA, add(CFA_XSP16, literal(-5)))
          CFI (cfiCond74) ?RET_HIGH load(1, XDATA, add(CFA_XSP16, literal(-4)))
          CFI (cfiCond74) ?BRET_EXT load(1, XDATA, add(CFA_XSP16, literal(-3)))
          CFI (cfiCond74) DPL0 load(1, XDATA, add(CFA_XSP16, literal(-2)))
          CFI (cfiCond74) DPH0 load(1, XDATA, add(CFA_XSP16, literal(-1)))
          CFI (cfiCond74) CFA_SP SP+-4
          CFI (cfiCond74) CFA_XSP16 add(XSP16, 26)
          CFI Block cfiPicker75 Using cfiCommon1
          CFI (cfiPicker75) NoFunction
          CFI (cfiPicker75) Picker
        MOV       DPL,?XSP + 0
        MOV       DPH,?XSP + 1
          CFI EndBlock cfiCond71
          CFI EndBlock cfiCond72
          CFI EndBlock cfiCond73
          CFI EndBlock cfiCond74
          CFI EndBlock cfiPicker75
        REQUIRE ??Subroutine34_0
        ; // Fall through to label ??Subroutine34_0

        RSEG BANKED_CODE:HUGECODE:NOROOT(0)
??Subroutine34_0:
          CFI Block cfiCond76 Using cfiCommon0
          CFI Function afIncomingData
          CFI Conditional ??CrossCallReturnLabel_86, ??CrossCallReturnLabel_6
          CFI R6 load(1, XDATA, add(CFA_XSP16, literal(-20)))
          CFI VB load(1, XDATA, add(CFA_XSP16, literal(-19)))
          CFI V0 load(1, XDATA, add(CFA_XSP16, literal(-18)))
          CFI V1 load(1, XDATA, add(CFA_XSP16, literal(-17)))
          CFI V2 load(1, XDATA, add(CFA_XSP16, literal(-16)))
          CFI V3 load(1, XDATA, add(CFA_XSP16, literal(-15)))
          CFI V4 load(1, XDATA, add(CFA_XSP16, literal(-14)))
          CFI V5 load(1, XDATA, add(CFA_XSP16, literal(-13)))
          CFI V6 load(1, XDATA, add(CFA_XSP16, literal(-12)))
          CFI V7 load(1, XDATA, add(CFA_XSP16, literal(-11)))
          CFI V8 load(1, XDATA, add(CFA_XSP16, literal(-10)))
          CFI V9 load(1, XDATA, add(CFA_XSP16, literal(-9)))
          CFI V10 load(1, XDATA, add(CFA_XSP16, literal(-8)))
          CFI V11 load(1, XDATA, add(CFA_XSP16, literal(-7)))
          CFI R7 load(1, XDATA, add(CFA_XSP16, literal(-6)))
          CFI ?RET_LOW load(1, XDATA, add(CFA_XSP16, literal(-5)))
          CFI ?RET_HIGH load(1, XDATA, add(CFA_XSP16, literal(-4)))
          CFI ?BRET_EXT load(1, XDATA, add(CFA_XSP16, literal(-3)))
          CFI DPL0 load(1, XDATA, add(CFA_XSP16, literal(-2)))
          CFI DPH0 load(1, XDATA, add(CFA_XSP16, literal(-1)))
          CFI CFA_SP SP+-4
          CFI CFA_XSP16 add(XSP16, 26)
          CFI Block cfiCond77 Using cfiCommon0
          CFI (cfiCond77) Function afIncomingData
          CFI (cfiCond77) Conditional ??CrossCallReturnLabel_86, ??CrossCallReturnLabel_7
          CFI (cfiCond77) R6 load(1, XDATA, add(CFA_XSP16, literal(-20)))
          CFI (cfiCond77) VB load(1, XDATA, add(CFA_XSP16, literal(-19)))
          CFI (cfiCond77) V0 load(1, XDATA, add(CFA_XSP16, literal(-18)))
          CFI (cfiCond77) V1 load(1, XDATA, add(CFA_XSP16, literal(-17)))
          CFI (cfiCond77) V2 load(1, XDATA, add(CFA_XSP16, literal(-16)))
          CFI (cfiCond77) V3 load(1, XDATA, add(CFA_XSP16, literal(-15)))
          CFI (cfiCond77) V4 load(1, XDATA, add(CFA_XSP16, literal(-14)))
          CFI (cfiCond77) V5 load(1, XDATA, add(CFA_XSP16, literal(-13)))
          CFI (cfiCond77) V6 load(1, XDATA, add(CFA_XSP16, literal(-12)))
          CFI (cfiCond77) V7 load(1, XDATA, add(CFA_XSP16, literal(-11)))
          CFI (cfiCond77) V8 load(1, XDATA, add(CFA_XSP16, literal(-10)))
          CFI (cfiCond77) V9 load(1, XDATA, add(CFA_XSP16, literal(-9)))
          CFI (cfiCond77) V10 load(1, XDATA, add(CFA_XSP16, literal(-8)))
          CFI (cfiCond77) V11 load(1, XDATA, add(CFA_XSP16, literal(-7)))
          CFI (cfiCond77) R7 load(1, XDATA, add(CFA_XSP16, literal(-6)))
          CFI (cfiCond77) ?RET_LOW load(1, XDATA, add(CFA_XSP16, literal(-5)))
          CFI (cfiCond77) ?RET_HIGH load(1, XDATA, add(CFA_XSP16, literal(-4)))
          CFI (cfiCond77) ?BRET_EXT load(1, XDATA, add(CFA_XSP16, literal(-3)))
          CFI (cfiCond77) DPL0 load(1, XDATA, add(CFA_XSP16, literal(-2)))
          CFI (cfiCond77) DPH0 load(1, XDATA, add(CFA_XSP16, literal(-1)))
          CFI (cfiCond77) CFA_SP SP+-4
          CFI (cfiCond77) CFA_XSP16 add(XSP16, 26)
          CFI Block cfiCond78 Using cfiCommon0
          CFI (cfiCond78) Function afDataConfirm
          CFI (cfiCond78) Conditional ??CrossCallReturnLabel_85, ??CrossCallReturnLabel_4
          CFI (cfiCond78) R6 load(1, XDATA, add(CFA_XSP16, literal(-14)))
          CFI (cfiCond78) VB load(1, XDATA, add(CFA_XSP16, literal(-13)))
          CFI (cfiCond78) V0 load(1, XDATA, add(CFA_XSP16, literal(-12)))
          CFI (cfiCond78) V1 load(1, XDATA, add(CFA_XSP16, literal(-11)))
          CFI (cfiCond78) V2 load(1, XDATA, add(CFA_XSP16, literal(-10)))
          CFI (cfiCond78) V3 load(1, XDATA, add(CFA_XSP16, literal(-9)))
          CFI (cfiCond78) V4 load(1, XDATA, add(CFA_XSP16, literal(-8)))
          CFI (cfiCond78) V5 load(1, XDATA, add(CFA_XSP16, literal(-7)))
          CFI (cfiCond78) R7 load(1, XDATA, add(CFA_XSP16, literal(-6)))
          CFI (cfiCond78) ?RET_LOW load(1, XDATA, add(CFA_XSP16, literal(-5)))
          CFI (cfiCond78) ?RET_HIGH load(1, XDATA, add(CFA_XSP16, literal(-4)))
          CFI (cfiCond78) ?BRET_EXT load(1, XDATA, add(CFA_XSP16, literal(-3)))
          CFI (cfiCond78) DPL0 load(1, XDATA, add(CFA_XSP16, literal(-2)))
          CFI (cfiCond78) DPH0 load(1, XDATA, add(CFA_XSP16, literal(-1)))
          CFI (cfiCond78) CFA_SP SP+-4
          CFI (cfiCond78) CFA_XSP16 add(XSP16, 14)
          CFI Block cfiCond79 Using cfiCommon0
          CFI (cfiCond79) Function afBuildMSGIncoming
          CFI (cfiCond79) Conditional ??CrossCallReturnLabel_85, ??CrossCallReturnLabel_5
          CFI (cfiCond79) R6 load(1, XDATA, add(CFA_XSP16, literal(-18)))
          CFI (cfiCond79) VB load(1, XDATA, add(CFA_XSP16, literal(-17)))
          CFI (cfiCond79) V0 load(1, XDATA, add(CFA_XSP16, literal(-16)))
          CFI (cfiCond79) V1 load(1, XDATA, add(CFA_XSP16, literal(-15)))
          CFI (cfiCond79) V2 load(1, XDATA, add(CFA_XSP16, literal(-14)))
          CFI (cfiCond79) V3 load(1, XDATA, add(CFA_XSP16, literal(-13)))
          CFI (cfiCond79) V4 load(1, XDATA, add(CFA_XSP16, literal(-12)))
          CFI (cfiCond79) V5 load(1, XDATA, add(CFA_XSP16, literal(-11)))
          CFI (cfiCond79) V6 load(1, XDATA, add(CFA_XSP16, literal(-10)))
          CFI (cfiCond79) V7 load(1, XDATA, add(CFA_XSP16, literal(-9)))
          CFI (cfiCond79) V8 load(1, XDATA, add(CFA_XSP16, literal(-8)))
          CFI (cfiCond79) V9 load(1, XDATA, add(CFA_XSP16, literal(-7)))
          CFI (cfiCond79) R7 load(1, XDATA, add(CFA_XSP16, literal(-6)))
          CFI (cfiCond79) ?RET_LOW load(1, XDATA, add(CFA_XSP16, literal(-5)))
          CFI (cfiCond79) ?RET_HIGH load(1, XDATA, add(CFA_XSP16, literal(-4)))
          CFI (cfiCond79) ?BRET_EXT load(1, XDATA, add(CFA_XSP16, literal(-3)))
          CFI (cfiCond79) DPL0 load(1, XDATA, add(CFA_XSP16, literal(-2)))
          CFI (cfiCond79) DPH0 load(1, XDATA, add(CFA_XSP16, literal(-1)))
          CFI (cfiCond79) CFA_SP SP+-4
          CFI (cfiCond79) CFA_XSP16 add(XSP16, 18)
          CFI Block cfiCond80 Using cfiCommon0
          CFI (cfiCond80) Function afIncomingData
          CFI (cfiCond80) Conditional ??CrossCallReturnLabel_88, ??CrossCallReturnLabel_17
          CFI (cfiCond80) R6 load(1, XDATA, add(CFA_XSP16, literal(-20)))
          CFI (cfiCond80) VB load(1, XDATA, add(CFA_XSP16, literal(-19)))
          CFI (cfiCond80) V0 load(1, XDATA, add(CFA_XSP16, literal(-18)))
          CFI (cfiCond80) V1 load(1, XDATA, add(CFA_XSP16, literal(-17)))
          CFI (cfiCond80) V2 load(1, XDATA, add(CFA_XSP16, literal(-16)))
          CFI (cfiCond80) V3 load(1, XDATA, add(CFA_XSP16, literal(-15)))
          CFI (cfiCond80) V4 load(1, XDATA, add(CFA_XSP16, literal(-14)))
          CFI (cfiCond80) V5 load(1, XDATA, add(CFA_XSP16, literal(-13)))
          CFI (cfiCond80) V6 load(1, XDATA, add(CFA_XSP16, literal(-12)))
          CFI (cfiCond80) V7 load(1, XDATA, add(CFA_XSP16, literal(-11)))
          CFI (cfiCond80) V8 load(1, XDATA, add(CFA_XSP16, literal(-10)))
          CFI (cfiCond80) V9 load(1, XDATA, add(CFA_XSP16, literal(-9)))
          CFI (cfiCond80) V10 load(1, XDATA, add(CFA_XSP16, literal(-8)))
          CFI (cfiCond80) V11 load(1, XDATA, add(CFA_XSP16, literal(-7)))
          CFI (cfiCond80) R7 load(1, XDATA, add(CFA_XSP16, literal(-6)))
          CFI (cfiCond80) ?RET_LOW load(1, XDATA, add(CFA_XSP16, literal(-5)))
          CFI (cfiCond80) ?RET_HIGH load(1, XDATA, add(CFA_XSP16, literal(-4)))
          CFI (cfiCond80) ?BRET_EXT load(1, XDATA, add(CFA_XSP16, literal(-3)))
          CFI (cfiCond80) DPL0 load(1, XDATA, add(CFA_XSP16, literal(-2)))
          CFI (cfiCond80) DPH0 load(1, XDATA, add(CFA_XSP16, literal(-1)))
          CFI (cfiCond80) CFA_SP SP+-4
          CFI (cfiCond80) CFA_XSP16 add(XSP16, 26)
          CFI Block cfiCond81 Using cfiCommon0
          CFI (cfiCond81) Function afIncomingData
          CFI (cfiCond81) Conditional ??CrossCallReturnLabel_88, ??CrossCallReturnLabel_18
          CFI (cfiCond81) R6 load(1, XDATA, add(CFA_XSP16, literal(-20)))
          CFI (cfiCond81) VB load(1, XDATA, add(CFA_XSP16, literal(-19)))
          CFI (cfiCond81) V0 load(1, XDATA, add(CFA_XSP16, literal(-18)))
          CFI (cfiCond81) V1 load(1, XDATA, add(CFA_XSP16, literal(-17)))
          CFI (cfiCond81) V2 load(1, XDATA, add(CFA_XSP16, literal(-16)))
          CFI (cfiCond81) V3 load(1, XDATA, add(CFA_XSP16, literal(-15)))
          CFI (cfiCond81) V4 load(1, XDATA, add(CFA_XSP16, literal(-14)))
          CFI (cfiCond81) V5 load(1, XDATA, add(CFA_XSP16, literal(-13)))
          CFI (cfiCond81) V6 load(1, XDATA, add(CFA_XSP16, literal(-12)))
          CFI (cfiCond81) V7 load(1, XDATA, add(CFA_XSP16, literal(-11)))
          CFI (cfiCond81) V8 load(1, XDATA, add(CFA_XSP16, literal(-10)))
          CFI (cfiCond81) V9 load(1, XDATA, add(CFA_XSP16, literal(-9)))
          CFI (cfiCond81) V10 load(1, XDATA, add(CFA_XSP16, literal(-8)))
          CFI (cfiCond81) V11 load(1, XDATA, add(CFA_XSP16, literal(-7)))
          CFI (cfiCond81) R7 load(1, XDATA, add(CFA_XSP16, literal(-6)))
          CFI (cfiCond81) ?RET_LOW load(1, XDATA, add(CFA_XSP16, literal(-5)))
          CFI (cfiCond81) ?RET_HIGH load(1, XDATA, add(CFA_XSP16, literal(-4)))
          CFI (cfiCond81) ?BRET_EXT load(1, XDATA, add(CFA_XSP16, literal(-3)))
          CFI (cfiCond81) DPL0 load(1, XDATA, add(CFA_XSP16, literal(-2)))
          CFI (cfiCond81) DPH0 load(1, XDATA, add(CFA_XSP16, literal(-1)))
          CFI (cfiCond81) CFA_SP SP+-4
          CFI (cfiCond81) CFA_XSP16 add(XSP16, 26)
          CFI Block cfiCond82 Using cfiCommon0
          CFI (cfiCond82) Function afIncomingData
          CFI (cfiCond82) Conditional ??CrossCallReturnLabel_87, ??CrossCallReturnLabel_0
          CFI (cfiCond82) R6 load(1, XDATA, add(CFA_XSP16, literal(-20)))
          CFI (cfiCond82) VB load(1, XDATA, add(CFA_XSP16, literal(-19)))
          CFI (cfiCond82) V0 load(1, XDATA, add(CFA_XSP16, literal(-18)))
          CFI (cfiCond82) V1 load(1, XDATA, add(CFA_XSP16, literal(-17)))
          CFI (cfiCond82) V2 load(1, XDATA, add(CFA_XSP16, literal(-16)))
          CFI (cfiCond82) V3 load(1, XDATA, add(CFA_XSP16, literal(-15)))
          CFI (cfiCond82) V4 load(1, XDATA, add(CFA_XSP16, literal(-14)))
          CFI (cfiCond82) V5 load(1, XDATA, add(CFA_XSP16, literal(-13)))
          CFI (cfiCond82) V6 load(1, XDATA, add(CFA_XSP16, literal(-12)))
          CFI (cfiCond82) V7 load(1, XDATA, add(CFA_XSP16, literal(-11)))
          CFI (cfiCond82) V8 load(1, XDATA, add(CFA_XSP16, literal(-10)))
          CFI (cfiCond82) V9 load(1, XDATA, add(CFA_XSP16, literal(-9)))
          CFI (cfiCond82) V10 load(1, XDATA, add(CFA_XSP16, literal(-8)))
          CFI (cfiCond82) V11 load(1, XDATA, add(CFA_XSP16, literal(-7)))
          CFI (cfiCond82) R7 load(1, XDATA, add(CFA_XSP16, literal(-6)))
          CFI (cfiCond82) ?RET_LOW load(1, XDATA, add(CFA_XSP16, literal(-5)))
          CFI (cfiCond82) ?RET_HIGH load(1, XDATA, add(CFA_XSP16, literal(-4)))
          CFI (cfiCond82) ?BRET_EXT load(1, XDATA, add(CFA_XSP16, literal(-3)))
          CFI (cfiCond82) DPL0 load(1, XDATA, add(CFA_XSP16, literal(-2)))
          CFI (cfiCond82) DPH0 load(1, XDATA, add(CFA_XSP16, literal(-1)))
          CFI (cfiCond82) CFA_SP SP+-4
          CFI (cfiCond82) CFA_XSP16 add(XSP16, 26)
          CFI Block cfiCond83 Using cfiCommon0
          CFI (cfiCond83) Function afIncomingData
          CFI (cfiCond83) Conditional ??CrossCallReturnLabel_87, ??CrossCallReturnLabel_1
          CFI (cfiCond83) R6 load(1, XDATA, add(CFA_XSP16, literal(-20)))
          CFI (cfiCond83) VB load(1, XDATA, add(CFA_XSP16, literal(-19)))
          CFI (cfiCond83) V0 load(1, XDATA, add(CFA_XSP16, literal(-18)))
          CFI (cfiCond83) V1 load(1, XDATA, add(CFA_XSP16, literal(-17)))
          CFI (cfiCond83) V2 load(1, XDATA, add(CFA_XSP16, literal(-16)))
          CFI (cfiCond83) V3 load(1, XDATA, add(CFA_XSP16, literal(-15)))
          CFI (cfiCond83) V4 load(1, XDATA, add(CFA_XSP16, literal(-14)))
          CFI (cfiCond83) V5 load(1, XDATA, add(CFA_XSP16, literal(-13)))
          CFI (cfiCond83) V6 load(1, XDATA, add(CFA_XSP16, literal(-12)))
          CFI (cfiCond83) V7 load(1, XDATA, add(CFA_XSP16, literal(-11)))
          CFI (cfiCond83) V8 load(1, XDATA, add(CFA_XSP16, literal(-10)))
          CFI (cfiCond83) V9 load(1, XDATA, add(CFA_XSP16, literal(-9)))
          CFI (cfiCond83) V10 load(1, XDATA, add(CFA_XSP16, literal(-8)))
          CFI (cfiCond83) V11 load(1, XDATA, add(CFA_XSP16, literal(-7)))
          CFI (cfiCond83) R7 load(1, XDATA, add(CFA_XSP16, literal(-6)))
          CFI (cfiCond83) ?RET_LOW load(1, XDATA, add(CFA_XSP16, literal(-5)))
          CFI (cfiCond83) ?RET_HIGH load(1, XDATA, add(CFA_XSP16, literal(-4)))
          CFI (cfiCond83) ?BRET_EXT load(1, XDATA, add(CFA_XSP16, literal(-3)))
          CFI (cfiCond83) DPL0 load(1, XDATA, add(CFA_XSP16, literal(-2)))
          CFI (cfiCond83) DPH0 load(1, XDATA, add(CFA_XSP16, literal(-1)))
          CFI (cfiCond83) CFA_SP SP+-4
          CFI (cfiCond83) CFA_XSP16 add(XSP16, 26)
          CFI Block cfiPicker84 Using cfiCommon1
          CFI (cfiPicker84) NoFunction
          CFI (cfiPicker84) Picker
        INC       DPTR
          CFI EndBlock cfiCond76
          CFI EndBlock cfiCond77
          CFI EndBlock cfiCond78
          CFI EndBlock cfiCond79
          CFI EndBlock cfiCond80
          CFI EndBlock cfiCond81
          CFI EndBlock cfiCond82
          CFI EndBlock cfiCond83
          CFI EndBlock cfiPicker84
        REQUIRE ??Subroutine35_0
        ; // Fall through to label ??Subroutine35_0

        RSEG BANKED_CODE:HUGECODE:NOROOT(0)
??Subroutine35_0:
          CFI Block cfiCond85 Using cfiCommon0
          CFI Function afFindSimpleDesc
          CFI Conditional ??CrossCallReturnLabel_89, ??CrossCallReturnLabel_83
          CFI R6 load(1, XDATA, add(CFA_XSP16, literal(-12)))
          CFI VB load(1, XDATA, add(CFA_XSP16, literal(-11)))
          CFI V0 load(1, XDATA, add(CFA_XSP16, literal(-10)))
          CFI V1 load(1, XDATA, add(CFA_XSP16, literal(-9)))
          CFI V2 load(1, XDATA, add(CFA_XSP16, literal(-8)))
          CFI V3 load(1, XDATA, add(CFA_XSP16, literal(-7)))
          CFI R7 load(1, XDATA, add(CFA_XSP16, literal(-6)))
          CFI ?RET_LOW load(1, XDATA, add(CFA_XSP16, literal(-5)))
          CFI ?RET_HIGH load(1, XDATA, add(CFA_XSP16, literal(-4)))
          CFI ?BRET_EXT load(1, XDATA, add(CFA_XSP16, literal(-3)))
          CFI DPL0 load(1, XDATA, add(CFA_XSP16, literal(-2)))
          CFI DPH0 load(1, XDATA, add(CFA_XSP16, literal(-1)))
          CFI CFA_SP SP+-4
          CFI CFA_XSP16 add(XSP16, 12)
          CFI Block cfiCond86 Using cfiCommon0
          CFI (cfiCond86) Function afEndPoints
          CFI (cfiCond86) Conditional ??CrossCallReturnLabel_89, ??CrossCallReturnLabel_84
          CFI (cfiCond86) DPL0 Frame(CFA_SP, 4)
          CFI (cfiCond86) DPH0 Frame(CFA_SP, 5)
          CFI (cfiCond86) CFA_SP SP+-9
          CFI Block cfiCond87 Using cfiCommon0
          CFI (cfiCond87) Function afFindEndPointDescList
          CFI (cfiCond87) Conditional ??CrossCallReturnLabel_89, ??CrossCallReturnLabel_81
          CFI (cfiCond87) DPL0 Frame(CFA_SP, 4)
          CFI (cfiCond87) DPH0 Frame(CFA_SP, 5)
          CFI (cfiCond87) CFA_SP SP+-9
          CFI Block cfiCond88 Using cfiCommon0
          CFI (cfiCond88) Function afFindSimpleDesc
          CFI (cfiCond88) Conditional ??CrossCallReturnLabel_89, ??CrossCallReturnLabel_82
          CFI (cfiCond88) R6 load(1, XDATA, add(CFA_XSP16, literal(-12)))
          CFI (cfiCond88) VB load(1, XDATA, add(CFA_XSP16, literal(-11)))
          CFI (cfiCond88) V0 load(1, XDATA, add(CFA_XSP16, literal(-10)))
          CFI (cfiCond88) V1 load(1, XDATA, add(CFA_XSP16, literal(-9)))
          CFI (cfiCond88) V2 load(1, XDATA, add(CFA_XSP16, literal(-8)))
          CFI (cfiCond88) V3 load(1, XDATA, add(CFA_XSP16, literal(-7)))
          CFI (cfiCond88) R7 load(1, XDATA, add(CFA_XSP16, literal(-6)))
          CFI (cfiCond88) ?RET_LOW load(1, XDATA, add(CFA_XSP16, literal(-5)))
          CFI (cfiCond88) ?RET_HIGH load(1, XDATA, add(CFA_XSP16, literal(-4)))
          CFI (cfiCond88) ?BRET_EXT load(1, XDATA, add(CFA_XSP16, literal(-3)))
          CFI (cfiCond88) DPL0 load(1, XDATA, add(CFA_XSP16, literal(-2)))
          CFI (cfiCond88) DPH0 load(1, XDATA, add(CFA_XSP16, literal(-1)))
          CFI (cfiCond88) CFA_SP SP+-4
          CFI (cfiCond88) CFA_XSP16 add(XSP16, 12)
          CFI Block cfiCond89 Using cfiCommon0
          CFI (cfiCond89) Function afIncomingData
          CFI (cfiCond89) Conditional ??CrossCallReturnLabel_89, ??CrossCallReturnLabel_77
          CFI (cfiCond89) R6 load(1, XDATA, add(CFA_XSP16, literal(-20)))
          CFI (cfiCond89) VB load(1, XDATA, add(CFA_XSP16, literal(-19)))
          CFI (cfiCond89) V0 load(1, XDATA, add(CFA_XSP16, literal(-18)))
          CFI (cfiCond89) V1 load(1, XDATA, add(CFA_XSP16, literal(-17)))
          CFI (cfiCond89) V2 load(1, XDATA, add(CFA_XSP16, literal(-16)))
          CFI (cfiCond89) V3 load(1, XDATA, add(CFA_XSP16, literal(-15)))
          CFI (cfiCond89) V4 load(1, XDATA, add(CFA_XSP16, literal(-14)))
          CFI (cfiCond89) V5 load(1, XDATA, add(CFA_XSP16, literal(-13)))
          CFI (cfiCond89) V6 load(1, XDATA, add(CFA_XSP16, literal(-12)))
          CFI (cfiCond89) V7 load(1, XDATA, add(CFA_XSP16, literal(-11)))
          CFI (cfiCond89) V8 load(1, XDATA, add(CFA_XSP16, literal(-10)))
          CFI (cfiCond89) V9 load(1, XDATA, add(CFA_XSP16, literal(-9)))
          CFI (cfiCond89) V10 load(1, XDATA, add(CFA_XSP16, literal(-8)))
          CFI (cfiCond89) V11 load(1, XDATA, add(CFA_XSP16, literal(-7)))
          CFI (cfiCond89) R7 load(1, XDATA, add(CFA_XSP16, literal(-6)))
          CFI (cfiCond89) ?RET_LOW load(1, XDATA, add(CFA_XSP16, literal(-5)))
          CFI (cfiCond89) ?RET_HIGH load(1, XDATA, add(CFA_XSP16, literal(-4)))
          CFI (cfiCond89) ?BRET_EXT load(1, XDATA, add(CFA_XSP16, literal(-3)))
          CFI (cfiCond89) DPL0 load(1, XDATA, add(CFA_XSP16, literal(-2)))
          CFI (cfiCond89) DPH0 load(1, XDATA, add(CFA_XSP16, literal(-1)))
          CFI (cfiCond89) CFA_SP SP+-4
          CFI (cfiCond89) CFA_XSP16 add(XSP16, 26)
          CFI Block cfiCond90 Using cfiCommon0
          CFI (cfiCond90) Function afIncomingData
          CFI (cfiCond90) Conditional ??CrossCallReturnLabel_89, ??CrossCallReturnLabel_78
          CFI (cfiCond90) R6 load(1, XDATA, add(CFA_XSP16, literal(-20)))
          CFI (cfiCond90) VB load(1, XDATA, add(CFA_XSP16, literal(-19)))
          CFI (cfiCond90) V0 load(1, XDATA, add(CFA_XSP16, literal(-18)))
          CFI (cfiCond90) V1 load(1, XDATA, add(CFA_XSP16, literal(-17)))
          CFI (cfiCond90) V2 load(1, XDATA, add(CFA_XSP16, literal(-16)))
          CFI (cfiCond90) V3 load(1, XDATA, add(CFA_XSP16, literal(-15)))
          CFI (cfiCond90) V4 load(1, XDATA, add(CFA_XSP16, literal(-14)))
          CFI (cfiCond90) V5 load(1, XDATA, add(CFA_XSP16, literal(-13)))
          CFI (cfiCond90) V6 load(1, XDATA, add(CFA_XSP16, literal(-12)))
          CFI (cfiCond90) V7 load(1, XDATA, add(CFA_XSP16, literal(-11)))
          CFI (cfiCond90) V8 load(1, XDATA, add(CFA_XSP16, literal(-10)))
          CFI (cfiCond90) V9 load(1, XDATA, add(CFA_XSP16, literal(-9)))
          CFI (cfiCond90) V10 load(1, XDATA, add(CFA_XSP16, literal(-8)))
          CFI (cfiCond90) V11 load(1, XDATA, add(CFA_XSP16, literal(-7)))
          CFI (cfiCond90) R7 load(1, XDATA, add(CFA_XSP16, literal(-6)))
          CFI (cfiCond90) ?RET_LOW load(1, XDATA, add(CFA_XSP16, literal(-5)))
          CFI (cfiCond90) ?RET_HIGH load(1, XDATA, add(CFA_XSP16, literal(-4)))
          CFI (cfiCond90) ?BRET_EXT load(1, XDATA, add(CFA_XSP16, literal(-3)))
          CFI (cfiCond90) DPL0 load(1, XDATA, add(CFA_XSP16, literal(-2)))
          CFI (cfiCond90) DPH0 load(1, XDATA, add(CFA_XSP16, literal(-1)))
          CFI (cfiCond90) CFA_SP SP+-4
          CFI (cfiCond90) CFA_XSP16 add(XSP16, 26)
          CFI Block cfiCond91 Using cfiCommon0
          CFI (cfiCond91) Function afIncomingData
          CFI (cfiCond91) Conditional ??CrossCallReturnLabel_89, ??CrossCallReturnLabel_79
          CFI (cfiCond91) R6 load(1, XDATA, add(CFA_XSP16, literal(-20)))
          CFI (cfiCond91) VB load(1, XDATA, add(CFA_XSP16, literal(-19)))
          CFI (cfiCond91) V0 load(1, XDATA, add(CFA_XSP16, literal(-18)))
          CFI (cfiCond91) V1 load(1, XDATA, add(CFA_XSP16, literal(-17)))
          CFI (cfiCond91) V2 load(1, XDATA, add(CFA_XSP16, literal(-16)))
          CFI (cfiCond91) V3 load(1, XDATA, add(CFA_XSP16, literal(-15)))
          CFI (cfiCond91) V4 load(1, XDATA, add(CFA_XSP16, literal(-14)))
          CFI (cfiCond91) V5 load(1, XDATA, add(CFA_XSP16, literal(-13)))
          CFI (cfiCond91) V6 load(1, XDATA, add(CFA_XSP16, literal(-12)))
          CFI (cfiCond91) V7 load(1, XDATA, add(CFA_XSP16, literal(-11)))
          CFI (cfiCond91) V8 load(1, XDATA, add(CFA_XSP16, literal(-10)))
          CFI (cfiCond91) V9 load(1, XDATA, add(CFA_XSP16, literal(-9)))
          CFI (cfiCond91) V10 load(1, XDATA, add(CFA_XSP16, literal(-8)))
          CFI (cfiCond91) V11 load(1, XDATA, add(CFA_XSP16, literal(-7)))
          CFI (cfiCond91) R7 load(1, XDATA, add(CFA_XSP16, literal(-6)))
          CFI (cfiCond91) ?RET_LOW load(1, XDATA, add(CFA_XSP16, literal(-5)))
          CFI (cfiCond91) ?RET_HIGH load(1, XDATA, add(CFA_XSP16, literal(-4)))
          CFI (cfiCond91) ?BRET_EXT load(1, XDATA, add(CFA_XSP16, literal(-3)))
          CFI (cfiCond91) DPL0 load(1, XDATA, add(CFA_XSP16, literal(-2)))
          CFI (cfiCond91) DPH0 load(1, XDATA, add(CFA_XSP16, literal(-1)))
          CFI (cfiCond91) CFA_SP SP+-4
          CFI (cfiCond91) CFA_XSP16 add(XSP16, 26)
          CFI Block cfiCond92 Using cfiCommon0
          CFI (cfiCond92) Function AF_DataRequest
          CFI (cfiCond92) Conditional ??CrossCallReturnLabel_89, ??CrossCallReturnLabel_80
          CFI (cfiCond92) R6 load(1, XDATA, add(CFA_XSP16, literal(-16)))
          CFI (cfiCond92) VB load(1, XDATA, add(CFA_XSP16, literal(-15)))
          CFI (cfiCond92) V0 load(1, XDATA, add(CFA_XSP16, literal(-14)))
          CFI (cfiCond92) V1 load(1, XDATA, add(CFA_XSP16, literal(-13)))
          CFI (cfiCond92) V2 load(1, XDATA, add(CFA_XSP16, literal(-12)))
          CFI (cfiCond92) V3 load(1, XDATA, add(CFA_XSP16, literal(-11)))
          CFI (cfiCond92) V4 load(1, XDATA, add(CFA_XSP16, literal(-10)))
          CFI (cfiCond92) V5 load(1, XDATA, add(CFA_XSP16, literal(-9)))
          CFI (cfiCond92) V6 load(1, XDATA, add(CFA_XSP16, literal(-8)))
          CFI (cfiCond92) V7 load(1, XDATA, add(CFA_XSP16, literal(-7)))
          CFI (cfiCond92) R7 load(1, XDATA, add(CFA_XSP16, literal(-6)))
          CFI (cfiCond92) ?RET_LOW load(1, XDATA, add(CFA_XSP16, literal(-5)))
          CFI (cfiCond92) ?RET_HIGH load(1, XDATA, add(CFA_XSP16, literal(-4)))
          CFI (cfiCond92) ?BRET_EXT load(1, XDATA, add(CFA_XSP16, literal(-3)))
          CFI (cfiCond92) DPL0 load(1, XDATA, add(CFA_XSP16, literal(-2)))
          CFI (cfiCond92) DPH0 load(1, XDATA, add(CFA_XSP16, literal(-1)))
          CFI (cfiCond92) CFA_SP SP+-4
          CFI (cfiCond92) CFA_XSP16 add(XSP16, 46)
          CFI Block cfiCond93 Using cfiCommon0
          CFI (cfiCond93) Function AF_DataRequest
          CFI (cfiCond93) Conditional ??CrossCallReturnLabel_89, ??CrossCallReturnLabel_76
          CFI (cfiCond93) R6 load(1, XDATA, add(CFA_XSP16, literal(-16)))
          CFI (cfiCond93) VB load(1, XDATA, add(CFA_XSP16, literal(-15)))
          CFI (cfiCond93) V0 load(1, XDATA, add(CFA_XSP16, literal(-14)))
          CFI (cfiCond93) V1 load(1, XDATA, add(CFA_XSP16, literal(-13)))
          CFI (cfiCond93) V2 load(1, XDATA, add(CFA_XSP16, literal(-12)))
          CFI (cfiCond93) V3 load(1, XDATA, add(CFA_XSP16, literal(-11)))
          CFI (cfiCond93) V4 load(1, XDATA, add(CFA_XSP16, literal(-10)))
          CFI (cfiCond93) V5 load(1, XDATA, add(CFA_XSP16, literal(-9)))
          CFI (cfiCond93) V6 load(1, XDATA, add(CFA_XSP16, literal(-8)))
          CFI (cfiCond93) V7 load(1, XDATA, add(CFA_XSP16, literal(-7)))
          CFI (cfiCond93) R7 load(1, XDATA, add(CFA_XSP16, literal(-6)))
          CFI (cfiCond93) ?RET_LOW load(1, XDATA, add(CFA_XSP16, literal(-5)))
          CFI (cfiCond93) ?RET_HIGH load(1, XDATA, add(CFA_XSP16, literal(-4)))
          CFI (cfiCond93) ?BRET_EXT load(1, XDATA, add(CFA_XSP16, literal(-3)))
          CFI (cfiCond93) DPL0 load(1, XDATA, add(CFA_XSP16, literal(-2)))
          CFI (cfiCond93) DPH0 load(1, XDATA, add(CFA_XSP16, literal(-1)))
          CFI (cfiCond93) CFA_SP SP+-4
          CFI (cfiCond93) CFA_XSP16 add(XSP16, 46)
          CFI Block cfiCond94 Using cfiCommon0
          CFI (cfiCond94) Function afIncomingData
          CFI (cfiCond94) Conditional ??CrossCallReturnLabel_86, ??CrossCallReturnLabel_6
          CFI (cfiCond94) R6 load(1, XDATA, add(CFA_XSP16, literal(-20)))
          CFI (cfiCond94) VB load(1, XDATA, add(CFA_XSP16, literal(-19)))
          CFI (cfiCond94) V0 load(1, XDATA, add(CFA_XSP16, literal(-18)))
          CFI (cfiCond94) V1 load(1, XDATA, add(CFA_XSP16, literal(-17)))
          CFI (cfiCond94) V2 load(1, XDATA, add(CFA_XSP16, literal(-16)))
          CFI (cfiCond94) V3 load(1, XDATA, add(CFA_XSP16, literal(-15)))
          CFI (cfiCond94) V4 load(1, XDATA, add(CFA_XSP16, literal(-14)))
          CFI (cfiCond94) V5 load(1, XDATA, add(CFA_XSP16, literal(-13)))
          CFI (cfiCond94) V6 load(1, XDATA, add(CFA_XSP16, literal(-12)))
          CFI (cfiCond94) V7 load(1, XDATA, add(CFA_XSP16, literal(-11)))
          CFI (cfiCond94) V8 load(1, XDATA, add(CFA_XSP16, literal(-10)))
          CFI (cfiCond94) V9 load(1, XDATA, add(CFA_XSP16, literal(-9)))
          CFI (cfiCond94) V10 load(1, XDATA, add(CFA_XSP16, literal(-8)))
          CFI (cfiCond94) V11 load(1, XDATA, add(CFA_XSP16, literal(-7)))
          CFI (cfiCond94) R7 load(1, XDATA, add(CFA_XSP16, literal(-6)))
          CFI (cfiCond94) ?RET_LOW load(1, XDATA, add(CFA_XSP16, literal(-5)))
          CFI (cfiCond94) ?RET_HIGH load(1, XDATA, add(CFA_XSP16, literal(-4)))
          CFI (cfiCond94) ?BRET_EXT load(1, XDATA, add(CFA_XSP16, literal(-3)))
          CFI (cfiCond94) DPL0 load(1, XDATA, add(CFA_XSP16, literal(-2)))
          CFI (cfiCond94) DPH0 load(1, XDATA, add(CFA_XSP16, literal(-1)))
          CFI (cfiCond94) CFA_SP SP+-4
          CFI (cfiCond94) CFA_XSP16 add(XSP16, 26)
          CFI Block cfiCond95 Using cfiCommon0
          CFI (cfiCond95) Function afIncomingData
          CFI (cfiCond95) Conditional ??CrossCallReturnLabel_86, ??CrossCallReturnLabel_7
          CFI (cfiCond95) R6 load(1, XDATA, add(CFA_XSP16, literal(-20)))
          CFI (cfiCond95) VB load(1, XDATA, add(CFA_XSP16, literal(-19)))
          CFI (cfiCond95) V0 load(1, XDATA, add(CFA_XSP16, literal(-18)))
          CFI (cfiCond95) V1 load(1, XDATA, add(CFA_XSP16, literal(-17)))
          CFI (cfiCond95) V2 load(1, XDATA, add(CFA_XSP16, literal(-16)))
          CFI (cfiCond95) V3 load(1, XDATA, add(CFA_XSP16, literal(-15)))
          CFI (cfiCond95) V4 load(1, XDATA, add(CFA_XSP16, literal(-14)))
          CFI (cfiCond95) V5 load(1, XDATA, add(CFA_XSP16, literal(-13)))
          CFI (cfiCond95) V6 load(1, XDATA, add(CFA_XSP16, literal(-12)))
          CFI (cfiCond95) V7 load(1, XDATA, add(CFA_XSP16, literal(-11)))
          CFI (cfiCond95) V8 load(1, XDATA, add(CFA_XSP16, literal(-10)))
          CFI (cfiCond95) V9 load(1, XDATA, add(CFA_XSP16, literal(-9)))
          CFI (cfiCond95) V10 load(1, XDATA, add(CFA_XSP16, literal(-8)))
          CFI (cfiCond95) V11 load(1, XDATA, add(CFA_XSP16, literal(-7)))
          CFI (cfiCond95) R7 load(1, XDATA, add(CFA_XSP16, literal(-6)))
          CFI (cfiCond95) ?RET_LOW load(1, XDATA, add(CFA_XSP16, literal(-5)))
          CFI (cfiCond95) ?RET_HIGH load(1, XDATA, add(CFA_XSP16, literal(-4)))
          CFI (cfiCond95) ?BRET_EXT load(1, XDATA, add(CFA_XSP16, literal(-3)))
          CFI (cfiCond95) DPL0 load(1, XDATA, add(CFA_XSP16, literal(-2)))
          CFI (cfiCond95) DPH0 load(1, XDATA, add(CFA_XSP16, literal(-1)))
          CFI (cfiCond95) CFA_SP SP+-4
          CFI (cfiCond95) CFA_XSP16 add(XSP16, 26)
          CFI Block cfiCond96 Using cfiCommon0
          CFI (cfiCond96) Function afDataConfirm
          CFI (cfiCond96) Conditional ??CrossCallReturnLabel_85, ??CrossCallReturnLabel_4
          CFI (cfiCond96) R6 load(1, XDATA, add(CFA_XSP16, literal(-14)))
          CFI (cfiCond96) VB load(1, XDATA, add(CFA_XSP16, literal(-13)))
          CFI (cfiCond96) V0 load(1, XDATA, add(CFA_XSP16, literal(-12)))
          CFI (cfiCond96) V1 load(1, XDATA, add(CFA_XSP16, literal(-11)))
          CFI (cfiCond96) V2 load(1, XDATA, add(CFA_XSP16, literal(-10)))
          CFI (cfiCond96) V3 load(1, XDATA, add(CFA_XSP16, literal(-9)))
          CFI (cfiCond96) V4 load(1, XDATA, add(CFA_XSP16, literal(-8)))
          CFI (cfiCond96) V5 load(1, XDATA, add(CFA_XSP16, literal(-7)))
          CFI (cfiCond96) R7 load(1, XDATA, add(CFA_XSP16, literal(-6)))
          CFI (cfiCond96) ?RET_LOW load(1, XDATA, add(CFA_XSP16, literal(-5)))
          CFI (cfiCond96) ?RET_HIGH load(1, XDATA, add(CFA_XSP16, literal(-4)))
          CFI (cfiCond96) ?BRET_EXT load(1, XDATA, add(CFA_XSP16, literal(-3)))
          CFI (cfiCond96) DPL0 load(1, XDATA, add(CFA_XSP16, literal(-2)))
          CFI (cfiCond96) DPH0 load(1, XDATA, add(CFA_XSP16, literal(-1)))
          CFI (cfiCond96) CFA_SP SP+-4
          CFI (cfiCond96) CFA_XSP16 add(XSP16, 14)
          CFI Block cfiCond97 Using cfiCommon0
          CFI (cfiCond97) Function afBuildMSGIncoming
          CFI (cfiCond97) Conditional ??CrossCallReturnLabel_85, ??CrossCallReturnLabel_5
          CFI (cfiCond97) R6 load(1, XDATA, add(CFA_XSP16, literal(-18)))
          CFI (cfiCond97) VB load(1, XDATA, add(CFA_XSP16, literal(-17)))
          CFI (cfiCond97) V0 load(1, XDATA, add(CFA_XSP16, literal(-16)))
          CFI (cfiCond97) V1 load(1, XDATA, add(CFA_XSP16, literal(-15)))
          CFI (cfiCond97) V2 load(1, XDATA, add(CFA_XSP16, literal(-14)))
          CFI (cfiCond97) V3 load(1, XDATA, add(CFA_XSP16, literal(-13)))
          CFI (cfiCond97) V4 load(1, XDATA, add(CFA_XSP16, literal(-12)))
          CFI (cfiCond97) V5 load(1, XDATA, add(CFA_XSP16, literal(-11)))
          CFI (cfiCond97) V6 load(1, XDATA, add(CFA_XSP16, literal(-10)))
          CFI (cfiCond97) V7 load(1, XDATA, add(CFA_XSP16, literal(-9)))
          CFI (cfiCond97) V8 load(1, XDATA, add(CFA_XSP16, literal(-8)))
          CFI (cfiCond97) V9 load(1, XDATA, add(CFA_XSP16, literal(-7)))
          CFI (cfiCond97) R7 load(1, XDATA, add(CFA_XSP16, literal(-6)))
          CFI (cfiCond97) ?RET_LOW load(1, XDATA, add(CFA_XSP16, literal(-5)))
          CFI (cfiCond97) ?RET_HIGH load(1, XDATA, add(CFA_XSP16, literal(-4)))
          CFI (cfiCond97) ?BRET_EXT load(1, XDATA, add(CFA_XSP16, literal(-3)))
          CFI (cfiCond97) DPL0 load(1, XDATA, add(CFA_XSP16, literal(-2)))
          CFI (cfiCond97) DPH0 load(1, XDATA, add(CFA_XSP16, literal(-1)))
          CFI (cfiCond97) CFA_SP SP+-4
          CFI (cfiCond97) CFA_XSP16 add(XSP16, 18)
          CFI Block cfiCond98 Using cfiCommon0
          CFI (cfiCond98) Function afIncomingData
          CFI (cfiCond98) Conditional ??CrossCallReturnLabel_88, ??CrossCallReturnLabel_17
          CFI (cfiCond98) R6 load(1, XDATA, add(CFA_XSP16, literal(-20)))
          CFI (cfiCond98) VB load(1, XDATA, add(CFA_XSP16, literal(-19)))
          CFI (cfiCond98) V0 load(1, XDATA, add(CFA_XSP16, literal(-18)))
          CFI (cfiCond98) V1 load(1, XDATA, add(CFA_XSP16, literal(-17)))
          CFI (cfiCond98) V2 load(1, XDATA, add(CFA_XSP16, literal(-16)))
          CFI (cfiCond98) V3 load(1, XDATA, add(CFA_XSP16, literal(-15)))
          CFI (cfiCond98) V4 load(1, XDATA, add(CFA_XSP16, literal(-14)))
          CFI (cfiCond98) V5 load(1, XDATA, add(CFA_XSP16, literal(-13)))
          CFI (cfiCond98) V6 load(1, XDATA, add(CFA_XSP16, literal(-12)))
          CFI (cfiCond98) V7 load(1, XDATA, add(CFA_XSP16, literal(-11)))
          CFI (cfiCond98) V8 load(1, XDATA, add(CFA_XSP16, literal(-10)))
          CFI (cfiCond98) V9 load(1, XDATA, add(CFA_XSP16, literal(-9)))
          CFI (cfiCond98) V10 load(1, XDATA, add(CFA_XSP16, literal(-8)))
          CFI (cfiCond98) V11 load(1, XDATA, add(CFA_XSP16, literal(-7)))
          CFI (cfiCond98) R7 load(1, XDATA, add(CFA_XSP16, literal(-6)))
          CFI (cfiCond98) ?RET_LOW load(1, XDATA, add(CFA_XSP16, literal(-5)))
          CFI (cfiCond98) ?RET_HIGH load(1, XDATA, add(CFA_XSP16, literal(-4)))
          CFI (cfiCond98) ?BRET_EXT load(1, XDATA, add(CFA_XSP16, literal(-3)))
          CFI (cfiCond98) DPL0 load(1, XDATA, add(CFA_XSP16, literal(-2)))
          CFI (cfiCond98) DPH0 load(1, XDATA, add(CFA_XSP16, literal(-1)))
          CFI (cfiCond98) CFA_SP SP+-4
          CFI (cfiCond98) CFA_XSP16 add(XSP16, 26)
          CFI Block cfiCond99 Using cfiCommon0
          CFI (cfiCond99) Function afIncomingData
          CFI (cfiCond99) Conditional ??CrossCallReturnLabel_88, ??CrossCallReturnLabel_18
          CFI (cfiCond99) R6 load(1, XDATA, add(CFA_XSP16, literal(-20)))
          CFI (cfiCond99) VB load(1, XDATA, add(CFA_XSP16, literal(-19)))
          CFI (cfiCond99) V0 load(1, XDATA, add(CFA_XSP16, literal(-18)))
          CFI (cfiCond99) V1 load(1, XDATA, add(CFA_XSP16, literal(-17)))
          CFI (cfiCond99) V2 load(1, XDATA, add(CFA_XSP16, literal(-16)))
          CFI (cfiCond99) V3 load(1, XDATA, add(CFA_XSP16, literal(-15)))
          CFI (cfiCond99) V4 load(1, XDATA, add(CFA_XSP16, literal(-14)))
          CFI (cfiCond99) V5 load(1, XDATA, add(CFA_XSP16, literal(-13)))
          CFI (cfiCond99) V6 load(1, XDATA, add(CFA_XSP16, literal(-12)))
          CFI (cfiCond99) V7 load(1, XDATA, add(CFA_XSP16, literal(-11)))
          CFI (cfiCond99) V8 load(1, XDATA, add(CFA_XSP16, literal(-10)))
          CFI (cfiCond99) V9 load(1, XDATA, add(CFA_XSP16, literal(-9)))
          CFI (cfiCond99) V10 load(1, XDATA, add(CFA_XSP16, literal(-8)))
          CFI (cfiCond99) V11 load(1, XDATA, add(CFA_XSP16, literal(-7)))
          CFI (cfiCond99) R7 load(1, XDATA, add(CFA_XSP16, literal(-6)))
          CFI (cfiCond99) ?RET_LOW load(1, XDATA, add(CFA_XSP16, literal(-5)))
          CFI (cfiCond99) ?RET_HIGH load(1, XDATA, add(CFA_XSP16, literal(-4)))
          CFI (cfiCond99) ?BRET_EXT load(1, XDATA, add(CFA_XSP16, literal(-3)))
          CFI (cfiCond99) DPL0 load(1, XDATA, add(CFA_XSP16, literal(-2)))
          CFI (cfiCond99) DPH0 load(1, XDATA, add(CFA_XSP16, literal(-1)))
          CFI (cfiCond99) CFA_SP SP+-4
          CFI (cfiCond99) CFA_XSP16 add(XSP16, 26)
          CFI Block cfiCond100 Using cfiCommon0
          CFI (cfiCond100) Function afIncomingData
          CFI (cfiCond100) Conditional ??CrossCallReturnLabel_87, ??CrossCallReturnLabel_0
          CFI (cfiCond100) R6 load(1, XDATA, add(CFA_XSP16, literal(-20)))
          CFI (cfiCond100) VB load(1, XDATA, add(CFA_XSP16, literal(-19)))
          CFI (cfiCond100) V0 load(1, XDATA, add(CFA_XSP16, literal(-18)))
          CFI (cfiCond100) V1 load(1, XDATA, add(CFA_XSP16, literal(-17)))
          CFI (cfiCond100) V2 load(1, XDATA, add(CFA_XSP16, literal(-16)))
          CFI (cfiCond100) V3 load(1, XDATA, add(CFA_XSP16, literal(-15)))
          CFI (cfiCond100) V4 load(1, XDATA, add(CFA_XSP16, literal(-14)))
          CFI (cfiCond100) V5 load(1, XDATA, add(CFA_XSP16, literal(-13)))
          CFI (cfiCond100) V6 load(1, XDATA, add(CFA_XSP16, literal(-12)))
          CFI (cfiCond100) V7 load(1, XDATA, add(CFA_XSP16, literal(-11)))
          CFI (cfiCond100) V8 load(1, XDATA, add(CFA_XSP16, literal(-10)))
          CFI (cfiCond100) V9 load(1, XDATA, add(CFA_XSP16, literal(-9)))
          CFI (cfiCond100) V10 load(1, XDATA, add(CFA_XSP16, literal(-8)))
          CFI (cfiCond100) V11 load(1, XDATA, add(CFA_XSP16, literal(-7)))
          CFI (cfiCond100) R7 load(1, XDATA, add(CFA_XSP16, literal(-6)))
          CFI (cfiCond100) ?RET_LOW load(1, XDATA, add(CFA_XSP16, literal(-5)))
          CFI (cfiCond100) ?RET_HIGH load(1, XDATA, add(CFA_XSP16, literal(-4)))
          CFI (cfiCond100) ?BRET_EXT load(1, XDATA, add(CFA_XSP16, literal(-3)))
          CFI (cfiCond100) DPL0 load(1, XDATA, add(CFA_XSP16, literal(-2)))
          CFI (cfiCond100) DPH0 load(1, XDATA, add(CFA_XSP16, literal(-1)))
          CFI (cfiCond100) CFA_SP SP+-4
          CFI (cfiCond100) CFA_XSP16 add(XSP16, 26)
          CFI Block cfiCond101 Using cfiCommon0
          CFI (cfiCond101) Function afIncomingData
          CFI (cfiCond101) Conditional ??CrossCallReturnLabel_87, ??CrossCallReturnLabel_1
          CFI (cfiCond101) R6 load(1, XDATA, add(CFA_XSP16, literal(-20)))
          CFI (cfiCond101) VB load(1, XDATA, add(CFA_XSP16, literal(-19)))
          CFI (cfiCond101) V0 load(1, XDATA, add(CFA_XSP16, literal(-18)))
          CFI (cfiCond101) V1 load(1, XDATA, add(CFA_XSP16, literal(-17)))
          CFI (cfiCond101) V2 load(1, XDATA, add(CFA_XSP16, literal(-16)))
          CFI (cfiCond101) V3 load(1, XDATA, add(CFA_XSP16, literal(-15)))
          CFI (cfiCond101) V4 load(1, XDATA, add(CFA_XSP16, literal(-14)))
          CFI (cfiCond101) V5 load(1, XDATA, add(CFA_XSP16, literal(-13)))
          CFI (cfiCond101) V6 load(1, XDATA, add(CFA_XSP16, literal(-12)))
          CFI (cfiCond101) V7 load(1, XDATA, add(CFA_XSP16, literal(-11)))
          CFI (cfiCond101) V8 load(1, XDATA, add(CFA_XSP16, literal(-10)))
          CFI (cfiCond101) V9 load(1, XDATA, add(CFA_XSP16, literal(-9)))
          CFI (cfiCond101) V10 load(1, XDATA, add(CFA_XSP16, literal(-8)))
          CFI (cfiCond101) V11 load(1, XDATA, add(CFA_XSP16, literal(-7)))
          CFI (cfiCond101) R7 load(1, XDATA, add(CFA_XSP16, literal(-6)))
          CFI (cfiCond101) ?RET_LOW load(1, XDATA, add(CFA_XSP16, literal(-5)))
          CFI (cfiCond101) ?RET_HIGH load(1, XDATA, add(CFA_XSP16, literal(-4)))
          CFI (cfiCond101) ?BRET_EXT load(1, XDATA, add(CFA_XSP16, literal(-3)))
          CFI (cfiCond101) DPL0 load(1, XDATA, add(CFA_XSP16, literal(-2)))
          CFI (cfiCond101) DPH0 load(1, XDATA, add(CFA_XSP16, literal(-1)))
          CFI (cfiCond101) CFA_SP SP+-4
          CFI (cfiCond101) CFA_XSP16 add(XSP16, 26)
          CFI Block cfiPicker102 Using cfiCommon1
          CFI (cfiPicker102) NoFunction
          CFI (cfiPicker102) Picker
        MOVX      A,@DPTR
        MOV       DPH,A
        MOV       DPL,R0
        RET
          CFI EndBlock cfiCond85
          CFI EndBlock cfiCond86
          CFI EndBlock cfiCond87
          CFI EndBlock cfiCond88
          CFI EndBlock cfiCond89
          CFI EndBlock cfiCond90
          CFI EndBlock cfiCond91
          CFI EndBlock cfiCond92
          CFI EndBlock cfiCond93
          CFI EndBlock cfiCond94
          CFI EndBlock cfiCond95
          CFI EndBlock cfiCond96
          CFI EndBlock cfiCond97
          CFI EndBlock cfiCond98
          CFI EndBlock cfiCond99
          CFI EndBlock cfiCond100
          CFI EndBlock cfiCond101
          CFI EndBlock cfiPicker102
//  416 
//  417 /*********************************************************************
//  418  * @fn      AF_DataRequest
//  419  *
//  420  * @brief   Common functionality for invoking APSDE_DataReq() for both
//  421  *          SendMulti and MSG-Send.
//  422  *
//  423  * input parameters
//  424  *
//  425  * @param  *dstAddr - Full ZB destination address: Nwk Addr + End Point.
//  426  * @param  *srcEP - Origination (i.e. respond to or ack to) End Point Descr.
//  427  * @param   cID - A valid cluster ID as specified by the Profile.
//  428  * @param   len - Number of bytes of data pointed to by next param.
//  429  * @param  *buf - A pointer to the data bytes to send.
//  430  * @param  *transID - A pointer to a byte which can be modified and which will
//  431  *                    be used as the transaction sequence number of the msg.
//  432  * @param   options - Valid bit mask of Tx options.
//  433  * @param   radius - Normally set to AF_DEFAULT_RADIUS.
//  434  *
//  435  * output parameters
//  436  *
//  437  * @param  *transID - Incremented by one if the return value is success.
//  438  *
//  439  * @return  afStatus_t - See previous definition of afStatus_... types.
//  440  */

        RSEG XDATA_I:XDATA:NOROOT(0)
//  441 uint8 AF_DataRequestDiscoverRoute = TRUE;
AF_DataRequestDiscoverRoute:
        DATA8
        DS 1
        REQUIRE `?<Initializer for AF_DataRequestDiscoverRoute>`
        REQUIRE __INIT_XDATA_I

        RSEG BANKED_CODE:HUGECODE:NOROOT(0)
//  442 afStatus_t AF_DataRequest( afAddrType_t *dstAddr, endPointDesc_t *srcEP,
AF_DataRequest:
          CFI Block cfiBlock103 Using cfiCommon0
          CFI Function AF_DataRequest
        CODE
//  443                            uint16 cID, uint16 len, uint8 *buf, uint8 *transID,
//  444                            uint8 options, uint8 radius )
//  445 {
        FUNCALL AF_DataRequest, NLME_GetShortAddr
        LOCFRAME ISTACK, 0, STACK
        LOCFRAME PSTACK, 0, STACK
        LOCFRAME XSTACK, 46, STACK
        LOCFRAME IOVERLAY, 0, STATIC
        LOCFRAME DOVERLAY, 0, STATIC
        ARGFRAME ISTACK, 0, STACK
        ARGFRAME PSTACK, 0, STACK
        ARGFRAME XSTACK, 46, STACK
        ARGFRAME IOVERLAY, 0, STATIC
        ARGFRAME DOVERLAY, 0, STATIC
        FUNCALL AF_DataRequest, RTG_CheckRtStatus
        LOCFRAME ISTACK, 0, STACK
        LOCFRAME PSTACK, 0, STACK
        LOCFRAME XSTACK, 46, STACK
        LOCFRAME IOVERLAY, 0, STATIC
        LOCFRAME DOVERLAY, 0, STATIC
        ARGFRAME ISTACK, 0, STACK
        ARGFRAME PSTACK, 0, STACK
        ARGFRAME XSTACK, 46, STACK
        ARGFRAME IOVERLAY, 0, STATIC
        ARGFRAME DOVERLAY, 0, STATIC
        FUNCALL AF_DataRequest, NLME_IsAddressBroadcast
        LOCFRAME ISTACK, 0, STACK
        LOCFRAME PSTACK, 0, STACK
        LOCFRAME XSTACK, 46, STACK
        LOCFRAME IOVERLAY, 0, STATIC
        LOCFRAME DOVERLAY, 0, STATIC
        ARGFRAME ISTACK, 0, STACK
        ARGFRAME PSTACK, 0, STACK
        ARGFRAME XSTACK, 46, STACK
        ARGFRAME IOVERLAY, 0, STATIC
        ARGFRAME DOVERLAY, 0, STATIC
        FUNCALL AF_DataRequest, sAddrExtCpy
        LOCFRAME ISTACK, 0, STACK
        LOCFRAME PSTACK, 0, STACK
        LOCFRAME XSTACK, 46, STACK
        LOCFRAME IOVERLAY, 0, STATIC
        LOCFRAME DOVERLAY, 0, STATIC
        ARGFRAME ISTACK, 0, STACK
        ARGFRAME PSTACK, 0, STACK
        ARGFRAME XSTACK, 46, STACK
        ARGFRAME IOVERLAY, 0, STATIC
        ARGFRAME DOVERLAY, 0, STATIC
        FUNCALL AF_DataRequest, osal_mem_free
        LOCFRAME ISTACK, 0, STACK
        LOCFRAME PSTACK, 0, STACK
        LOCFRAME XSTACK, 46, STACK
        LOCFRAME IOVERLAY, 0, STATIC
        LOCFRAME DOVERLAY, 0, STATIC
        ARGFRAME ISTACK, 0, STACK
        ARGFRAME PSTACK, 0, STACK
        ARGFRAME XSTACK, 46, STACK
        ARGFRAME IOVERLAY, 0, STATIC
        ARGFRAME DOVERLAY, 0, STATIC
        FUNCALL AF_DataRequest, afDataReqMTU
        LOCFRAME ISTACK, 0, STACK
        LOCFRAME PSTACK, 0, STACK
        LOCFRAME XSTACK, 46, STACK
        LOCFRAME IOVERLAY, 0, STATIC
        LOCFRAME DOVERLAY, 0, STATIC
        ARGFRAME ISTACK, 0, STACK
        ARGFRAME PSTACK, 0, STACK
        ARGFRAME XSTACK, 46, STACK
        ARGFRAME IOVERLAY, 0, STATIC
        ARGFRAME DOVERLAY, 0, STATIC
        FUNCALL AF_DataRequest, APSDE_DataReq
        LOCFRAME ISTACK, 0, STACK
        LOCFRAME PSTACK, 0, STACK
        LOCFRAME XSTACK, 46, STACK
        LOCFRAME IOVERLAY, 0, STATIC
        LOCFRAME DOVERLAY, 0, STATIC
        ARGFRAME ISTACK, 0, STACK
        ARGFRAME PSTACK, 0, STACK
        ARGFRAME XSTACK, 46, STACK
        ARGFRAME IOVERLAY, 0, STATIC
        ARGFRAME DOVERLAY, 0, STATIC
        FUNCALL AF_DataRequest, NLME_GetShortAddr
        LOCFRAME ISTACK, 0, STACK
        LOCFRAME PSTACK, 0, STACK
        LOCFRAME XSTACK, 46, STACK
        LOCFRAME IOVERLAY, 0, STATIC
        LOCFRAME DOVERLAY, 0, STATIC
        ARGFRAME ISTACK, 0, STACK
        ARGFRAME PSTACK, 0, STACK
        ARGFRAME XSTACK, 46, STACK
        ARGFRAME IOVERLAY, 0, STATIC
        ARGFRAME DOVERLAY, 0, STATIC
        FUNCALL AF_DataRequest, afDataConfirm
        LOCFRAME ISTACK, 0, STACK
        LOCFRAME PSTACK, 0, STACK
        LOCFRAME XSTACK, 46, STACK
        LOCFRAME IOVERLAY, 0, STATIC
        LOCFRAME DOVERLAY, 0, STATIC
        ARGFRAME ISTACK, 0, STACK
        ARGFRAME PSTACK, 0, STACK
        ARGFRAME XSTACK, 46, STACK
        ARGFRAME IOVERLAY, 0, STATIC
        ARGFRAME DOVERLAY, 0, STATIC
        REQUIRE ?V0
        REQUIRE ?V1
        REQUIRE ?V2
        REQUIRE ?V3
        REQUIRE ?V4
        REQUIRE ?V6
        REQUIRE ?V7
        MOV       A,#-0x10
        LCALL     ?BANKED_ENTER_XDATA
          CFI DPH0 load(1, XDATA, add(CFA_XSP16, literal(-1)))
          CFI DPL0 load(1, XDATA, add(CFA_XSP16, literal(-2)))
          CFI ?BRET_EXT load(1, XDATA, add(CFA_XSP16, literal(-3)))
          CFI ?RET_HIGH load(1, XDATA, add(CFA_XSP16, literal(-4)))
          CFI ?RET_LOW load(1, XDATA, add(CFA_XSP16, literal(-5)))
          CFI R7 load(1, XDATA, add(CFA_XSP16, literal(-6)))
          CFI V7 load(1, XDATA, add(CFA_XSP16, literal(-7)))
          CFI V6 load(1, XDATA, add(CFA_XSP16, literal(-8)))
          CFI V5 load(1, XDATA, add(CFA_XSP16, literal(-9)))
          CFI V4 load(1, XDATA, add(CFA_XSP16, literal(-10)))
          CFI V3 load(1, XDATA, add(CFA_XSP16, literal(-11)))
          CFI V2 load(1, XDATA, add(CFA_XSP16, literal(-12)))
          CFI V1 load(1, XDATA, add(CFA_XSP16, literal(-13)))
          CFI V0 load(1, XDATA, add(CFA_XSP16, literal(-14)))
          CFI VB load(1, XDATA, add(CFA_XSP16, literal(-15)))
          CFI R6 load(1, XDATA, add(CFA_XSP16, literal(-16)))
          CFI CFA_SP SP+0
          CFI CFA_XSP16 add(XSP16, 16)
        ; Saved register size: 16
        ; Auto size: 30
        MOV       A,#-0x1e
        LCALL     ?ALLOC_XSTACK8
          CFI CFA_XSP16 add(XSP16, 46)
        MOV       A,R2
        MOV       R6,A
        MOV       A,R3
        MOV       R7,A
        MOV       ?V0,R4
        MOV       ?V1,R5
        MOV       ?V4,R1
//  446   pDescCB pfnDescCB;
//  447   ZStatus_t stat;
//  448   APSDE_DataReq_t req;
//  449   afDataReqMTU_t mtu;
//  450 
//  451   // Verify source end point
//  452   if ( srcEP == NULL )
        MOV       A,R4
        ORL       A,R5
        JNZ       $+5
        LJMP      ??AF_DataRequest_0 & 0xFFFF
//  453   {
//  454     return afStatus_INVALID_PARAMETER;
//  455   }
//  456 
//  457 #if !defined( REFLECTOR )
//  458   if ( dstAddr->addrMode == afAddrNotPresent )
//  459   {
//  460     return afStatus_INVALID_PARAMETER;
//  461   }
//  462 #endif
//  463 
//  464   // Check if route is available before sending data
//  465   if ( options & AF_LIMIT_CONCENTRATOR  )
        MOV       A,R1
        MOV       C,0xE0 /* A   */.3
        JNC       ??AF_DataRequest_1
//  466   {
//  467     if ( dstAddr->addrMode != afAddr16Bit )
        MOV       DPL,R2
        MOV       DPH,R3
        INC       DPTR
        INC       DPTR
        INC       DPTR
        INC       DPTR
        INC       DPTR
        INC       DPTR
        INC       DPTR
        INC       DPTR
        MOVX      A,@DPTR
        XRL       A,#0x2
        JZ        $+5
        LJMP      ??AF_DataRequest_0 & 0xFFFF
//  468     {
//  469       return ( afStatus_INVALID_PARAMETER );
//  470     }
//  471 
//  472     // First, make sure the destination is not its self, then check for an existing route.
//  473     if ( (dstAddr->addr.shortAddr != NLME_GetShortAddr())
//  474         && (RTG_CheckRtStatus( dstAddr->addr.shortAddr, RT_ACTIVE, (MTO_ROUTE | NO_ROUTE_CACHE) ) != RTG_SUCCESS) )
        ; Setup parameters for call to function NLME_GetShortAddr
        LCALL     `??NLME_GetShortAddr::?relay`; Banked call to: NLME_GetShortAddr
        MOV       ?V2,R2
        MOV       ?V3,R3
        MOV       R0,?V2
        MOV       R1,?V3
        MOV       DPL,R6
        MOV       DPH,R7
        MOVX      A,@DPTR
        XRL       A,R0
        JNZ       ??AF_DataRequest_2
        INC       DPTR
        MOVX      A,@DPTR
        XRL       A,R1
??AF_DataRequest_2:
        JZ        ??AF_DataRequest_1
        ; Setup parameters for call to function RTG_CheckRtStatus
        MOV       R4,#0x3
        MOV       R1,#0x1
        MOV       DPL,R6
        MOV       DPH,R7
        LCALL     ??Subroutine43_0 & 0xFFFF
??CrossCallReturnLabel_91:
        LCALL     `??RTG_CheckRtStatus::?relay`; Banked call to: RTG_CheckRtStatus
        MOV       A,R1
        JZ        ??AF_DataRequest_1
//  475     {
//  476       // A valid route to a concentrator wasn't found
//  477       return ( afStatus_NO_ROUTE );
        MOV       R1,#-0x33
        LJMP      ??AF_DataRequest_3 & 0xFFFF
//  478     }
//  479   }
//  480 
//  481   // Validate broadcasting
//  482   if ( ( dstAddr->addrMode == afAddr16Bit     ) ||
//  483        ( dstAddr->addrMode == afAddrBroadcast )    )
??AF_DataRequest_1:
        MOV       DPL,R6
        MOV       DPH,R7
        INC       DPTR
        INC       DPTR
        INC       DPTR
        INC       DPTR
        INC       DPTR
        INC       DPTR
        INC       DPTR
        INC       DPTR
        MOVX      A,@DPTR
        XRL       A,#0x2
        JZ        ??AF_DataRequest_4
        MOV       DPL,R6
        MOV       DPH,R7
        INC       DPTR
        INC       DPTR
        INC       DPTR
        INC       DPTR
        INC       DPTR
        INC       DPTR
        INC       DPTR
        INC       DPTR
        MOVX      A,@DPTR
        XRL       A,#0xf
        JNZ       ??AF_DataRequest_5
//  484   {
//  485     // Check for valid broadcast values
//  486     if( ADDR_NOT_BCAST != NLME_IsAddressBroadcast( dstAddr->addr.shortAddr )  )
??AF_DataRequest_4:
        ; Setup parameters for call to function NLME_IsAddressBroadcast
        MOV       DPL,R6
        MOV       DPH,R7
        LCALL     ??Subroutine43_0 & 0xFFFF
??CrossCallReturnLabel_92:
        LCALL     `??NLME_IsAddressBroadcast::?relay`; Banked call to: NLME_IsAddressBroadcast
        MOV       A,R1
        MOV       DPL,R6
        MOV       DPH,R7
        INC       DPTR
        INC       DPTR
        INC       DPTR
        INC       DPTR
        INC       DPTR
        INC       DPTR
        INC       DPTR
        INC       DPTR
        JZ        ??AF_DataRequest_6
//  487     {
//  488       // Force mode to broadcast
//  489       dstAddr->addrMode = afAddrBroadcast;
        MOV       A,#0xf
        MOVX      @DPTR,A
//  490     }
//  491     else
//  492     {
//  493       // Address is not a valid broadcast type
//  494       if ( dstAddr->addrMode == afAddrBroadcast )
//  495       {
//  496         return afStatus_INVALID_PARAMETER;
//  497       }
//  498     }
//  499   }
//  500   else if ( dstAddr->addrMode != afAddr64Bit &&
//  501             dstAddr->addrMode != afAddrGroup &&
//  502             dstAddr->addrMode != afAddrNotPresent )
//  503   {
//  504     return afStatus_INVALID_PARAMETER;
//  505   }
//  506 
//  507   // Set destination address
//  508   req.dstAddr.addrMode = dstAddr->addrMode;
??AF_DataRequest_7:
        MOV       A,R6
        ADD       A,#0x8
        MOV       R0,A
        CLR       A
        ADDC      A,R7
        MOV       R1,A
        MOV       DPL,R0
        MOV       DPH,A
        MOVX      A,@DPTR
        PUSH      A
          CFI CFA_SP SP+-1
        MOV       A,#0xa
        LCALL     ?XSTACK_DISP0_8
        POP       A
          CFI CFA_SP SP+0
        LCALL     ?Subroutine24 & 0xFFFF
//  509   if ( dstAddr->addrMode == afAddr64Bit )
??CrossCallReturnLabel_35:
        JNZ       ??AF_DataRequest_8
//  510     osal_cpyExtAddr( req.dstAddr.addr.extAddr, dstAddr->addr.extAddr );
        ; Setup parameters for call to function sAddrExtCpy
        MOV       A,R6
        MOV       R4,A
        MOV       A,R7
        MOV       R5,A
        MOV       A,#0x2
        LCALL     ?XSTACK_DISP101_8
        LCALL     `??sAddrExtCpy::?relay`; Banked call to: sAddrExtCpy
        SJMP      ??CrossCallReturnLabel_55
??AF_DataRequest_6:
        MOVX      A,@DPTR
        XRL       A,#0xf
        JNZ       ??AF_DataRequest_7
        SJMP      ??AF_DataRequest_0
??AF_DataRequest_5:
        MOV       DPL,R6
        MOV       DPH,R7
        INC       DPTR
        INC       DPTR
        INC       DPTR
        INC       DPTR
        INC       DPTR
        INC       DPTR
        INC       DPTR
        INC       DPTR
        MOVX      A,@DPTR
        XRL       A,#0x3
        JZ        ??AF_DataRequest_7
        MOV       DPL,R6
        MOV       DPH,R7
        INC       DPTR
        INC       DPTR
        INC       DPTR
        INC       DPTR
        INC       DPTR
        INC       DPTR
        INC       DPTR
        INC       DPTR
        MOVX      A,@DPTR
        XRL       A,#0x1
        JZ        ??AF_DataRequest_7
        MOV       DPL,R6
        MOV       DPH,R7
        INC       DPTR
        INC       DPTR
        INC       DPTR
        INC       DPTR
        INC       DPTR
        INC       DPTR
        INC       DPTR
        INC       DPTR
        MOVX      A,@DPTR
        JZ        ??AF_DataRequest_7
??AF_DataRequest_0:
        MOV       R1,#0x2
        LJMP      ??AF_DataRequest_3 & 0xFFFF
//  511   else
//  512     req.dstAddr.addr.shortAddr = dstAddr->addr.shortAddr;
??AF_DataRequest_8:
        MOV       DPL,R6
        MOV       DPH,R7
        LCALL     ??Subroutine37_0 & 0xFFFF
??CrossCallReturnLabel_64:
        MOV       A,#0x2
        LCALL     ?XSTACK_DISP0_8
        LCALL     ??Subroutine36_0 & 0xFFFF
//  513 
//  514   req.profileID = ZDO_PROFILE_ID;
??CrossCallReturnLabel_55:
        MOV       A,#0x11
        LCALL     ?XSTACK_DISP0_8
        CLR       A
        MOVX      @DPTR,A
        INC       DPTR
        MOVX      @DPTR,A
//  515 
//  516   if ( (pfnDescCB = afGetDescCB( srcEP )) )
        MOV       DPTR,#epList
??AF_DataRequest_9:
        LCALL     ??Subroutine38_0 & 0xFFFF
??CrossCallReturnLabel_70:
        JZ        ??AF_DataRequest_10
        MOV       DPL,R0
        MOV       DPH,R1
        LCALL     ??Subroutine42_0 & 0xFFFF
??CrossCallReturnLabel_95:
        MOV       A,?V0
        XRL       A,R2
        JNZ       ??AF_DataRequest_11
        MOV       A,?V1
        XRL       A,R3
??AF_DataRequest_11:
        MOV       DPL,R0
        MOV       DPH,R1
        JNZ       ??AF_DataRequest_9
        INC       DPTR
        INC       DPTR
        INC       DPTR
        INC       DPTR
        MOVX      A,@DPTR
        MOV       R0,A
        INC       DPTR
        MOVX      A,@DPTR
        MOV       R5,A
        MOV       A,R0
        ORL       A,R5
        JZ        ??AF_DataRequest_10
//  517   {
//  518     uint16 *pID = (uint16 *)(pfnDescCB(
//  519                                  AF_DESCRIPTOR_PROFILE_ID, srcEP->endPoint ));
        ; Setup parameters for indirect call
        MOV       DPL,?V0
        MOV       DPH,?V1
        MOVX      A,@DPTR
        MOV       R2,A
        MOV       R1,#0x2
        MOV       DPL,R0
        MOV       DPH,R5
        LCALL     ?CALL_IND
//  520     if ( pID )
        MOV       A,R2
        ORL       A,R3
        JZ        ??CrossCallReturnLabel_57
//  521     {
//  522       req.profileID = *pID;
        MOV       DPL,R2
        MOV       DPH,R3
        LCALL     ??Subroutine37_0 & 0xFFFF
??CrossCallReturnLabel_65:
        MOV       A,#0x11
        LCALL     ?XSTACK_DISP0_8
        LCALL     ??Subroutine36_0 & 0xFFFF
//  523       osal_mem_free( pID );
??CrossCallReturnLabel_56:
        ; Setup parameters for call to function osal_mem_free
        LCALL     `??osal_mem_free::?relay`; Banked call to: osal_mem_free
        SJMP      ??CrossCallReturnLabel_57
//  524     }
//  525   }
//  526   else if ( srcEP->simpleDesc )
??AF_DataRequest_10:
        MOV       DPL,?V0
        MOV       DPH,?V1
        LCALL     ?Subroutine4 & 0xFFFF
??CrossCallReturnLabel_75:
        JZ        ??CrossCallReturnLabel_57
//  527   {
//  528     req.profileID = srcEP->simpleDesc->AppProfId;
        MOV       DPL,?V0
        MOV       DPH,?V1
        INC       DPTR
        INC       DPTR
        INC       DPTR
        LCALL     ??Subroutine40_0 & 0xFFFF
//  529   }
??CrossCallReturnLabel_80:
        LCALL     ?Subroutine13 & 0xFFFF
??CrossCallReturnLabel_69:
        MOV       A,#0x11
        LCALL     ?XSTACK_DISP0_8
        LCALL     ??Subroutine36_0 & 0xFFFF
//  530 
//  531   req.txOptions = 0;
??CrossCallReturnLabel_57:
        MOV       A,#0x17
        LCALL     ?XSTACK_DISP0_8
        CLR       A
        MOVX      @DPTR,A
        INC       DPTR
        MOVX      @DPTR,A
//  532 
//  533   if ( ( options & AF_ACK_REQUEST              ) &&
//  534        ( req.dstAddr.addrMode != AddrBroadcast ) &&
//  535        ( req.dstAddr.addrMode != AddrGroup     )    )
        MOV       A,?V4
        MOV       C,0xE0 /* A   */.4
        JNC       ??AF_DataRequest_12
        MOV       A,#0xa
        LCALL     ?XSTACK_DISP0_8
        MOVX      A,@DPTR
        XRL       A,#0xf
        JZ        ??AF_DataRequest_12
        MOVX      A,@DPTR
        XRL       A,#0x1
        JZ        ??AF_DataRequest_12
//  536   {
//  537     req.txOptions |=  APS_TX_OPTIONS_ACK;
        MOV       A,#0x17
        LCALL     ?XSTACK_DISP0_8
        MOV       A,#0x4
        MOVX      @DPTR,A
        INC       DPTR
        CLR       A
        MOVX      @DPTR,A
//  538   }
//  539 
//  540   if ( options & AF_SKIP_ROUTING )
??AF_DataRequest_12:
        MOV       A,?V4
        MOV       C,0xE0 /* A   */.7
        JNC       ??AF_DataRequest_13
//  541   {
//  542     req.txOptions |=  APS_TX_OPTIONS_SKIP_ROUTING;
        MOV       A,#0x17
        LCALL     ?XSTACK_DISP0_8
        MOVX      A,@DPTR
        ORL       A,#0x10
        MOVX      @DPTR,A
//  543   }
//  544 
//  545   if ( options & AF_EN_SECURITY )
??AF_DataRequest_13:
        MOV       A,?V4
        MOV       C,0xE0 /* A   */.6
        JNC       ??AF_DataRequest_14
//  546   {
//  547     req.txOptions |= APS_TX_OPTIONS_SECURITY_ENABLE;
        MOV       A,#0x17
        LCALL     ?XSTACK_DISP0_8
        MOVX      A,@DPTR
        ORL       A,#0x1
        MOVX      @DPTR,A
//  548     mtu.aps.secure = TRUE;
        MOV       A,#0x1
        LCALL     ?XSTACK_DISP0_8
        MOV       A,#0x1
        SJMP      ??AF_DataRequest_15
//  549   }
//  550   else
//  551   {
//  552     mtu.aps.secure = FALSE;
??AF_DataRequest_14:
        MOV       A,#0x1
        LCALL     ?XSTACK_DISP0_8
        CLR       A
??AF_DataRequest_15:
        MOVX      @DPTR,A
//  553   }
//  554 
//  555   if ( options & AF_PREPROCESS )
        MOV       A,?V4
        MOV       C,0xE0 /* A   */.2
        JNC       ??AF_DataRequest_16
//  556   {
//  557     req.txOptions |=  APS_TX_OPTIONS_PREPROCESS;
        MOV       A,#0x17
        LCALL     ?XSTACK_DISP0_8
        MOVX      A,@DPTR
        ORL       A,#0x40
        MOVX      @DPTR,A
//  558   }
//  559 
//  560   mtu.kvp = FALSE;
??AF_DataRequest_16:
        MOV       DPL,?XSP + 0
        MOV       DPH,?XSP + 1
        CLR       A
        MOVX      @DPTR,A
        MOV       A,#0x34
        LCALL     ?XSTACK_DISP0_8
        MOVX      A,@DPTR
        MOV       ?V2,A
        INC       DPTR
        MOVX      A,@DPTR
        MOV       ?V3,A
//  561 
//  562   req.transID       = *transID;
        MOV       DPL,?V2
        MOV       DPH,A
        MOVX      A,@DPTR
        PUSH      A
          CFI CFA_SP SP+-1
        MOV       A,#0x19
        LCALL     ?XSTACK_DISP0_8
        POP       A
          CFI CFA_SP SP+0
        LCALL     ?Subroutine21 & 0xFFFF
//  563   req.srcEP         = srcEP->endPoint;
??CrossCallReturnLabel_29:
        MOVX      A,@DPTR
        PUSH      A
          CFI CFA_SP SP+-1
        MOV       A,#0xb
        LCALL     ?XSTACK_DISP0_8
        POP       A
          CFI CFA_SP SP+0
        MOVX      @DPTR,A
//  564   req.dstEP         = dstAddr->endPoint;
        MOV       DPL,R6
        MOV       DPH,R7
        INC       DPTR
        INC       DPTR
        INC       DPTR
        INC       DPTR
        INC       DPTR
        INC       DPTR
        INC       DPTR
        INC       DPTR
        INC       DPTR
        MOVX      A,@DPTR
        PUSH      A
          CFI CFA_SP SP+-1
        MOV       A,#0xc
        LCALL     ?XSTACK_DISP0_8
        POP       A
          CFI CFA_SP SP+0
        MOVX      @DPTR,A
//  565   req.clusterID     = cID;
        MOV       A,#0x2e
        LCALL     ?XSTACK_DISP0_8
        LCALL     ??Subroutine37_0 & 0xFFFF
??CrossCallReturnLabel_66:
        MOV       A,#0xf
        LCALL     ?XSTACK_DISP0_8
        LCALL     ??Subroutine36_0 & 0xFFFF
??CrossCallReturnLabel_58:
        MOV       A,#0x30
        LCALL     ?XSTACK_DISP0_8
        MOVX      A,@DPTR
        MOV       R6,A
        INC       DPTR
        MOVX      A,@DPTR
        MOV       R7,A
//  566   req.asduLen       = len;
        MOV       A,#0x13
        LCALL     ?XSTACK_DISP0_8
        MOV       A,R6
        MOVX      @DPTR,A
        INC       DPTR
        MOV       A,R7
        MOVX      @DPTR,A
//  567   req.asdu          = buf;
        MOV       A,#0x32
        LCALL     ?XSTACK_DISP0_8
        LCALL     ??Subroutine37_0 & 0xFFFF
??CrossCallReturnLabel_67:
        MOV       A,#0x15
        LCALL     ?XSTACK_DISP0_8
        LCALL     ??Subroutine36_0 & 0xFFFF
//  568   req.discoverRoute = AF_DataRequestDiscoverRoute;//(uint8)((options & AF_DISCV_ROUTE) ? 1 : 0);
??CrossCallReturnLabel_59:
        MOV       DPTR,#AF_DataRequestDiscoverRoute
        MOVX      A,@DPTR
        PUSH      A
          CFI CFA_SP SP+-1
        MOV       A,#0x1a
        LCALL     ?XSTACK_DISP0_8
        POP       A
          CFI CFA_SP SP+0
        MOVX      @DPTR,A
//  569   req.radiusCounter = radius;
        MOV       A,#0x36
        LCALL     ?XSTACK_DISP0_8
        MOVX      A,@DPTR
        PUSH      A
          CFI CFA_SP SP+-1
        MOV       A,#0x1b
        LCALL     ?XSTACK_DISP0_8
        POP       A
          CFI CFA_SP SP+0
        MOVX      @DPTR,A
//  570 #if defined ( INTER_PAN )
//  571   req.dstPanId      = dstAddr->panId;
//  572 
//  573   if ( StubAPS_InterPan( dstAddr->panId, dstAddr->endPoint ) )
//  574   {
//  575     if ( len > INTERP_DataReqMTU() )
//  576     {
//  577       stat = afStatus_INVALID_PARAMETER;
//  578     }
//  579     else
//  580     {
//  581       stat = INTERP_DataReq( &req );
//  582     }
//  583   }
//  584   else
//  585 #endif // INTER_PAN
//  586   {
//  587     if (len > afDataReqMTU( &mtu ) )
        ; Setup parameters for call to function afDataReqMTU
        MOV       R2,?XSP + 0
        MOV       R3,?XSP + 1
        LCALL     `??afDataReqMTU::?relay`; Banked call to: afDataReqMTU
        MOV       A,R1
        CLR       C
        SUBB      A,R6
        CLR       A
        SUBB      A,R7
        JNC       ??AF_DataRequest_17
//  588     {
//  589       if (apsfSendFragmented)
        MOV       DPTR,#apsfSendFragmented
        LCALL     ??Subroutine38_0 & 0xFFFF
??CrossCallReturnLabel_72:
        JZ        ??AF_DataRequest_18
//  590       {
//  591         stat = (*apsfSendFragmented)( &req );
        ; Setup parameters for indirect call
        MOV       A,#0x2
        LCALL     ?XSTACK_DISP101_8
        LCALL     ??Subroutine41_0 & 0xFFFF
//  592       }
??CrossCallReturnLabel_76:
        LCALL     ?CALL_IND
        SJMP      ??AF_DataRequest_19
//  593       else
//  594       {
//  595         stat = afStatus_INVALID_PARAMETER;
??AF_DataRequest_18:
        MOV       R6,#0x2
        SJMP      ??AF_DataRequest_20
//  596       }
//  597     }
//  598     else
//  599     {
//  600       stat = APSDE_DataReq( &req );
??AF_DataRequest_17:
        ; Setup parameters for call to function APSDE_DataReq
        MOV       A,#0x2
        LCALL     ?XSTACK_DISP101_8
        LCALL     `??APSDE_DataReq::?relay`; Banked call to: APSDE_DataReq
??AF_DataRequest_19:
        MOV       A,R1
        MOV       R6,A
//  601     }
//  602   }
//  603 
//  604   /*
//  605    * If this is an EndPoint-to-EndPoint message on the same device, it will not
//  606    * get added to the NWK databufs. So it will not go OTA and it will not get
//  607    * a MACCB_DATA_CONFIRM_CMD callback. Thus it is necessary to generate the
//  608    * AF_DATA_CONFIRM_CMD here. Note that APSDE_DataConfirm() only generates one
//  609    * message with the first in line TransSeqNumber, even on a multi message.
//  610    * Also note that a reflected msg will not have its confirmation generated
//  611    * here.
//  612    */
//  613   if ( (req.dstAddr.addrMode == Addr16Bit) &&
//  614        (req.dstAddr.addr.shortAddr == NLME_GetShortAddr()) )
??AF_DataRequest_20:
        MOV       A,#0xa
        LCALL     ?XSTACK_DISP0_8
        MOVX      A,@DPTR
        XRL       A,#0x2
        JNZ       ??AF_DataRequest_21
        ; Setup parameters for call to function NLME_GetShortAddr
        LCALL     `??NLME_GetShortAddr::?relay`; Banked call to: NLME_GetShortAddr
        MOV       ?V6,R2
        MOV       ?V7,R3
        MOV       R0,?V6
        MOV       R1,?V7
        MOV       A,#0x2
        LCALL     ?XSTACK_DISP0_8
        MOVX      A,@DPTR
        XRL       A,R0
        JNZ       ??AF_DataRequest_22
        INC       DPTR
        MOVX      A,@DPTR
        XRL       A,R1
??AF_DataRequest_22:
        JNZ       ??AF_DataRequest_21
//  615   {
//  616     afDataConfirm( srcEP->endPoint, *transID, stat );
        ; Setup parameters for call to function afDataConfirm
        MOV       A,R6
        MOV       R3,A
        MOV       DPL,?V2
        MOV       DPH,?V3
        MOVX      A,@DPTR
        MOV       R2,A
        MOV       DPL,?V0
        MOV       DPH,?V1
        MOVX      A,@DPTR
        MOV       R1,A
        LCALL     `??afDataConfirm::?relay`; Banked call to: afDataConfirm
//  617   }
//  618 
//  619   if ( stat == afStatus_SUCCESS )
??AF_DataRequest_21:
        MOV       A,R6
        JNZ       ??AF_DataRequest_23
//  620   {
//  621     (*transID)++;
        MOV       DPL,?V2
        MOV       DPH,?V3
        MOVX      A,@DPTR
        INC       A
        MOVX      @DPTR,A
//  622   }
//  623 
//  624   return (afStatus_t)stat;
??AF_DataRequest_23:
        MOV       A,R6
        MOV       R1,A
??AF_DataRequest_3:
        MOV       A,#0x1e
        LCALL     ?DEALLOC_XSTACK8
          CFI CFA_XSP16 add(XSP16, 16)
        MOV       R7,#0x8
        LJMP      ?BANKED_LEAVE_XDATA
//  625 }
          CFI EndBlock cfiBlock103

        RSEG BANKED_CODE:HUGECODE:NOROOT(0)
?Subroutine21:
          CFI Block cfiCond104 Using cfiCommon0
          CFI Function afBuildMSGIncoming
          CFI Conditional ??CrossCallReturnLabel_27
          CFI R6 load(1, XDATA, add(CFA_XSP16, literal(-18)))
          CFI VB load(1, XDATA, add(CFA_XSP16, literal(-17)))
          CFI V0 load(1, XDATA, add(CFA_XSP16, literal(-16)))
          CFI V1 load(1, XDATA, add(CFA_XSP16, literal(-15)))
          CFI V2 load(1, XDATA, add(CFA_XSP16, literal(-14)))
          CFI V3 load(1, XDATA, add(CFA_XSP16, literal(-13)))
          CFI V4 load(1, XDATA, add(CFA_XSP16, literal(-12)))
          CFI V5 load(1, XDATA, add(CFA_XSP16, literal(-11)))
          CFI V6 load(1, XDATA, add(CFA_XSP16, literal(-10)))
          CFI V7 load(1, XDATA, add(CFA_XSP16, literal(-9)))
          CFI V8 load(1, XDATA, add(CFA_XSP16, literal(-8)))
          CFI V9 load(1, XDATA, add(CFA_XSP16, literal(-7)))
          CFI R7 load(1, XDATA, add(CFA_XSP16, literal(-6)))
          CFI ?RET_LOW load(1, XDATA, add(CFA_XSP16, literal(-5)))
          CFI ?RET_HIGH load(1, XDATA, add(CFA_XSP16, literal(-4)))
          CFI ?BRET_EXT load(1, XDATA, add(CFA_XSP16, literal(-3)))
          CFI DPL0 load(1, XDATA, add(CFA_XSP16, literal(-2)))
          CFI DPH0 load(1, XDATA, add(CFA_XSP16, literal(-1)))
          CFI CFA_SP SP+-2
          CFI CFA_XSP16 add(XSP16, 18)
          CFI Block cfiCond105 Using cfiCommon0
          CFI (cfiCond105) Function afBuildMSGIncoming
          CFI (cfiCond105) Conditional ??CrossCallReturnLabel_28
          CFI (cfiCond105) R6 load(1, XDATA, add(CFA_XSP16, literal(-18)))
          CFI (cfiCond105) VB load(1, XDATA, add(CFA_XSP16, literal(-17)))
          CFI (cfiCond105) V0 load(1, XDATA, add(CFA_XSP16, literal(-16)))
          CFI (cfiCond105) V1 load(1, XDATA, add(CFA_XSP16, literal(-15)))
          CFI (cfiCond105) V2 load(1, XDATA, add(CFA_XSP16, literal(-14)))
          CFI (cfiCond105) V3 load(1, XDATA, add(CFA_XSP16, literal(-13)))
          CFI (cfiCond105) V4 load(1, XDATA, add(CFA_XSP16, literal(-12)))
          CFI (cfiCond105) V5 load(1, XDATA, add(CFA_XSP16, literal(-11)))
          CFI (cfiCond105) V6 load(1, XDATA, add(CFA_XSP16, literal(-10)))
          CFI (cfiCond105) V7 load(1, XDATA, add(CFA_XSP16, literal(-9)))
          CFI (cfiCond105) V8 load(1, XDATA, add(CFA_XSP16, literal(-8)))
          CFI (cfiCond105) V9 load(1, XDATA, add(CFA_XSP16, literal(-7)))
          CFI (cfiCond105) R7 load(1, XDATA, add(CFA_XSP16, literal(-6)))
          CFI (cfiCond105) ?RET_LOW load(1, XDATA, add(CFA_XSP16, literal(-5)))
          CFI (cfiCond105) ?RET_HIGH load(1, XDATA, add(CFA_XSP16, literal(-4)))
          CFI (cfiCond105) ?BRET_EXT load(1, XDATA, add(CFA_XSP16, literal(-3)))
          CFI (cfiCond105) DPL0 load(1, XDATA, add(CFA_XSP16, literal(-2)))
          CFI (cfiCond105) DPH0 load(1, XDATA, add(CFA_XSP16, literal(-1)))
          CFI (cfiCond105) CFA_SP SP+-2
          CFI (cfiCond105) CFA_XSP16 add(XSP16, 18)
          CFI Block cfiCond106 Using cfiCommon0
          CFI (cfiCond106) Function AF_DataRequest
          CFI (cfiCond106) Conditional ??CrossCallReturnLabel_29
          CFI (cfiCond106) R6 load(1, XDATA, add(CFA_XSP16, literal(-16)))
          CFI (cfiCond106) VB load(1, XDATA, add(CFA_XSP16, literal(-15)))
          CFI (cfiCond106) V0 load(1, XDATA, add(CFA_XSP16, literal(-14)))
          CFI (cfiCond106) V1 load(1, XDATA, add(CFA_XSP16, literal(-13)))
          CFI (cfiCond106) V2 load(1, XDATA, add(CFA_XSP16, literal(-12)))
          CFI (cfiCond106) V3 load(1, XDATA, add(CFA_XSP16, literal(-11)))
          CFI (cfiCond106) V4 load(1, XDATA, add(CFA_XSP16, literal(-10)))
          CFI (cfiCond106) V5 load(1, XDATA, add(CFA_XSP16, literal(-9)))
          CFI (cfiCond106) V6 load(1, XDATA, add(CFA_XSP16, literal(-8)))
          CFI (cfiCond106) V7 load(1, XDATA, add(CFA_XSP16, literal(-7)))
          CFI (cfiCond106) R7 load(1, XDATA, add(CFA_XSP16, literal(-6)))
          CFI (cfiCond106) ?RET_LOW load(1, XDATA, add(CFA_XSP16, literal(-5)))
          CFI (cfiCond106) ?RET_HIGH load(1, XDATA, add(CFA_XSP16, literal(-4)))
          CFI (cfiCond106) ?BRET_EXT load(1, XDATA, add(CFA_XSP16, literal(-3)))
          CFI (cfiCond106) DPL0 load(1, XDATA, add(CFA_XSP16, literal(-2)))
          CFI (cfiCond106) DPH0 load(1, XDATA, add(CFA_XSP16, literal(-1)))
          CFI (cfiCond106) CFA_SP SP+-2
          CFI (cfiCond106) CFA_XSP16 add(XSP16, 46)
          CFI Block cfiPicker107 Using cfiCommon1
          CFI (cfiPicker107) NoFunction
          CFI (cfiPicker107) Picker
        MOVX      @DPTR,A
        MOV       DPL,?V0
        MOV       DPH,?V1
        RET
          CFI EndBlock cfiCond104
          CFI EndBlock cfiCond105
          CFI EndBlock cfiCond106
          CFI EndBlock cfiPicker107

        RSEG BANKED_CODE:HUGECODE:NOROOT(0)
?Subroutine20:
          CFI Block cfiCond108 Using cfiCommon0
          CFI Function afBuildMSGIncoming
          CFI Conditional ??CrossCallReturnLabel_60
          CFI R6 load(1, XDATA, add(CFA_XSP16, literal(-18)))
          CFI VB load(1, XDATA, add(CFA_XSP16, literal(-17)))
          CFI V0 load(1, XDATA, add(CFA_XSP16, literal(-16)))
          CFI V1 load(1, XDATA, add(CFA_XSP16, literal(-15)))
          CFI V2 load(1, XDATA, add(CFA_XSP16, literal(-14)))
          CFI V3 load(1, XDATA, add(CFA_XSP16, literal(-13)))
          CFI V4 load(1, XDATA, add(CFA_XSP16, literal(-12)))
          CFI V5 load(1, XDATA, add(CFA_XSP16, literal(-11)))
          CFI V6 load(1, XDATA, add(CFA_XSP16, literal(-10)))
          CFI V7 load(1, XDATA, add(CFA_XSP16, literal(-9)))
          CFI V8 load(1, XDATA, add(CFA_XSP16, literal(-8)))
          CFI V9 load(1, XDATA, add(CFA_XSP16, literal(-7)))
          CFI R7 load(1, XDATA, add(CFA_XSP16, literal(-6)))
          CFI ?RET_LOW load(1, XDATA, add(CFA_XSP16, literal(-5)))
          CFI ?RET_HIGH load(1, XDATA, add(CFA_XSP16, literal(-4)))
          CFI ?BRET_EXT load(1, XDATA, add(CFA_XSP16, literal(-3)))
          CFI DPL0 load(1, XDATA, add(CFA_XSP16, literal(-2)))
          CFI DPH0 load(1, XDATA, add(CFA_XSP16, literal(-1)))
          CFI CFA_SP SP+-2
          CFI CFA_XSP16 add(XSP16, 18)
          CFI Block cfiCond109 Using cfiCommon0
          CFI (cfiCond109) Function afBuildMSGIncoming
          CFI (cfiCond109) Conditional ??CrossCallReturnLabel_61
          CFI (cfiCond109) R6 load(1, XDATA, add(CFA_XSP16, literal(-18)))
          CFI (cfiCond109) VB load(1, XDATA, add(CFA_XSP16, literal(-17)))
          CFI (cfiCond109) V0 load(1, XDATA, add(CFA_XSP16, literal(-16)))
          CFI (cfiCond109) V1 load(1, XDATA, add(CFA_XSP16, literal(-15)))
          CFI (cfiCond109) V2 load(1, XDATA, add(CFA_XSP16, literal(-14)))
          CFI (cfiCond109) V3 load(1, XDATA, add(CFA_XSP16, literal(-13)))
          CFI (cfiCond109) V4 load(1, XDATA, add(CFA_XSP16, literal(-12)))
          CFI (cfiCond109) V5 load(1, XDATA, add(CFA_XSP16, literal(-11)))
          CFI (cfiCond109) V6 load(1, XDATA, add(CFA_XSP16, literal(-10)))
          CFI (cfiCond109) V7 load(1, XDATA, add(CFA_XSP16, literal(-9)))
          CFI (cfiCond109) V8 load(1, XDATA, add(CFA_XSP16, literal(-8)))
          CFI (cfiCond109) V9 load(1, XDATA, add(CFA_XSP16, literal(-7)))
          CFI (cfiCond109) R7 load(1, XDATA, add(CFA_XSP16, literal(-6)))
          CFI (cfiCond109) ?RET_LOW load(1, XDATA, add(CFA_XSP16, literal(-5)))
          CFI (cfiCond109) ?RET_HIGH load(1, XDATA, add(CFA_XSP16, literal(-4)))
          CFI (cfiCond109) ?BRET_EXT load(1, XDATA, add(CFA_XSP16, literal(-3)))
          CFI (cfiCond109) DPL0 load(1, XDATA, add(CFA_XSP16, literal(-2)))
          CFI (cfiCond109) DPH0 load(1, XDATA, add(CFA_XSP16, literal(-1)))
          CFI (cfiCond109) CFA_SP SP+-2
          CFI (cfiCond109) CFA_XSP16 add(XSP16, 18)
          CFI Block cfiPicker110 Using cfiCommon1
          CFI (cfiPicker110) NoFunction
          CFI (cfiPicker110) Picker
        MOV       DPL,A
        CLR       A
        ADDC      A,R7
        MOV       DPH,A
          CFI EndBlock cfiCond108
          CFI EndBlock cfiCond109
          CFI EndBlock cfiPicker110
        REQUIRE ??Subroutine36_0
        ; // Fall through to label ??Subroutine36_0

        RSEG BANKED_CODE:HUGECODE:NOROOT(0)
??Subroutine36_0:
          CFI Block cfiCond111 Using cfiCommon0
          CFI Function afBuildMSGIncoming
          CFI Conditional ??CrossCallReturnLabel_53
          CFI R6 load(1, XDATA, add(CFA_XSP16, literal(-18)))
          CFI VB load(1, XDATA, add(CFA_XSP16, literal(-17)))
          CFI V0 load(1, XDATA, add(CFA_XSP16, literal(-16)))
          CFI V1 load(1, XDATA, add(CFA_XSP16, literal(-15)))
          CFI V2 load(1, XDATA, add(CFA_XSP16, literal(-14)))
          CFI V3 load(1, XDATA, add(CFA_XSP16, literal(-13)))
          CFI V4 load(1, XDATA, add(CFA_XSP16, literal(-12)))
          CFI V5 load(1, XDATA, add(CFA_XSP16, literal(-11)))
          CFI V6 load(1, XDATA, add(CFA_XSP16, literal(-10)))
          CFI V7 load(1, XDATA, add(CFA_XSP16, literal(-9)))
          CFI V8 load(1, XDATA, add(CFA_XSP16, literal(-8)))
          CFI V9 load(1, XDATA, add(CFA_XSP16, literal(-7)))
          CFI R7 load(1, XDATA, add(CFA_XSP16, literal(-6)))
          CFI ?RET_LOW load(1, XDATA, add(CFA_XSP16, literal(-5)))
          CFI ?RET_HIGH load(1, XDATA, add(CFA_XSP16, literal(-4)))
          CFI ?BRET_EXT load(1, XDATA, add(CFA_XSP16, literal(-3)))
          CFI DPL0 load(1, XDATA, add(CFA_XSP16, literal(-2)))
          CFI DPH0 load(1, XDATA, add(CFA_XSP16, literal(-1)))
          CFI CFA_SP SP+-2
          CFI CFA_XSP16 add(XSP16, 18)
          CFI Block cfiCond112 Using cfiCommon0
          CFI (cfiCond112) Function afBuildMSGIncoming
          CFI (cfiCond112) Conditional ??CrossCallReturnLabel_54
          CFI (cfiCond112) R6 load(1, XDATA, add(CFA_XSP16, literal(-18)))
          CFI (cfiCond112) VB load(1, XDATA, add(CFA_XSP16, literal(-17)))
          CFI (cfiCond112) V0 load(1, XDATA, add(CFA_XSP16, literal(-16)))
          CFI (cfiCond112) V1 load(1, XDATA, add(CFA_XSP16, literal(-15)))
          CFI (cfiCond112) V2 load(1, XDATA, add(CFA_XSP16, literal(-14)))
          CFI (cfiCond112) V3 load(1, XDATA, add(CFA_XSP16, literal(-13)))
          CFI (cfiCond112) V4 load(1, XDATA, add(CFA_XSP16, literal(-12)))
          CFI (cfiCond112) V5 load(1, XDATA, add(CFA_XSP16, literal(-11)))
          CFI (cfiCond112) V6 load(1, XDATA, add(CFA_XSP16, literal(-10)))
          CFI (cfiCond112) V7 load(1, XDATA, add(CFA_XSP16, literal(-9)))
          CFI (cfiCond112) V8 load(1, XDATA, add(CFA_XSP16, literal(-8)))
          CFI (cfiCond112) V9 load(1, XDATA, add(CFA_XSP16, literal(-7)))
          CFI (cfiCond112) R7 load(1, XDATA, add(CFA_XSP16, literal(-6)))
          CFI (cfiCond112) ?RET_LOW load(1, XDATA, add(CFA_XSP16, literal(-5)))
          CFI (cfiCond112) ?RET_HIGH load(1, XDATA, add(CFA_XSP16, literal(-4)))
          CFI (cfiCond112) ?BRET_EXT load(1, XDATA, add(CFA_XSP16, literal(-3)))
          CFI (cfiCond112) DPL0 load(1, XDATA, add(CFA_XSP16, literal(-2)))
          CFI (cfiCond112) DPH0 load(1, XDATA, add(CFA_XSP16, literal(-1)))
          CFI (cfiCond112) CFA_SP SP+-2
          CFI (cfiCond112) CFA_XSP16 add(XSP16, 18)
          CFI Block cfiCond113 Using cfiCommon0
          CFI (cfiCond113) Function AF_DataRequest
          CFI (cfiCond113) Conditional ??CrossCallReturnLabel_55
          CFI (cfiCond113) R6 load(1, XDATA, add(CFA_XSP16, literal(-16)))
          CFI (cfiCond113) VB load(1, XDATA, add(CFA_XSP16, literal(-15)))
          CFI (cfiCond113) V0 load(1, XDATA, add(CFA_XSP16, literal(-14)))
          CFI (cfiCond113) V1 load(1, XDATA, add(CFA_XSP16, literal(-13)))
          CFI (cfiCond113) V2 load(1, XDATA, add(CFA_XSP16, literal(-12)))
          CFI (cfiCond113) V3 load(1, XDATA, add(CFA_XSP16, literal(-11)))
          CFI (cfiCond113) V4 load(1, XDATA, add(CFA_XSP16, literal(-10)))
          CFI (cfiCond113) V5 load(1, XDATA, add(CFA_XSP16, literal(-9)))
          CFI (cfiCond113) V6 load(1, XDATA, add(CFA_XSP16, literal(-8)))
          CFI (cfiCond113) V7 load(1, XDATA, add(CFA_XSP16, literal(-7)))
          CFI (cfiCond113) R7 load(1, XDATA, add(CFA_XSP16, literal(-6)))
          CFI (cfiCond113) ?RET_LOW load(1, XDATA, add(CFA_XSP16, literal(-5)))
          CFI (cfiCond113) ?RET_HIGH load(1, XDATA, add(CFA_XSP16, literal(-4)))
          CFI (cfiCond113) ?BRET_EXT load(1, XDATA, add(CFA_XSP16, literal(-3)))
          CFI (cfiCond113) DPL0 load(1, XDATA, add(CFA_XSP16, literal(-2)))
          CFI (cfiCond113) DPH0 load(1, XDATA, add(CFA_XSP16, literal(-1)))
          CFI (cfiCond113) CFA_SP SP+-2
          CFI (cfiCond113) CFA_XSP16 add(XSP16, 46)
          CFI Block cfiCond114 Using cfiCommon0
          CFI (cfiCond114) Function AF_DataRequest
          CFI (cfiCond114) Conditional ??CrossCallReturnLabel_56
          CFI (cfiCond114) R6 load(1, XDATA, add(CFA_XSP16, literal(-16)))
          CFI (cfiCond114) VB load(1, XDATA, add(CFA_XSP16, literal(-15)))
          CFI (cfiCond114) V0 load(1, XDATA, add(CFA_XSP16, literal(-14)))
          CFI (cfiCond114) V1 load(1, XDATA, add(CFA_XSP16, literal(-13)))
          CFI (cfiCond114) V2 load(1, XDATA, add(CFA_XSP16, literal(-12)))
          CFI (cfiCond114) V3 load(1, XDATA, add(CFA_XSP16, literal(-11)))
          CFI (cfiCond114) V4 load(1, XDATA, add(CFA_XSP16, literal(-10)))
          CFI (cfiCond114) V5 load(1, XDATA, add(CFA_XSP16, literal(-9)))
          CFI (cfiCond114) V6 load(1, XDATA, add(CFA_XSP16, literal(-8)))
          CFI (cfiCond114) V7 load(1, XDATA, add(CFA_XSP16, literal(-7)))
          CFI (cfiCond114) R7 load(1, XDATA, add(CFA_XSP16, literal(-6)))
          CFI (cfiCond114) ?RET_LOW load(1, XDATA, add(CFA_XSP16, literal(-5)))
          CFI (cfiCond114) ?RET_HIGH load(1, XDATA, add(CFA_XSP16, literal(-4)))
          CFI (cfiCond114) ?BRET_EXT load(1, XDATA, add(CFA_XSP16, literal(-3)))
          CFI (cfiCond114) DPL0 load(1, XDATA, add(CFA_XSP16, literal(-2)))
          CFI (cfiCond114) DPH0 load(1, XDATA, add(CFA_XSP16, literal(-1)))
          CFI (cfiCond114) CFA_SP SP+-2
          CFI (cfiCond114) CFA_XSP16 add(XSP16, 46)
          CFI Block cfiCond115 Using cfiCommon0
          CFI (cfiCond115) Function AF_DataRequest
          CFI (cfiCond115) Conditional ??CrossCallReturnLabel_57
          CFI (cfiCond115) R6 load(1, XDATA, add(CFA_XSP16, literal(-16)))
          CFI (cfiCond115) VB load(1, XDATA, add(CFA_XSP16, literal(-15)))
          CFI (cfiCond115) V0 load(1, XDATA, add(CFA_XSP16, literal(-14)))
          CFI (cfiCond115) V1 load(1, XDATA, add(CFA_XSP16, literal(-13)))
          CFI (cfiCond115) V2 load(1, XDATA, add(CFA_XSP16, literal(-12)))
          CFI (cfiCond115) V3 load(1, XDATA, add(CFA_XSP16, literal(-11)))
          CFI (cfiCond115) V4 load(1, XDATA, add(CFA_XSP16, literal(-10)))
          CFI (cfiCond115) V5 load(1, XDATA, add(CFA_XSP16, literal(-9)))
          CFI (cfiCond115) V6 load(1, XDATA, add(CFA_XSP16, literal(-8)))
          CFI (cfiCond115) V7 load(1, XDATA, add(CFA_XSP16, literal(-7)))
          CFI (cfiCond115) R7 load(1, XDATA, add(CFA_XSP16, literal(-6)))
          CFI (cfiCond115) ?RET_LOW load(1, XDATA, add(CFA_XSP16, literal(-5)))
          CFI (cfiCond115) ?RET_HIGH load(1, XDATA, add(CFA_XSP16, literal(-4)))
          CFI (cfiCond115) ?BRET_EXT load(1, XDATA, add(CFA_XSP16, literal(-3)))
          CFI (cfiCond115) DPL0 load(1, XDATA, add(CFA_XSP16, literal(-2)))
          CFI (cfiCond115) DPH0 load(1, XDATA, add(CFA_XSP16, literal(-1)))
          CFI (cfiCond115) CFA_SP SP+-2
          CFI (cfiCond115) CFA_XSP16 add(XSP16, 46)
          CFI Block cfiCond116 Using cfiCommon0
          CFI (cfiCond116) Function AF_DataRequest
          CFI (cfiCond116) Conditional ??CrossCallReturnLabel_58
          CFI (cfiCond116) R6 load(1, XDATA, add(CFA_XSP16, literal(-16)))
          CFI (cfiCond116) VB load(1, XDATA, add(CFA_XSP16, literal(-15)))
          CFI (cfiCond116) V0 load(1, XDATA, add(CFA_XSP16, literal(-14)))
          CFI (cfiCond116) V1 load(1, XDATA, add(CFA_XSP16, literal(-13)))
          CFI (cfiCond116) V2 load(1, XDATA, add(CFA_XSP16, literal(-12)))
          CFI (cfiCond116) V3 load(1, XDATA, add(CFA_XSP16, literal(-11)))
          CFI (cfiCond116) V4 load(1, XDATA, add(CFA_XSP16, literal(-10)))
          CFI (cfiCond116) V5 load(1, XDATA, add(CFA_XSP16, literal(-9)))
          CFI (cfiCond116) V6 load(1, XDATA, add(CFA_XSP16, literal(-8)))
          CFI (cfiCond116) V7 load(1, XDATA, add(CFA_XSP16, literal(-7)))
          CFI (cfiCond116) R7 load(1, XDATA, add(CFA_XSP16, literal(-6)))
          CFI (cfiCond116) ?RET_LOW load(1, XDATA, add(CFA_XSP16, literal(-5)))
          CFI (cfiCond116) ?RET_HIGH load(1, XDATA, add(CFA_XSP16, literal(-4)))
          CFI (cfiCond116) ?BRET_EXT load(1, XDATA, add(CFA_XSP16, literal(-3)))
          CFI (cfiCond116) DPL0 load(1, XDATA, add(CFA_XSP16, literal(-2)))
          CFI (cfiCond116) DPH0 load(1, XDATA, add(CFA_XSP16, literal(-1)))
          CFI (cfiCond116) CFA_SP SP+-2
          CFI (cfiCond116) CFA_XSP16 add(XSP16, 46)
          CFI Block cfiCond117 Using cfiCommon0
          CFI (cfiCond117) Function AF_DataRequest
          CFI (cfiCond117) Conditional ??CrossCallReturnLabel_59
          CFI (cfiCond117) R6 load(1, XDATA, add(CFA_XSP16, literal(-16)))
          CFI (cfiCond117) VB load(1, XDATA, add(CFA_XSP16, literal(-15)))
          CFI (cfiCond117) V0 load(1, XDATA, add(CFA_XSP16, literal(-14)))
          CFI (cfiCond117) V1 load(1, XDATA, add(CFA_XSP16, literal(-13)))
          CFI (cfiCond117) V2 load(1, XDATA, add(CFA_XSP16, literal(-12)))
          CFI (cfiCond117) V3 load(1, XDATA, add(CFA_XSP16, literal(-11)))
          CFI (cfiCond117) V4 load(1, XDATA, add(CFA_XSP16, literal(-10)))
          CFI (cfiCond117) V5 load(1, XDATA, add(CFA_XSP16, literal(-9)))
          CFI (cfiCond117) V6 load(1, XDATA, add(CFA_XSP16, literal(-8)))
          CFI (cfiCond117) V7 load(1, XDATA, add(CFA_XSP16, literal(-7)))
          CFI (cfiCond117) R7 load(1, XDATA, add(CFA_XSP16, literal(-6)))
          CFI (cfiCond117) ?RET_LOW load(1, XDATA, add(CFA_XSP16, literal(-5)))
          CFI (cfiCond117) ?RET_HIGH load(1, XDATA, add(CFA_XSP16, literal(-4)))
          CFI (cfiCond117) ?BRET_EXT load(1, XDATA, add(CFA_XSP16, literal(-3)))
          CFI (cfiCond117) DPL0 load(1, XDATA, add(CFA_XSP16, literal(-2)))
          CFI (cfiCond117) DPH0 load(1, XDATA, add(CFA_XSP16, literal(-1)))
          CFI (cfiCond117) CFA_SP SP+-2
          CFI (cfiCond117) CFA_XSP16 add(XSP16, 46)
          CFI Block cfiCond118 Using cfiCommon0
          CFI (cfiCond118) Function afBuildMSGIncoming
          CFI (cfiCond118) Conditional ??CrossCallReturnLabel_60
          CFI (cfiCond118) R6 load(1, XDATA, add(CFA_XSP16, literal(-18)))
          CFI (cfiCond118) VB load(1, XDATA, add(CFA_XSP16, literal(-17)))
          CFI (cfiCond118) V0 load(1, XDATA, add(CFA_XSP16, literal(-16)))
          CFI (cfiCond118) V1 load(1, XDATA, add(CFA_XSP16, literal(-15)))
          CFI (cfiCond118) V2 load(1, XDATA, add(CFA_XSP16, literal(-14)))
          CFI (cfiCond118) V3 load(1, XDATA, add(CFA_XSP16, literal(-13)))
          CFI (cfiCond118) V4 load(1, XDATA, add(CFA_XSP16, literal(-12)))
          CFI (cfiCond118) V5 load(1, XDATA, add(CFA_XSP16, literal(-11)))
          CFI (cfiCond118) V6 load(1, XDATA, add(CFA_XSP16, literal(-10)))
          CFI (cfiCond118) V7 load(1, XDATA, add(CFA_XSP16, literal(-9)))
          CFI (cfiCond118) V8 load(1, XDATA, add(CFA_XSP16, literal(-8)))
          CFI (cfiCond118) V9 load(1, XDATA, add(CFA_XSP16, literal(-7)))
          CFI (cfiCond118) R7 load(1, XDATA, add(CFA_XSP16, literal(-6)))
          CFI (cfiCond118) ?RET_LOW load(1, XDATA, add(CFA_XSP16, literal(-5)))
          CFI (cfiCond118) ?RET_HIGH load(1, XDATA, add(CFA_XSP16, literal(-4)))
          CFI (cfiCond118) ?BRET_EXT load(1, XDATA, add(CFA_XSP16, literal(-3)))
          CFI (cfiCond118) DPL0 load(1, XDATA, add(CFA_XSP16, literal(-2)))
          CFI (cfiCond118) DPH0 load(1, XDATA, add(CFA_XSP16, literal(-1)))
          CFI (cfiCond118) CFA_SP SP+-2
          CFI (cfiCond118) CFA_XSP16 add(XSP16, 18)
          CFI Block cfiCond119 Using cfiCommon0
          CFI (cfiCond119) Function afBuildMSGIncoming
          CFI (cfiCond119) Conditional ??CrossCallReturnLabel_61
          CFI (cfiCond119) R6 load(1, XDATA, add(CFA_XSP16, literal(-18)))
          CFI (cfiCond119) VB load(1, XDATA, add(CFA_XSP16, literal(-17)))
          CFI (cfiCond119) V0 load(1, XDATA, add(CFA_XSP16, literal(-16)))
          CFI (cfiCond119) V1 load(1, XDATA, add(CFA_XSP16, literal(-15)))
          CFI (cfiCond119) V2 load(1, XDATA, add(CFA_XSP16, literal(-14)))
          CFI (cfiCond119) V3 load(1, XDATA, add(CFA_XSP16, literal(-13)))
          CFI (cfiCond119) V4 load(1, XDATA, add(CFA_XSP16, literal(-12)))
          CFI (cfiCond119) V5 load(1, XDATA, add(CFA_XSP16, literal(-11)))
          CFI (cfiCond119) V6 load(1, XDATA, add(CFA_XSP16, literal(-10)))
          CFI (cfiCond119) V7 load(1, XDATA, add(CFA_XSP16, literal(-9)))
          CFI (cfiCond119) V8 load(1, XDATA, add(CFA_XSP16, literal(-8)))
          CFI (cfiCond119) V9 load(1, XDATA, add(CFA_XSP16, literal(-7)))
          CFI (cfiCond119) R7 load(1, XDATA, add(CFA_XSP16, literal(-6)))
          CFI (cfiCond119) ?RET_LOW load(1, XDATA, add(CFA_XSP16, literal(-5)))
          CFI (cfiCond119) ?RET_HIGH load(1, XDATA, add(CFA_XSP16, literal(-4)))
          CFI (cfiCond119) ?BRET_EXT load(1, XDATA, add(CFA_XSP16, literal(-3)))
          CFI (cfiCond119) DPL0 load(1, XDATA, add(CFA_XSP16, literal(-2)))
          CFI (cfiCond119) DPH0 load(1, XDATA, add(CFA_XSP16, literal(-1)))
          CFI (cfiCond119) CFA_SP SP+-2
          CFI (cfiCond119) CFA_XSP16 add(XSP16, 18)
          CFI Block cfiPicker120 Using cfiCommon1
          CFI (cfiPicker120) NoFunction
          CFI (cfiPicker120) Picker
        MOV       A,R0
        MOVX      @DPTR,A
        INC       DPTR
        MOV       A,R1
        MOVX      @DPTR,A
        RET
          CFI EndBlock cfiCond111
          CFI EndBlock cfiCond112
          CFI EndBlock cfiCond113
          CFI EndBlock cfiCond114
          CFI EndBlock cfiCond115
          CFI EndBlock cfiCond116
          CFI EndBlock cfiCond117
          CFI EndBlock cfiCond118
          CFI EndBlock cfiCond119
          CFI EndBlock cfiPicker120

        RSEG BANKED_CODE:HUGECODE:NOROOT(0)
?Subroutine13:
          CFI Block cfiCond121 Using cfiCommon0
          CFI Function afBuildMSGIncoming
          CFI Conditional ??CrossCallReturnLabel_68
          CFI R6 load(1, XDATA, add(CFA_XSP16, literal(-18)))
          CFI VB load(1, XDATA, add(CFA_XSP16, literal(-17)))
          CFI V0 load(1, XDATA, add(CFA_XSP16, literal(-16)))
          CFI V1 load(1, XDATA, add(CFA_XSP16, literal(-15)))
          CFI V2 load(1, XDATA, add(CFA_XSP16, literal(-14)))
          CFI V3 load(1, XDATA, add(CFA_XSP16, literal(-13)))
          CFI V4 load(1, XDATA, add(CFA_XSP16, literal(-12)))
          CFI V5 load(1, XDATA, add(CFA_XSP16, literal(-11)))
          CFI V6 load(1, XDATA, add(CFA_XSP16, literal(-10)))
          CFI V7 load(1, XDATA, add(CFA_XSP16, literal(-9)))
          CFI V8 load(1, XDATA, add(CFA_XSP16, literal(-8)))
          CFI V9 load(1, XDATA, add(CFA_XSP16, literal(-7)))
          CFI R7 load(1, XDATA, add(CFA_XSP16, literal(-6)))
          CFI ?RET_LOW load(1, XDATA, add(CFA_XSP16, literal(-5)))
          CFI ?RET_HIGH load(1, XDATA, add(CFA_XSP16, literal(-4)))
          CFI ?BRET_EXT load(1, XDATA, add(CFA_XSP16, literal(-3)))
