///////////////////////////////////////////////////////////////////////////////
//
// IAR C/C++ Compiler V10.30.1.6000 for 8051              30/Apr/2020  17:45:17
// Copyright 2004-2018 IAR Systems AB.
// PC-locked license - IAR Embedded Workbench for 8051
//
//    Core               =  plain
//    Code model         =  banked
//    Data model         =  large
//    Calling convention =  xdata reentrant
//    Constant location  =  data_rom
//    Dptr setup         =  1,16
//                          
//    Source file        =  
//        D:\MyData\Project\Graduation_project\GraduationProject_Hardware\ZStack-CC2530-r200\Components\mt\MT_AF.c
//    Command line       =  
//        -f C:\Users\ADMINI~1\AppData\Local\Temp\EW5BEA.tmp
//        (D:\MyData\Project\Graduation_project\GraduationProject_Hardware\ZStack-CC2530-r200\Components\mt\MT_AF.c
//        -D NWK_AUTO_POLL -D ZTOOL_P1 -D xMT_TASK -D xMT_SYS_FUNC -D
//        MT_ZDO_FUNC -D SAPP_ZSTACK -lC
//        D:\MyData\Project\Graduation_project\GraduationProject_Hardware\ZStack-CC2530-r200\Projects\SappWsn\EndDeviceEB\List
//        -lA
//        D:\MyData\Project\Graduation_project\GraduationProject_Hardware\ZStack-CC2530-r200\Projects\SappWsn\EndDeviceEB\List
//        --diag_suppress Pe001,Pa010 -o
//        D:\MyData\Project\Graduation_project\GraduationProject_Hardware\ZStack-CC2530-r200\Projects\SappWsn\EndDeviceEB\Obj
//        -e --debug --core=plain --dptr=16,1 --data_model=large
//        --code_model=banked --calling_convention=xdata_reentrant
//        --place_constants=data_rom --nr_virtual_regs 12 -f
//        D:\MyData\Project\Graduation_project\GraduationProject_Hardware\ZStack-CC2530-r200\Projects\SappWsn\..\zstack\Tools\CC2530DB\f8wEndev.cfg
//        (-DCPU32MHZ -DROOT=__near_func -DMAC_CFG_TX_DATA_MAX=3
//        -DMAC_CFG_TX_MAX=6 -DMAC_CFG_RX_MAX=3) -f
//        D:\MyData\Project\Graduation_project\GraduationProject_Hardware\ZStack-CC2530-r200\Projects\SappWsn\..\zstack\Tools\CC2530DB\f8wConfig.cfg
//        (-DZIGBEEPRO -DSECURE=0 -DZG_SECURE_DYNAMIC=0 -DREFLECTOR
//        -DDEFAULT_CHANLIST=0x00000800 -DZDAPP_CONFIG_PAN_ID=0x0029
//        -DNWK_START_DELAY=100 -DEXTENDED_JOINING_RANDOM_MASK=0x007F
//        -DBEACON_REQUEST_DELAY=100 -DBEACON_REQ_DELAY_MASK=0x00FF
//        -DLINK_STATUS_JITTER_MASK=0x007F -DROUTE_EXPIRY_TIME=30
//        -DAPSC_ACK_WAIT_DURATION_POLLED=3000 -DNWK_INDIRECT_MSG_TIMEOUT=7
//        -DMAX_RREQ_ENTRIES=8 -DAPSC_MAX_FRAME_RETRIES=3
//        -DNWK_MAX_DATA_RETRIES=2 -DMAX_POLL_FAILURE_RETRIES=2 -DMAX_BCAST=9
//        -DAPS_MAX_GROUPS=16 -DMAX_RTG_ENTRIES=40 -DNWK_MAX_BINDING_ENTRIES=4
//        -DMAX_BINDING_CLUSTER_IDS=4 "-DDEFAULT_KEY={0x01, 0x03, 0x05, 0x07,
//        0x09, 0x0B, 0x0D, 0x0F, 0x00, 0x02, 0x04, 0x06, 0x08, 0x0A, 0x0C,
//        0x0D}" -DMAC_MAX_FRAME_SIZE=116 -DZDNWKMGR_MIN_TRANSMISSIONS=20
//        "-DCONST=const __code" -DGENERIC=__generic -DRFD_RCVC_ALWAYS_ON=FALSE
//        -DPOLL_RATE=1000 -DQUEUED_POLL_RATE=100 -DRESPONSE_POLL_RATE=100
//        -DREJOIN_POLL_RATE=440) -I
//        D:\MyData\Project\Graduation_project\GraduationProject_Hardware\ZStack-CC2530-r200\Projects\SappWsn\
//        -I
//        D:\MyData\Project\Graduation_project\GraduationProject_Hardware\ZStack-CC2530-r200\Projects\SappWsn\Source\
//        -I
//        D:\MyData\Project\Graduation_project\GraduationProject_Hardware\ZStack-CC2530-r200\Projects\SappWsn\..\zstack\ZMain\TI2530DB\
//        -I
//        D:\MyData\Project\Graduation_project\GraduationProject_Hardware\ZStack-CC2530-r200\Projects\SappWsn\..\..\Components\hal\include\
//        -I
//        D:\MyData\Project\Graduation_project\GraduationProject_Hardware\ZStack-CC2530-r200\Projects\SappWsn\..\..\Components\hal\target\CC2530EB\
//        -I
//        D:\MyData\Project\Graduation_project\GraduationProject_Hardware\ZStack-CC2530-r200\Projects\SappWsn\..\..\Components\mac\include\
//        -I
//        D:\MyData\Project\Graduation_project\GraduationProject_Hardware\ZStack-CC2530-r200\Projects\SappWsn\..\..\Components\mac\high_level\
//        -I
//        D:\MyData\Project\Graduation_project\GraduationProject_Hardware\ZStack-CC2530-r200\Projects\SappWsn\..\..\Components\mac\low_level\srf04\
//        -I
//        D:\MyData\Project\Graduation_project\GraduationProject_Hardware\ZStack-CC2530-r200\Projects\SappWsn\..\..\Components\mac\low_level\srf04\single_chip\
//        -I
//        D:\MyData\Project\Graduation_project\GraduationProject_Hardware\ZStack-CC2530-r200\Projects\SappWsn\..\..\Components\mt\
//        -I
//        D:\MyData\Project\Graduation_project\GraduationProject_Hardware\ZStack-CC2530-r200\Projects\SappWsn\..\..\Components\osal\include\
//        -I
//        D:\MyData\Project\Graduation_project\GraduationProject_Hardware\ZStack-CC2530-r200\Projects\SappWsn\..\..\Components\services\saddr\
//        -I
//        D:\MyData\Project\Graduation_project\GraduationProject_Hardware\ZStack-CC2530-r200\Projects\SappWsn\..\..\Components\services\sdata\
//        -I
//        D:\MyData\Project\Graduation_project\GraduationProject_Hardware\ZStack-CC2530-r200\Projects\SappWsn\..\..\Components\stack\af\
//        -I
//        D:\MyData\Project\Graduation_project\GraduationProject_Hardware\ZStack-CC2530-r200\Projects\SappWsn\..\..\Components\stack\nwk\
//        -I
//        D:\MyData\Project\Graduation_project\GraduationProject_Hardware\ZStack-CC2530-r200\Projects\SappWsn\..\..\Components\stack\sapi\
//        -I
//        D:\MyData\Project\Graduation_project\GraduationProject_Hardware\ZStack-CC2530-r200\Projects\SappWsn\..\..\Components\stack\sec\
//        -I
//        D:\MyData\Project\Graduation_project\GraduationProject_Hardware\ZStack-CC2530-r200\Projects\SappWsn\..\..\Components\stack\sys\
//        -I
//        D:\MyData\Project\Graduation_project\GraduationProject_Hardware\ZStack-CC2530-r200\Projects\SappWsn\..\..\Components\stack\zdo\
//        -I
//        D:\MyData\Project\Graduation_project\GraduationProject_Hardware\ZStack-CC2530-r200\Projects\SappWsn\..\..\Components\zmac\
//        -I
//        D:\MyData\Project\Graduation_project\GraduationProject_Hardware\ZStack-CC2530-r200\Projects\SappWsn\..\..\Components\zmac\f8w\
//        -Ohz --require_prototypes --no_code_motion)
//    Locale             =  Chinese (Simplified)_CHN.936
//    List file          =  
//        D:\MyData\Project\Graduation_project\GraduationProject_Hardware\ZStack-CC2530-r200\Projects\SappWsn\EndDeviceEB\List\MT_AF.s51
//
///////////////////////////////////////////////////////////////////////////////

        NAME MT_AF

        RTMODEL "__SystemLibrary", "CLib"
        RTMODEL "__calling_convention", "xdata_reentrant"
        RTMODEL "__code_model", "banked"
        RTMODEL "__core", "plain"
        RTMODEL "__data_model", "large"
        RTMODEL "__dptr_size", "16"
        RTMODEL "__extended_stack", "disabled"
        RTMODEL "__location_for_constants", "data"
        RTMODEL "__number_of_dptrs", "1"
        RTMODEL "__register_banks", "*"
        RTMODEL "__rt_version", "1"

        RSEG DOVERLAY:DATA:NOROOT(0)
        RSEG IOVERLAY:IDATA:NOROOT(0)
        RSEG ISTACK:IDATA:NOROOT(0)
        RSEG PSTACK:XDATA:NOROOT(0)
        RSEG XSTACK:XDATA:NOROOT(0)

        EXTERN ?V0
        EXTERN ?V1
        EXTERN ?V2
        EXTERN ?V4
        EXTERN ?V5
        EXTERN ?V3
        EXTERN ?V6
        EXTERN ?V7
        EXTERN ?V8
        EXTERN ?V9
        EXTERN ?V10
        EXTERN ?V11
        EXTERN ?ALLOC_XSTACK8
        EXTERN ?BANKED_ENTER_XDATA
        EXTERN ?BANKED_LEAVE_XDATA
        EXTERN ?BDISPATCH
        EXTERN ?BRET
        EXTERN ?DEALLOC_XSTACK8
        EXTERN ?L_ADD
        EXTERN ?L_EQ_X
        EXTERN ?L_MOV_X
        EXTERN ?L_SHL
        EXTERN ?PUSH_XSTACK8_X_TWO
        EXTERN ?PUSH_XSTACK_I_ONE
        EXTERN ?PUSH_XSTACK_I_THREE
        EXTERN ?PUSH_XSTACK_I_TWO
        EXTERN ?UL_SHR
        EXTERN ?XLOAD_R0123
        EXTERN ?XSP
        EXTERN ?XSTACK_DISP0_8
        EXTERN ?XSTACK_DISP100_8
        EXTERN ?XSTACK_DISP101_8
        EXTERN ?XSTORE_R0123
        EXTERN __INIT_XDATA_Z

        PUBLIC `??MT_AfCommandProcessing::?relay`
        FUNCTION `??MT_AfCommandProcessing::?relay`,0203H
        PUBLIC `??MT_AfDataConfirm::?relay`
        FUNCTION `??MT_AfDataConfirm::?relay`,0203H
        PUBLIC `??MT_AfDataRequest::?relay`
        FUNCTION `??MT_AfDataRequest::?relay`,0203H
        PUBLIC `??MT_AfDataRequestSrcRtg::?relay`
        FUNCTION `??MT_AfDataRequestSrcRtg::?relay`,0203H
        FUNCTION `??MT_AfDataRetrieve::?relay`,0203H
        FUNCTION `??MT_AfDataStore::?relay`,0203H
        PUBLIC `??MT_AfExec::?relay`
        FUNCTION `??MT_AfExec::?relay`,0203H
        PUBLIC `??MT_AfIncomingMsg::?relay`
        FUNCTION `??MT_AfIncomingMsg::?relay`,0203H
        PUBLIC `??MT_AfRegister::?relay`
        FUNCTION `??MT_AfRegister::?relay`,0203H
        PUBLIC MT_AfCommandProcessing
        FUNCTION MT_AfCommandProcessing,021203H
        ARGFRAME XSTACK, 0, STACK
        LOCFRAME ISTACK, 1, STACK
        LOCFRAME XSTACK, 12, STACK
        PUBLIC MT_AfDataConfirm
        FUNCTION MT_AfDataConfirm,021203H
        ARGFRAME XSTACK, 0, STACK
        LOCFRAME ISTACK, 3, STACK
        LOCFRAME XSTACK, 3, STACK
        PUBLIC MT_AfDataRequest
        FUNCTION MT_AfDataRequest,0a1203H
        ARGFRAME XSTACK, 12, STACK
        ARGFRAME IOVERLAY, 0, STATIC
        ARGFRAME DOVERLAY, 0, STATIC
        LOCFRAME ISTACK, 1, STACK
        LOCFRAME XSTACK, 44, STACK
        PUBLIC MT_AfDataRequestSrcRtg
        FUNCTION MT_AfDataRequestSrcRtg,0a1203H
        ARGFRAME XSTACK, 12, STACK
        ARGFRAME IOVERLAY, 0, STATIC
        ARGFRAME DOVERLAY, 0, STATIC
        LOCFRAME ISTACK, 1, STACK
        LOCFRAME XSTACK, 46, STACK
        FUNCTION MT_AfDataRetrieve,0a1203H
        ARGFRAME XSTACK, 12, STACK
        ARGFRAME IOVERLAY, 0, STATIC
        ARGFRAME DOVERLAY, 0, STATIC
        LOCFRAME ISTACK, 1, STACK
        LOCFRAME XSTACK, 26, STACK
        FUNCTION MT_AfDataStore,0a1203H
        ARGFRAME XSTACK, 12, STACK
        ARGFRAME IOVERLAY, 0, STATIC
        ARGFRAME DOVERLAY, 0, STATIC
        LOCFRAME ISTACK, 1, STACK
        LOCFRAME XSTACK, 21, STACK
        PUBLIC MT_AfExec
        FUNCTION MT_AfExec,021203H
        ARGFRAME XSTACK, 0, STACK
        LOCFRAME XSTACK, 9, STACK
        PUBLIC MT_AfIncomingMsg
        FUNCTION MT_AfIncomingMsg,0a1203H
        ARGFRAME XSTACK, 0, STACK
        LOCFRAME ISTACK, 1, STACK
        LOCFRAME XSTACK, 26, STACK
        PUBLIC MT_AfRegister
        FUNCTION MT_AfRegister,0a1203H
        ARGFRAME XSTACK, 12, STACK
        ARGFRAME IOVERLAY, 0, STATIC
        ARGFRAME DOVERLAY, 0, STATIC
        LOCFRAME ISTACK, 1, STACK
        LOCFRAME XSTACK, 15, STACK
        PUBLIC pMtAfDataReq
        PUBLIC pMtAfInMsgList
        
          CFI Names cfiNames0
          CFI StackFrame CFA_SP SP IDATA
          CFI StackFrame CFA_PSP16 PSP16 XDATA
          CFI StackFrame CFA_XSP16 XSP16 XDATA
          CFI StaticOverlayFrame CFA_IOVERLAY IOVERLAY
          CFI StaticOverlayFrame CFA_DOVERLAY DOVERLAY
          CFI Resource `PSW.CY`:1, `B.BR0`:1, `B.BR1`:1, `B.BR2`:1, `B.BR3`:1
          CFI Resource `B.BR4`:1, `B.BR5`:1, `B.BR6`:1, `B.BR7`:1, `VB.BR8`:1
          CFI Resource `VB.BR9`:1, `VB.BR10`:1, `VB.BR11`:1, `VB.BR12`:1
          CFI Resource `VB.BR13`:1, `VB.BR14`:1, `VB.BR15`:1, VB:8, B:8, A:8
          CFI Resource PSW:8, DPL0:8, DPH0:8, R0:8, R1:8, R2:8, R3:8, R4:8, R5:8
          CFI Resource R6:8, R7:8, V0:8, V1:8, V2:8, V3:8, V4:8, V5:8, V6:8, V7:8
          CFI Resource V8:8, V9:8, V10:8, V11:8, SP:8, PSPH:8, PSPL:8, PSP16:16
          CFI Resource XSPH:8, XSPL:8, XSP16:16
          CFI VirtualResource ?RET:24
          CFI Resource ?BRET_EXT:8
          CFI VirtualResource ?RET_HIGH:8, ?RET_LOW:8
          CFI ResourceParts PSP16 PSPH, PSPL
          CFI ResourceParts XSP16 XSPH, XSPL
          CFI ResourceParts ?RET ?BRET_EXT, ?RET_HIGH, ?RET_LOW
          CFI EndNames cfiNames0
        
          CFI Common cfiCommon0 Using cfiNames0
          CFI CodeAlign 1
          CFI DataAlign -1
          CFI ReturnAddress ?RET CODE
          CFI CFA_DOVERLAY Used
          CFI CFA_IOVERLAY Used
          CFI CFA_SP SP+-3
          CFI CFA_PSP16 PSP16+0
          CFI CFA_XSP16 XSP16+0
          CFI `PSW.CY` SameValue
          CFI `B.BR0` SameValue
          CFI `B.BR1` SameValue
          CFI `B.BR2` SameValue
          CFI `B.BR3` SameValue
          CFI `B.BR4` SameValue
          CFI `B.BR5` SameValue
          CFI `B.BR6` SameValue
          CFI `B.BR7` SameValue
          CFI `VB.BR8` SameValue
          CFI `VB.BR9` SameValue
          CFI `VB.BR10` SameValue
          CFI `VB.BR11` SameValue
          CFI `VB.BR12` SameValue
          CFI `VB.BR13` SameValue
          CFI `VB.BR14` SameValue
          CFI `VB.BR15` SameValue
          CFI VB SameValue
          CFI B Undefined
          CFI A Undefined
          CFI PSW SameValue
          CFI DPL0 SameValue
          CFI DPH0 SameValue
          CFI R0 Undefined
          CFI R1 Undefined
          CFI R2 Undefined
          CFI R3 Undefined
          CFI R4 Undefined
          CFI R5 Undefined
          CFI R6 SameValue
          CFI R7 SameValue
          CFI V0 SameValue
          CFI V1 SameValue
          CFI V2 SameValue
          CFI V3 SameValue
          CFI V4 SameValue
          CFI V5 SameValue
          CFI V6 SameValue
          CFI V7 SameValue
          CFI V8 SameValue
          CFI V9 SameValue
          CFI V10 SameValue
          CFI V11 SameValue
          CFI PSPH Undefined
          CFI PSPL Undefined
          CFI XSPH Undefined
          CFI XSPL Undefined
          CFI ?RET Concat
          CFI ?BRET_EXT Frame(CFA_SP, 3)
          CFI ?RET_HIGH Frame(CFA_SP, 2)
          CFI ?RET_LOW Frame(CFA_SP, 1)
          CFI EndCommon cfiCommon0
        
        
          CFI Common cfiCommon1 Using cfiNames0
          CFI CodeAlign 1
          CFI DataAlign -1
          CFI ReturnAddress ?RET CODE
          CFI CFA_DOVERLAY Used
          CFI CFA_IOVERLAY Used
          CFI CFA_SP SP+-2
          CFI CFA_PSP16 PSP16+0
          CFI CFA_XSP16 XSP16+0
          CFI `PSW.CY` SameValue
          CFI `B.BR0` SameValue
          CFI `B.BR1` SameValue
          CFI `B.BR2` SameValue
          CFI `B.BR3` SameValue
          CFI `B.BR4` SameValue
          CFI `B.BR5` SameValue
          CFI `B.BR6` SameValue
          CFI `B.BR7` SameValue
          CFI `VB.BR8` SameValue
          CFI `VB.BR9` SameValue
          CFI `VB.BR10` SameValue
          CFI `VB.BR11` SameValue
          CFI `VB.BR12` SameValue
          CFI `VB.BR13` SameValue
          CFI `VB.BR14` SameValue
          CFI `VB.BR15` SameValue
          CFI VB SameValue
          CFI B SameValue
          CFI A SameValue
          CFI PSW SameValue
          CFI DPL0 SameValue
          CFI DPH0 SameValue
          CFI R0 SameValue
          CFI R1 SameValue
          CFI R2 SameValue
          CFI R3 SameValue
          CFI R4 SameValue
          CFI R5 SameValue
          CFI R6 SameValue
          CFI R7 SameValue
          CFI V0 SameValue
          CFI V1 SameValue
          CFI V2 SameValue
          CFI V3 SameValue
          CFI V4 SameValue
          CFI V5 SameValue
          CFI V6 SameValue
          CFI V7 SameValue
          CFI V8 SameValue
          CFI V9 SameValue
          CFI V10 SameValue
          CFI V11 SameValue
          CFI PSPH Undefined
          CFI PSPL Undefined
          CFI XSPH Undefined
          CFI XSPL Undefined
          CFI ?RET Concat
          CFI ?BRET_EXT SameValue
          CFI ?RET_HIGH Frame(CFA_SP, 2)
          CFI ?RET_LOW Frame(CFA_SP, 1)
          CFI EndCommon cfiCommon1
        
AF_DataRequest      SYMBOL "AF_DataRequest"
`??AF_DataRequest::?relay` SYMBOL "?relay", AF_DataRequest
AF_DataRequestSrcRtg SYMBOL "AF_DataRequestSrcRtg"
`??AF_DataRequestSrcRtg::?relay` SYMBOL "?relay", AF_DataRequestSrcRtg
MT_BuildAndSendZToolResponse SYMBOL "MT_BuildAndSendZToolResponse"
`??MT_BuildAndSendZToolResponse::?relay` SYMBOL "?relay", MT_BuildAndSendZToolResponse
MT_BuildEndpointDesc SYMBOL "MT_BuildEndpointDesc"
`??MT_BuildEndpointDesc::?relay` SYMBOL "?relay", MT_BuildEndpointDesc
afAPSF_ConfigSet    SYMBOL "afAPSF_ConfigSet"
`??afAPSF_ConfigSet::?relay` SYMBOL "?relay", afAPSF_ConfigSet
afFindEndPointDesc  SYMBOL "afFindEndPointDesc"
`??afFindEndPointDesc::?relay` SYMBOL "?relay", afFindEndPointDesc
afRegister          SYMBOL "afRegister"
`??afRegister::?relay` SYMBOL "?relay", afRegister
osal_mem_alloc      SYMBOL "osal_mem_alloc"
`??osal_mem_alloc::?relay` SYMBOL "?relay", osal_mem_alloc
osal_mem_free       SYMBOL "osal_mem_free"
`??osal_mem_free::?relay` SYMBOL "?relay", osal_mem_free
osal_memcpy         SYMBOL "osal_memcpy"
`??osal_memcpy::?relay` SYMBOL "?relay", osal_memcpy
osal_memset         SYMBOL "osal_memset"
`??osal_memset::?relay` SYMBOL "?relay", osal_memset
osal_set_event      SYMBOL "osal_set_event"
`??osal_set_event::?relay` SYMBOL "?relay", osal_set_event
osal_start_timerEx  SYMBOL "osal_start_timerEx"
`??osal_start_timerEx::?relay` SYMBOL "?relay", osal_start_timerEx
MT_AfCommandProcessing SYMBOL "MT_AfCommandProcessing"
`??MT_AfCommandProcessing::?relay` SYMBOL "?relay", MT_AfCommandProcessing
MT_AfDataConfirm    SYMBOL "MT_AfDataConfirm"
`??MT_AfDataConfirm::?relay` SYMBOL "?relay", MT_AfDataConfirm
MT_AfDataRequest    SYMBOL "MT_AfDataRequest"
`??MT_AfDataRequest::?relay` SYMBOL "?relay", MT_AfDataRequest
MT_AfDataRequestSrcRtg SYMBOL "MT_AfDataRequestSrcRtg"
`??MT_AfDataRequestSrcRtg::?relay` SYMBOL "?relay", MT_AfDataRequestSrcRtg
MT_AfExec           SYMBOL "MT_AfExec"
`??MT_AfExec::?relay` SYMBOL "?relay", MT_AfExec
MT_AfIncomingMsg    SYMBOL "MT_AfIncomingMsg"
`??MT_AfIncomingMsg::?relay` SYMBOL "?relay", MT_AfIncomingMsg
MT_AfRegister       SYMBOL "MT_AfRegister"
`??MT_AfRegister::?relay` SYMBOL "?relay", MT_AfRegister

        EXTERN `??AF_DataRequest::?relay`
        FUNCTION `??AF_DataRequest::?relay`,00H
        EXTERN `??AF_DataRequestSrcRtg::?relay`
        FUNCTION `??AF_DataRequestSrcRtg::?relay`,00H
        EXTERN `??MT_BuildAndSendZToolResponse::?relay`
        FUNCTION `??MT_BuildAndSendZToolResponse::?relay`,00H
        EXTERN `??MT_BuildEndpointDesc::?relay`
        FUNCTION `??MT_BuildEndpointDesc::?relay`,00H
        EXTERN `??afAPSF_ConfigSet::?relay`
        FUNCTION `??afAPSF_ConfigSet::?relay`,00H
        EXTERN `??afFindEndPointDesc::?relay`
        FUNCTION `??afFindEndPointDesc::?relay`,00H
        EXTERN `??afRegister::?relay`
        FUNCTION `??afRegister::?relay`,00H
        EXTERN `??osal_mem_alloc::?relay`
        FUNCTION `??osal_mem_alloc::?relay`,00H
        EXTERN `??osal_mem_free::?relay`
        FUNCTION `??osal_mem_free::?relay`,00H
        EXTERN `??osal_memcpy::?relay`
        FUNCTION `??osal_memcpy::?relay`,00H
        EXTERN `??osal_memset::?relay`
        FUNCTION `??osal_memset::?relay`,00H
        EXTERN `??osal_set_event::?relay`
        FUNCTION `??osal_set_event::?relay`,00H
        EXTERN `??osal_start_timerEx::?relay`
        FUNCTION `??osal_start_timerEx::?relay`,00H
        EXTERN AF_DataRequest
        FUNCTION AF_DataRequest,0202H
        ARGFRAME ISTACK, 0, STACK
        ARGFRAME PSTACK, 0, STACK
        ARGFRAME XSTACK, 44, STACK
        ARGFRAME IOVERLAY, 0, STATIC
        ARGFRAME DOVERLAY, 0, STATIC
        EXTERN AF_DataRequestSrcRtg
        FUNCTION AF_DataRequestSrcRtg,0202H
        ARGFRAME ISTACK, 0, STACK
        ARGFRAME PSTACK, 0, STACK
        ARGFRAME XSTACK, 46, STACK
        ARGFRAME IOVERLAY, 0, STATIC
        ARGFRAME DOVERLAY, 0, STATIC
        EXTERN MT_BuildAndSendZToolResponse
        FUNCTION MT_BuildAndSendZToolResponse,0202H
        ARGFRAME ISTACK, 2, STACK
        ARGFRAME PSTACK, 0, STACK
        ARGFRAME XSTACK, 35, STACK
        ARGFRAME IOVERLAY, 0, STATIC
        ARGFRAME DOVERLAY, 0, STATIC
        EXTERN MT_BuildEndpointDesc
        FUNCTION MT_BuildEndpointDesc,0202H
        ARGFRAME ISTACK, 0, STACK
        ARGFRAME PSTACK, 0, STACK
        ARGFRAME XSTACK, 15, STACK
        ARGFRAME IOVERLAY, 0, STATIC
        ARGFRAME DOVERLAY, 0, STATIC
        EXTERN MT_TaskID
        EXTERN afAPSF_ConfigSet
        FUNCTION afAPSF_ConfigSet,0202H
        ARGFRAME ISTACK, 0, STACK
        ARGFRAME PSTACK, 0, STACK
        ARGFRAME XSTACK, 12, STACK
        ARGFRAME IOVERLAY, 0, STATIC
        ARGFRAME DOVERLAY, 0, STATIC
        EXTERN afFindEndPointDesc
        FUNCTION afFindEndPointDesc,0202H
        ARGFRAME ISTACK, 0, STACK
        ARGFRAME PSTACK, 0, STACK
        ARGFRAME XSTACK, 35, STACK
        ARGFRAME IOVERLAY, 0, STATIC
        ARGFRAME DOVERLAY, 0, STATIC
        EXTERN afRegister
        FUNCTION afRegister,0202H
        ARGFRAME ISTACK, 0, STACK
        ARGFRAME PSTACK, 0, STACK
        ARGFRAME XSTACK, 15, STACK
        ARGFRAME IOVERLAY, 0, STATIC
        ARGFRAME DOVERLAY, 0, STATIC
        EXTERN osal_mem_alloc
        FUNCTION osal_mem_alloc,0202H
        ARGFRAME ISTACK, 0, STACK
        ARGFRAME PSTACK, 0, STACK
        ARGFRAME XSTACK, 35, STACK
        ARGFRAME IOVERLAY, 0, STATIC
        ARGFRAME DOVERLAY, 0, STATIC
        EXTERN osal_mem_free
        FUNCTION osal_mem_free,0202H
        ARGFRAME ISTACK, 0, STACK
        ARGFRAME PSTACK, 0, STACK
        ARGFRAME XSTACK, 34, STACK
        ARGFRAME IOVERLAY, 0, STATIC
        ARGFRAME DOVERLAY, 0, STATIC
        EXTERN osal_memcpy
        FUNCTION osal_memcpy,0202H
        ARGFRAME ISTACK, 0, STACK
        ARGFRAME PSTACK, 0, STACK
        ARGFRAME XSTACK, 38, STACK
        ARGFRAME IOVERLAY, 0, STATIC
        ARGFRAME DOVERLAY, 0, STATIC
        EXTERN osal_memset
        FUNCTION osal_memset,0202H
        ARGFRAME ISTACK, 0, STACK
        ARGFRAME PSTACK, 0, STACK
        ARGFRAME XSTACK, 34, STACK
        ARGFRAME IOVERLAY, 0, STATIC
        ARGFRAME DOVERLAY, 0, STATIC
        EXTERN osal_set_event
        FUNCTION osal_set_event,0202H
        ARGFRAME ISTACK, 0, STACK
        ARGFRAME PSTACK, 0, STACK
        ARGFRAME XSTACK, 35, STACK
        ARGFRAME IOVERLAY, 0, STATIC
        ARGFRAME DOVERLAY, 0, STATIC
        EXTERN osal_start_timerEx
        FUNCTION osal_start_timerEx,0202H
        ARGFRAME ISTACK, 0, STACK
        ARGFRAME PSTACK, 0, STACK
        ARGFRAME XSTACK, 35, STACK
        ARGFRAME IOVERLAY, 0, STATIC
        ARGFRAME DOVERLAY, 0, STATIC

// D:\MyData\Project\Graduation_project\GraduationProject_Hardware\ZStack-CC2530-r200\Components\mt\MT_AF.c
//    1 /**************************************************************************************************
//    2   Filename:       MT_AF.c
//    3   Revised:        $Date: 2011-05-27 16:00:27 -0700 (Fri, 27 May 2011) $
//    4   Revision:       $Revision: 26145 $
//    5 
//    6 
//    7   Description:    MonitorTest functions for the AF layer.
//    8 
//    9 
//   10   Copyright 2007-2011 Texas Instruments Incorporated. All rights reserved.
//   11 
//   12   IMPORTANT: Your use of this Software is limited to those specific rights
//   13   granted under the terms of a software license agreement between the user
//   14   who downloaded the software, his/her employer (which must be your employer)
//   15   and Texas Instruments Incorporated (the "License").  You may not use this
//   16   Software unless you agree to abide by the terms of the License. The License
//   17   limits your use, and you acknowledge, that the Software may not be modified,
//   18   copied or distributed unless embedded on a Texas Instruments microcontroller
//   19   or used solely and exclusively in conjunction with a Texas Instruments radio
//   20   frequency transceiver, which is integrated into your product.  Other than for
//   21   the foregoing purpose, you may not use, reproduce, copy, prepare derivative
//   22   works of, modify, distribute, perform, display or sell this Software and/or
//   23   its documentation for any purpose.
//   24 
//   25   YOU FURTHER ACKNOWLEDGE AND AGREE THAT THE SOFTWARE AND DOCUMENTATION ARE
//   26   PROVIDED “AS IS” WITHOUT WARRANTY OF ANY KIND, EITHER EXPRESS OR IMPLIED,
//   27   INCLUDING WITHOUT LIMITATION, ANY WARRANTY OF MERCHANTABILITY, TITLE,
//   28   NON-INFRINGEMENT AND FITNESS FOR A PARTICULAR PURPOSE. IN NO EVENT SHALL
//   29   TEXAS INSTRUMENTS OR ITS LICENSORS BE LIABLE OR OBLIGATED UNDER CONTRACT,
//   30   NEGLIGENCE, STRICT LIABILITY, CONTRIBUTION, BREACH OF WARRANTY, OR OTHER
//   31   LEGAL EQUITABLE THEORY ANY DIRECT OR INDIRECT DAMAGES OR EXPENSES
//   32   INCLUDING BUT NOT LIMITED TO ANY INCIDENTAL, SPECIAL, INDIRECT, PUNITIVE
//   33   OR CONSEQUENTIAL DAMAGES, LOST PROFITS OR LOST DATA, COST OF PROCUREMENT
//   34   OF SUBSTITUTE GOODS, TECHNOLOGY, SERVICES, OR ANY CLAIMS BY THIRD PARTIES
//   35   (INCLUDING BUT NOT LIMITED TO ANY DEFENSE THEREOF), OR OTHER SIMILAR COSTS.
//   36 
//   37   Should you have any questions regarding your right to use this Software,
//   38   contact Texas Instruments Incorporated at www.TI.com.
//   39 
//   40 **************************************************************************************************/
//   41 
//   42 /* ------------------------------------------------------------------------------------------------
//   43  *                                          Includes
//   44  * ------------------------------------------------------------------------------------------------
//   45  */
//   46 #include "ZComDef.h"
//   47 #include "OSAL.h"
//   48 #include "MT.h"
//   49 #include "MT_AF.h"
//   50 #include "MT_ZDO.h"
//   51 #include "nwk.h"
//   52 #include "OnBoard.h"
//   53 #include "MT_UART.h"
//   54 
//   55 #if defined INTER_PAN
//   56 #include "stub_aps.h"
//   57 #endif
//   58 
//   59 /* ------------------------------------------------------------------------------------------------
//   60  *                                          Constants
//   61  * ------------------------------------------------------------------------------------------------
//   62  */
//   63 
//   64 #if !defined MT_AF_EXEC_CNT
//   65 #define MT_AF_EXEC_CNT  15
//   66 #endif
//   67 
//   68 #if !defined MT_AF_EXEC_DLY
//   69 #define MT_AF_EXEC_DLY  1000
//   70 #endif
//   71 
//   72 /* ------------------------------------------------------------------------------------------------
//   73  *                                           Typedefs
//   74  * ------------------------------------------------------------------------------------------------
//   75  */
//   76 
//   77 typedef struct
//   78 {
//   79   uint8 *data;
//   80   afAddrType_t dstAddr;
//   81   endPointDesc_t *epDesc;
//   82   uint16 cId;
//   83   uint16 dataLen;
//   84   uint8 transId;
//   85   uint8 txOpts;
//   86   uint8 radius;
//   87   uint8 tick;
//   88 } mtAfDataReq_t;
//   89 
//   90 typedef struct _mtAfInMsgList_t
//   91 {
//   92   struct _mtAfInMsgList_t *next;
//   93   uint8 *data;
//   94   uint32 timestamp;         // Receipt timestamp from MAC.
//   95   uint8 tick;
//   96 } mtAfInMsgList_t;
//   97 
//   98 /* ------------------------------------------------------------------------------------------------
//   99  *                                        Local Variables
//  100  * ------------------------------------------------------------------------------------------------
//  101  */
//  102 

        RSEG XDATA_Z:XDATA:NOROOT(0)
        DATA16
//  103 mtAfInMsgList_t *pMtAfInMsgList = NULL;
pMtAfInMsgList:
        DS 2
        REQUIRE __INIT_XDATA_Z

        RSEG XDATA_Z:XDATA:NOROOT(0)
        DATA16
//  104 mtAfDataReq_t *pMtAfDataReq = NULL;
pMtAfDataReq:
        DS 2
        REQUIRE __INIT_XDATA_Z
//  105 
//  106 /* ------------------------------------------------------------------------------------------------
//  107  *                                        Global Variables
//  108  * ------------------------------------------------------------------------------------------------
//  109  */
//  110 
//  111 #if defined ( MT_AF_CB_FUNC )
//  112 uint16 _afCallbackSub;
//  113 #endif
//  114 
//  115 /* ------------------------------------------------------------------------------------------------
//  116  *                                        Local Functions
//  117  * ------------------------------------------------------------------------------------------------
//  118  */
//  119 
//  120 void MT_AfRegister(uint8 *pBuf);
//  121 void MT_AfDataRequest(uint8 *pBuf);
//  122 
//  123 #if defined ( ZIGBEE_SOURCE_ROUTING )
//  124 void MT_AfDataRequestSrcRtg(uint8 *pBuf);
//  125 #endif
//  126 
//  127 #if defined INTER_PAN
//  128 static void MT_AfInterPanCtl(uint8 *pBuf);
//  129 #endif
//  130 
//  131 static void MT_AfDataRetrieve(uint8 *pBuf);
//  132 static void MT_AfDataStore(uint8 *pBuf);
//  133 static void MT_AfAPSF_ConfigSet(uint8 *pBuf);
//  134 
//  135 /**************************************************************************************************
//  136  * @fn          MT_AfExec
//  137  *
//  138  * @brief       This function is invoked by an MT timer event.
//  139  *
//  140  * input parameters
//  141  *
//  142  * None.
//  143  *
//  144  * output parameters
//  145  *
//  146  * None.
//  147  *
//  148  * @return      None.
//  149  **************************************************************************************************
//  150  */

        RSEG BANKED_CODE:HUGECODE:NOROOT(0)
//  151 void MT_AfExec(void)
MT_AfExec:
          CFI Block cfiBlock0 Using cfiCommon0
          CFI Function MT_AfExec
        CODE
//  152 {
        FUNCALL MT_AfExec, osal_mem_free
        LOCFRAME ISTACK, 0, STACK
        LOCFRAME PSTACK, 0, STACK
        LOCFRAME XSTACK, 9, STACK
        LOCFRAME IOVERLAY, 0, STATIC
        LOCFRAME DOVERLAY, 0, STATIC
        ARGFRAME ISTACK, 0, STACK
        ARGFRAME PSTACK, 0, STACK
        ARGFRAME XSTACK, 9, STACK
        ARGFRAME IOVERLAY, 0, STATIC
        ARGFRAME DOVERLAY, 0, STATIC
        FUNCALL MT_AfExec, osal_mem_free
        LOCFRAME ISTACK, 0, STACK
        LOCFRAME PSTACK, 0, STACK
        LOCFRAME XSTACK, 9, STACK
        LOCFRAME IOVERLAY, 0, STATIC
        LOCFRAME DOVERLAY, 0, STATIC
        ARGFRAME ISTACK, 0, STACK
        ARGFRAME PSTACK, 0, STACK
        ARGFRAME XSTACK, 9, STACK
        ARGFRAME IOVERLAY, 0, STATIC
        ARGFRAME DOVERLAY, 0, STATIC
        FUNCALL MT_AfExec, osal_mem_free
        LOCFRAME ISTACK, 0, STACK
        LOCFRAME PSTACK, 0, STACK
        LOCFRAME XSTACK, 9, STACK
        LOCFRAME IOVERLAY, 0, STATIC
        LOCFRAME DOVERLAY, 0, STATIC
        ARGFRAME ISTACK, 0, STACK
        ARGFRAME PSTACK, 0, STACK
        ARGFRAME XSTACK, 9, STACK
        ARGFRAME IOVERLAY, 0, STATIC
        ARGFRAME DOVERLAY, 0, STATIC
        FUNCALL MT_AfExec, osal_start_timerEx
        LOCFRAME ISTACK, 0, STACK
        LOCFRAME PSTACK, 0, STACK
        LOCFRAME XSTACK, 9, STACK
        LOCFRAME IOVERLAY, 0, STATIC
        LOCFRAME DOVERLAY, 0, STATIC
        ARGFRAME ISTACK, 0, STACK
        ARGFRAME PSTACK, 0, STACK
        ARGFRAME XSTACK, 9, STACK
        ARGFRAME IOVERLAY, 0, STATIC
        ARGFRAME DOVERLAY, 0, STATIC
        FUNCALL MT_AfExec, osal_set_event
        LOCFRAME ISTACK, 0, STACK
        LOCFRAME PSTACK, 0, STACK
        LOCFRAME XSTACK, 9, STACK
        LOCFRAME IOVERLAY, 0, STATIC
        LOCFRAME DOVERLAY, 0, STATIC
        ARGFRAME ISTACK, 0, STACK
        ARGFRAME PSTACK, 0, STACK
        ARGFRAME XSTACK, 9, STACK
        ARGFRAME IOVERLAY, 0, STATIC
        ARGFRAME DOVERLAY, 0, STATIC
        MOV       A,#-0x9
        LCALL     ?BANKED_ENTER_XDATA
          CFI R6 load(1, XDATA, add(CFA_XSP16, literal(-9)))
          CFI VB load(1, XDATA, add(CFA_XSP16, literal(-8)))
          CFI V0 load(1, XDATA, add(CFA_XSP16, literal(-7)))
          CFI R7 load(1, XDATA, add(CFA_XSP16, literal(-6)))
          CFI ?RET_LOW load(1, XDATA, add(CFA_XSP16, literal(-5)))
          CFI ?RET_HIGH load(1, XDATA, add(CFA_XSP16, literal(-4)))
          CFI ?BRET_EXT load(1, XDATA, add(CFA_XSP16, literal(-3)))
          CFI DPL0 load(1, XDATA, add(CFA_XSP16, literal(-2)))
          CFI DPH0 load(1, XDATA, add(CFA_XSP16, literal(-1)))
          CFI CFA_SP SP+0
          CFI CFA_XSP16 add(XSP16, 9)
        ; Saved register size: 9
        ; Auto size: 0
//  153   mtAfInMsgList_t *pPrev, *pItem = pMtAfInMsgList;
??MT_AfExec_0:
        MOV       DPTR,#pMtAfInMsgList
        SJMP      ??MT_AfExec_1
//  154 
//  155   while (pItem != NULL)
//  156   {
//  157     if (--(pItem->tick) == 0)
//  158     {
//  159       if (pMtAfInMsgList == pItem)
//  160       {
//  161         pMtAfInMsgList = pItem->next;
//  162         (void)osal_mem_free(pItem);
//  163         pItem = pMtAfInMsgList;
//  164       }
//  165       else
//  166       {
//  167         pPrev->next = pItem->next;
//  168         (void)osal_mem_free(pItem);
//  169         pItem = pPrev->next;
//  170       }
//  171     }
//  172     else
//  173     {
//  174       pPrev = pItem;
??MT_AfExec_2:
        MOV       A,R2
        MOV       R6,A
        MOV       A,R3
        MOV       R7,A
//  175       pItem = pItem->next;
        MOV       DPL,R2
        MOV       DPH,R3
??MT_AfExec_1:
        MOVX      A,@DPTR
        MOV       R2,A
        INC       DPTR
        MOVX      A,@DPTR
        MOV       R3,A
//  176     }
        MOV       A,R2
        ORL       A,R3
        JZ        ??MT_AfExec_3
        MOV       A,R2
        ADD       A,#0x8
        MOV       DPL,A
        CLR       A
        ADDC      A,R3
        MOV       DPH,A
        MOVX      A,@DPTR
        DEC       A
        MOVX      @DPTR,A
        JNZ       ??MT_AfExec_2
        LCALL     ?Subroutine11 & 0xFFFF
??CrossCallReturnLabel_116:
        MOV       A,R2
        XRL       A,R0
        JNZ       ??MT_AfExec_4
        MOV       A,R3
        XRL       A,R1
??MT_AfExec_4:
        MOV       DPL,R2
        MOV       DPH,R3
        JNZ       ??MT_AfExec_5
        LCALL     ??Subroutine59_0 & 0xFFFF
??CrossCallReturnLabel_114:
        MOV       DPTR,#pMtAfInMsgList
        LCALL     ?Subroutine30 & 0xFFFF
??CrossCallReturnLabel_45:
        SJMP      ??MT_AfExec_0
??MT_AfExec_5:
        LCALL     ??Subroutine59_0 & 0xFFFF
??CrossCallReturnLabel_115:
        MOV       DPL,R6
        MOV       DPH,R7
        LCALL     ?Subroutine30 & 0xFFFF
??CrossCallReturnLabel_46:
        MOV       DPL,R6
        MOV       DPH,R7
        SJMP      ??MT_AfExec_1
//  177   }
//  178 
//  179   if (pMtAfDataReq != NULL)
??MT_AfExec_3:
        LCALL     ?Subroutine3 & 0xFFFF
??CrossCallReturnLabel_136:
        JZ        ??MT_AfExec_6
//  180   {
//  181     if (--(pMtAfDataReq->tick) == 0)
        MOV       A,R0
        ADD       A,#0x17
        MOV       DPL,A
        CLR       A
        ADDC      A,R1
        MOV       DPH,A
        MOVX      A,@DPTR
        DEC       A
        LCALL     ?Subroutine12 & 0xFFFF
??CrossCallReturnLabel_16:
        MOVX      A,@DPTR
        JNZ       ??MT_AfExec_6
//  182     {
//  183       (void)osal_mem_free(pMtAfDataReq);
        ; Setup parameters for call to function osal_mem_free
        LCALL     ?Subroutine10 & 0xFFFF
//  184       pMtAfDataReq = NULL;
//  185     }
//  186   }
??CrossCallReturnLabel_13:
        MOVX      @DPTR,A
//  187 
//  188   if ((pMtAfInMsgList != NULL) || (pMtAfDataReq != NULL))
??MT_AfExec_6:
        MOV       DPTR,#pMtAfInMsgList
        LCALL     ??Subroutine62_0 & 0xFFFF
??CrossCallReturnLabel_133:
        JNZ       ??MT_AfExec_7
        LCALL     ?Subroutine3 & 0xFFFF
??CrossCallReturnLabel_137:
        JZ        ??CrossCallReturnLabel_27
//  189   {
//  190     if (ZSuccess != osal_start_timerEx(MT_TaskID, MT_AF_EXEC_EVT, MT_AF_EXEC_DLY))
??MT_AfExec_7:
        ; Setup parameters for call to function osal_start_timerEx
        LCALL     ??Subroutine51_0 & 0xFFFF
??CrossCallReturnLabel_83:
        JZ        ??CrossCallReturnLabel_27
//  191     {
//  192       osal_set_event(MT_TaskID, MT_AF_EXEC_EVT);
        ; Setup parameters for call to function osal_set_event
        LCALL     ?Subroutine21 & 0xFFFF
//  193     }
//  194   }
//  195 }
??CrossCallReturnLabel_27:
          CFI EndBlock cfiBlock0
        REQUIRE ?Subroutine0
        ; // Fall through to label ?Subroutine0

        RSEG BANKED_CODE:HUGECODE:NOROOT(0)
?Subroutine0:
          CFI Block cfiBlock1 Using cfiCommon0
          CFI NoFunction
          CFI CFA_SP SP+0
          CFI CFA_XSP16 add(XSP16, 9)
          CFI VB load(1, XDATA, add(CFA_XSP16, literal(-8)))
          CFI DPL0 load(1, XDATA, add(CFA_XSP16, literal(-2)))
          CFI DPH0 load(1, XDATA, add(CFA_XSP16, literal(-1)))
          CFI R6 load(1, XDATA, add(CFA_XSP16, literal(-9)))
          CFI R7 load(1, XDATA, add(CFA_XSP16, literal(-6)))
          CFI V0 load(1, XDATA, add(CFA_XSP16, literal(-7)))
          CFI ?BRET_EXT load(1, XDATA, add(CFA_XSP16, literal(-3)))
          CFI ?RET_HIGH load(1, XDATA, add(CFA_XSP16, literal(-4)))
          CFI ?RET_LOW load(1, XDATA, add(CFA_XSP16, literal(-5)))
        MOV       R7,#0x1
        LJMP      ?BANKED_LEAVE_XDATA
          CFI EndBlock cfiBlock1

        RSEG BANKED_CODE:HUGECODE:NOROOT(0)
?Subroutine30:
          CFI Block cfiCond2 Using cfiCommon0
          CFI Function MT_AfExec
          CFI Conditional ??CrossCallReturnLabel_45
          CFI R6 load(1, XDATA, add(CFA_XSP16, literal(-9)))
          CFI VB load(1, XDATA, add(CFA_XSP16, literal(-8)))
          CFI V0 load(1, XDATA, add(CFA_XSP16, literal(-7)))
          CFI R7 load(1, XDATA, add(CFA_XSP16, literal(-6)))
          CFI ?RET_LOW load(1, XDATA, add(CFA_XSP16, literal(-5)))
          CFI ?RET_HIGH load(1, XDATA, add(CFA_XSP16, literal(-4)))
          CFI ?BRET_EXT load(1, XDATA, add(CFA_XSP16, literal(-3)))
          CFI DPL0 load(1, XDATA, add(CFA_XSP16, literal(-2)))
          CFI DPH0 load(1, XDATA, add(CFA_XSP16, literal(-1)))
          CFI CFA_SP SP+-2
          CFI CFA_XSP16 add(XSP16, 9)
          CFI Block cfiCond3 Using cfiCommon0
          CFI (cfiCond3) Function MT_AfExec
          CFI (cfiCond3) Conditional ??CrossCallReturnLabel_46
          CFI (cfiCond3) R6 load(1, XDATA, add(CFA_XSP16, literal(-9)))
          CFI (cfiCond3) VB load(1, XDATA, add(CFA_XSP16, literal(-8)))
          CFI (cfiCond3) V0 load(1, XDATA, add(CFA_XSP16, literal(-7)))
          CFI (cfiCond3) R7 load(1, XDATA, add(CFA_XSP16, literal(-6)))
          CFI (cfiCond3) ?RET_LOW load(1, XDATA, add(CFA_XSP16, literal(-5)))
          CFI (cfiCond3) ?RET_HIGH load(1, XDATA, add(CFA_XSP16, literal(-4)))
          CFI (cfiCond3) ?BRET_EXT load(1, XDATA, add(CFA_XSP16, literal(-3)))
          CFI (cfiCond3) DPL0 load(1, XDATA, add(CFA_XSP16, literal(-2)))
          CFI (cfiCond3) DPH0 load(1, XDATA, add(CFA_XSP16, literal(-1)))
          CFI (cfiCond3) CFA_SP SP+-2
          CFI (cfiCond3) CFA_XSP16 add(XSP16, 9)
          CFI Block cfiPicker4 Using cfiCommon1
          CFI (cfiPicker4) NoFunction
          CFI (cfiPicker4) Picker
        MOV       A,R0
        MOVX      @DPTR,A
        INC       DPTR
        MOV       A,R1
        MOVX      @DPTR,A
        ; Setup parameters for call to function osal_mem_free
        ; Setup parameters for call to function osal_mem_free
        LCALL     `??osal_mem_free::?relay`; Banked call to: osal_mem_free
        RET
          CFI EndBlock cfiCond2
          CFI EndBlock cfiCond3
          CFI EndBlock cfiPicker4
//  196 
//  197 /***************************************************************************************************
//  198  * @fn      MT_AfCommandProcessing
//  199  *
//  200  * @brief   Process all the AF commands that are issued by test tool
//  201  *
//  202  * @param   pBuf - pointer to the received buffer
//  203  *
//  204  * @return  status
//  205  ***************************************************************************************************/

        RSEG BANKED_CODE:HUGECODE:NOROOT(0)
//  206 uint8 MT_AfCommandProcessing(uint8 *pBuf)
MT_AfCommandProcessing:
          CFI Block cfiBlock5 Using cfiCommon0
          CFI Function MT_AfCommandProcessing
        CODE
//  207 {
        FUNCALL MT_AfCommandProcessing, MT_AfRegister
        LOCFRAME ISTACK, 0, STACK
        LOCFRAME PSTACK, 0, STACK
        LOCFRAME XSTACK, 12, STACK
        LOCFRAME IOVERLAY, 0, STATIC
        LOCFRAME DOVERLAY, 0, STATIC
        ARGFRAME ISTACK, 0, STACK
        ARGFRAME PSTACK, 0, STACK
        ARGFRAME XSTACK, 12, STACK
        ARGFRAME IOVERLAY, 0, STATIC
        ARGFRAME DOVERLAY, 0, STATIC
        FUNCALL MT_AfCommandProcessing, MT_AfDataRequest
        LOCFRAME ISTACK, 0, STACK
        LOCFRAME PSTACK, 0, STACK
        LOCFRAME XSTACK, 12, STACK
        LOCFRAME IOVERLAY, 0, STATIC
        LOCFRAME DOVERLAY, 0, STATIC
        ARGFRAME ISTACK, 0, STACK
        ARGFRAME PSTACK, 0, STACK
        ARGFRAME XSTACK, 12, STACK
        ARGFRAME IOVERLAY, 0, STATIC
        ARGFRAME DOVERLAY, 0, STATIC
        FUNCALL MT_AfCommandProcessing, MT_AfDataRequestSrcRtg
        LOCFRAME ISTACK, 0, STACK
        LOCFRAME PSTACK, 0, STACK
        LOCFRAME XSTACK, 12, STACK
        LOCFRAME IOVERLAY, 0, STATIC
        LOCFRAME DOVERLAY, 0, STATIC
        ARGFRAME ISTACK, 0, STACK
        ARGFRAME PSTACK, 0, STACK
        ARGFRAME XSTACK, 12, STACK
        ARGFRAME IOVERLAY, 0, STATIC
        ARGFRAME DOVERLAY, 0, STATIC
        FUNCALL MT_AfCommandProcessing, MT_AfDataRetrieve
        LOCFRAME ISTACK, 0, STACK
        LOCFRAME PSTACK, 0, STACK
        LOCFRAME XSTACK, 12, STACK
        LOCFRAME IOVERLAY, 0, STATIC
        LOCFRAME DOVERLAY, 0, STATIC
        ARGFRAME ISTACK, 0, STACK
        ARGFRAME PSTACK, 0, STACK
        ARGFRAME XSTACK, 12, STACK
        ARGFRAME IOVERLAY, 0, STATIC
        ARGFRAME DOVERLAY, 0, STATIC
        FUNCALL MT_AfCommandProcessing, MT_AfDataStore
        LOCFRAME ISTACK, 0, STACK
        LOCFRAME PSTACK, 0, STACK
        LOCFRAME XSTACK, 12, STACK
        LOCFRAME IOVERLAY, 0, STATIC
        LOCFRAME DOVERLAY, 0, STATIC
        ARGFRAME ISTACK, 0, STACK
        ARGFRAME PSTACK, 0, STACK
        ARGFRAME XSTACK, 12, STACK
        ARGFRAME IOVERLAY, 0, STATIC
        ARGFRAME DOVERLAY, 0, STATIC
        FUNCALL MT_AfCommandProcessing, afAPSF_ConfigSet
        LOCFRAME ISTACK, 0, STACK
        LOCFRAME PSTACK, 0, STACK
        LOCFRAME XSTACK, 12, STACK
        LOCFRAME IOVERLAY, 0, STATIC
        LOCFRAME DOVERLAY, 0, STATIC
        ARGFRAME ISTACK, 0, STACK
        ARGFRAME PSTACK, 0, STACK
        ARGFRAME XSTACK, 12, STACK
        ARGFRAME IOVERLAY, 0, STATIC
        ARGFRAME DOVERLAY, 0, STATIC
        FUNCALL MT_AfCommandProcessing, MT_BuildAndSendZToolResponse
        LOCFRAME ISTACK, 0, STACK
        LOCFRAME PSTACK, 0, STACK
        LOCFRAME XSTACK, 12, STACK
        LOCFRAME IOVERLAY, 0, STATIC
        LOCFRAME DOVERLAY, 0, STATIC
        ARGFRAME ISTACK, 0, STACK
        ARGFRAME PSTACK, 0, STACK
        ARGFRAME XSTACK, 12, STACK
        ARGFRAME IOVERLAY, 0, STATIC
        ARGFRAME DOVERLAY, 0, STATIC
        MOV       A,#-0x9
        LCALL     ?BANKED_ENTER_XDATA
          CFI DPH0 load(1, XDATA, add(CFA_XSP16, literal(-1)))
          CFI DPL0 load(1, XDATA, add(CFA_XSP16, literal(-2)))
          CFI ?BRET_EXT load(1, XDATA, add(CFA_XSP16, literal(-3)))
          CFI ?RET_HIGH load(1, XDATA, add(CFA_XSP16, literal(-4)))
          CFI ?RET_LOW load(1, XDATA, add(CFA_XSP16, literal(-5)))
          CFI R7 load(1, XDATA, add(CFA_XSP16, literal(-6)))
          CFI V0 load(1, XDATA, add(CFA_XSP16, literal(-7)))
          CFI VB load(1, XDATA, add(CFA_XSP16, literal(-8)))
          CFI R6 load(1, XDATA, add(CFA_XSP16, literal(-9)))
          CFI CFA_SP SP+0
          CFI CFA_XSP16 add(XSP16, 9)
        ; Saved register size: 9
        ; Auto size: 3
        MOV       A,#-0x3
        LCALL     ?ALLOC_XSTACK8
          CFI CFA_XSP16 add(XSP16, 12)
        MOV       A,R2
        MOV       R0,A
        MOV       A,R3
        MOV       R1,A
//  208   uint8 status = MT_RPC_SUCCESS;
        MOV       R6,#0x0
//  209 
//  210   switch (pBuf[MT_RPC_POS_CMD1])
        MOV       DPL,R2
        MOV       DPH,A
        INC       DPTR
        INC       DPTR
        MOVX      A,@DPTR
        JZ        ??MT_AfCommandProcessing_0
        DEC       A
        JZ        ??MT_AfCommandProcessing_1
        DEC       A
        JZ        ??MT_AfCommandProcessing_1
        DEC       A
        JZ        ??MT_AfCommandProcessing_2
        ADD       A,#-0xe
        JZ        ??MT_AfCommandProcessing_3
        DEC       A
        JZ        ??MT_AfCommandProcessing_4
        DEC       A
        JZ        ??MT_AfCommandProcessing_5
        SJMP      ??MT_AfCommandProcessing_6
//  211   {
//  212     case MT_AF_REGISTER:
//  213       MT_AfRegister(pBuf);
??MT_AfCommandProcessing_0:
        ; Setup parameters for call to function MT_AfRegister
        LCALL     `??MT_AfRegister::?relay`; Banked call to: MT_AfRegister
//  214       break;
        SJMP      ??MT_AfCommandProcessing_7
//  215 
//  216     case MT_AF_DATA_REQUEST:
//  217     case MT_AF_DATA_REQUEST_EXT:
//  218       MT_AfDataRequest(pBuf);
??MT_AfCommandProcessing_1:
        ; Setup parameters for call to function MT_AfDataRequest
        LCALL     `??MT_AfDataRequest::?relay`; Banked call to: MT_AfDataRequest
//  219       break;
        SJMP      ??MT_AfCommandProcessing_7
//  220 
//  221 #if defined ( ZIGBEE_SOURCE_ROUTING )
//  222     case MT_AF_DATA_REQUEST_SRCRTG:
//  223       MT_AfDataRequestSrcRtg(pBuf);
??MT_AfCommandProcessing_2:
        ; Setup parameters for call to function MT_AfDataRequestSrcRtg
        LCALL     `??MT_AfDataRequestSrcRtg::?relay`; Banked call to: MT_AfDataRequestSrcRtg
//  224       break;
        SJMP      ??MT_AfCommandProcessing_7
//  225 #endif
//  226 
//  227 #if defined INTER_PAN
//  228     case MT_AF_INTER_PAN_CTL:
//  229       MT_AfInterPanCtl(pBuf);
//  230       break;
//  231 #endif
//  232 
//  233     case MT_AF_DATA_RETRIEVE:
//  234       MT_AfDataRetrieve(pBuf);
??MT_AfCommandProcessing_4:
        ; Setup parameters for call to function MT_AfDataRetrieve
        LCALL     `??MT_AfDataRetrieve::?relay`; Banked call to: MT_AfDataRetrieve
//  235       break;
        SJMP      ??MT_AfCommandProcessing_7
//  236 
//  237     case MT_AF_DATA_STORE:
//  238       MT_AfDataStore(pBuf);
??MT_AfCommandProcessing_3:
        ; Setup parameters for call to function MT_AfDataStore
        LCALL     `??MT_AfDataStore::?relay`; Banked call to: MT_AfDataStore
//  239       break;
        SJMP      ??MT_AfCommandProcessing_7
//  240 
//  241     case MT_AF_APSF_CONFIG_SET:
//  242       MT_AfAPSF_ConfigSet(pBuf);
??MT_AfCommandProcessing_5:
        MOV       DPL,R2
        MOV       DPH,R3
        INC       DPTR
        INC       DPTR
        INC       DPTR
        INC       DPTR
        MOVX      A,@DPTR
        PUSH      A
          CFI CFA_SP SP+-1
        MOV       A,#0x1
        LCALL     ?XSTACK_DISP0_8
        POP       A
          CFI CFA_SP SP+0
        LCALL     ?Subroutine32 & 0xFFFF
??CrossCallReturnLabel_47:
        INC       DPTR
        INC       DPTR
        MOVX      A,@DPTR
        PUSH      A
          CFI CFA_SP SP+-1
        MOV       A,#0x2
        LCALL     ?XSTACK_DISP0_8
        POP       A
          CFI CFA_SP SP+0
        MOVX      @DPTR,A
        ; Setup parameters for call to function afAPSF_ConfigSet
        MOV       A,#0x1
        LCALL     ?XSTACK_DISP101_8
        MOV       DPL,R0
        MOV       DPH,R1
        INC       DPTR
        INC       DPTR
        INC       DPTR
        MOVX      A,@DPTR
        MOV       R1,A
        LCALL     `??afAPSF_ConfigSet::?relay`; Banked call to: afAPSF_ConfigSet
        MOV       A,R1
        MOV       DPL,?XSP + 0
        MOV       DPH,?XSP + 1
        MOVX      @DPTR,A
        ; Setup parameters for call to function MT_BuildAndSendZToolResponse
        MOV       R4,?XSP + 0
        MOV       R5,?XSP + 1
        MOV       R3,#0x1
        MOV       R2,#0x13
        MOV       R1,#0x64
        LCALL     `??MT_BuildAndSendZToolResponse::?relay`; Banked call to: MT_BuildAndSendZToolResponse
//  243       break;
        SJMP      ??MT_AfCommandProcessing_7
//  244 
//  245     default:
//  246       status = MT_RPC_ERR_COMMAND_ID;
??MT_AfCommandProcessing_6:
        MOV       R6,#0x2
//  247       break;
//  248   }
//  249 
//  250   return status;
??MT_AfCommandProcessing_7:
        MOV       A,R6
        MOV       R1,A
        MOV       A,#0x3
        LCALL     ?DEALLOC_XSTACK8
          CFI CFA_XSP16 add(XSP16, 9)
        LJMP      ?Subroutine0 & 0xFFFF
//  251 }
          CFI EndBlock cfiBlock5
//  252 
//  253 /***************************************************************************************************
//  254  * @fn      MT_AfRegister
//  255  *
//  256  * @brief   Process AF Register command
//  257  *
//  258  * @param   pBuf - pointer to the received buffer
//  259  *
//  260  * @return  none
//  261  ***************************************************************************************************/

        RSEG BANKED_CODE:HUGECODE:NOROOT(0)
//  262 void MT_AfRegister(uint8 *pBuf)
MT_AfRegister:
          CFI Block cfiBlock6 Using cfiCommon0
          CFI Function MT_AfRegister
        CODE
//  263 {
        FUNCALL MT_AfRegister, osal_mem_alloc
        LOCFRAME ISTACK, 0, STACK
        LOCFRAME PSTACK, 0, STACK
        LOCFRAME XSTACK, 15, STACK
        LOCFRAME IOVERLAY, 0, STATIC
        LOCFRAME DOVERLAY, 0, STATIC
        ARGFRAME ISTACK, 0, STACK
        ARGFRAME PSTACK, 0, STACK
        ARGFRAME XSTACK, 15, STACK
        ARGFRAME IOVERLAY, 0, STATIC
        ARGFRAME DOVERLAY, 0, STATIC
        FUNCALL MT_AfRegister, MT_BuildEndpointDesc
        LOCFRAME ISTACK, 0, STACK
        LOCFRAME PSTACK, 0, STACK
        LOCFRAME XSTACK, 15, STACK
        LOCFRAME IOVERLAY, 0, STATIC
        LOCFRAME DOVERLAY, 0, STATIC
        ARGFRAME ISTACK, 0, STACK
        ARGFRAME PSTACK, 0, STACK
        ARGFRAME XSTACK, 15, STACK
        ARGFRAME IOVERLAY, 0, STATIC
        ARGFRAME DOVERLAY, 0, STATIC
        FUNCALL MT_AfRegister, afRegister
        LOCFRAME ISTACK, 0, STACK
        LOCFRAME PSTACK, 0, STACK
        LOCFRAME XSTACK, 15, STACK
        LOCFRAME IOVERLAY, 0, STATIC
        LOCFRAME DOVERLAY, 0, STATIC
        ARGFRAME ISTACK, 0, STACK
        ARGFRAME PSTACK, 0, STACK
        ARGFRAME XSTACK, 15, STACK
        ARGFRAME IOVERLAY, 0, STATIC
        ARGFRAME DOVERLAY, 0, STATIC
        FUNCALL MT_AfRegister, osal_mem_free
        LOCFRAME ISTACK, 0, STACK
        LOCFRAME PSTACK, 0, STACK
        LOCFRAME XSTACK, 15, STACK
        LOCFRAME IOVERLAY, 0, STATIC
        LOCFRAME DOVERLAY, 0, STATIC
        ARGFRAME ISTACK, 0, STACK
        ARGFRAME PSTACK, 0, STACK
        ARGFRAME XSTACK, 15, STACK
        ARGFRAME IOVERLAY, 0, STATIC
        ARGFRAME DOVERLAY, 0, STATIC
        FUNCALL MT_AfRegister, MT_BuildAndSendZToolResponse
        LOCFRAME ISTACK, 0, STACK
        LOCFRAME PSTACK, 0, STACK
        LOCFRAME XSTACK, 15, STACK
        LOCFRAME IOVERLAY, 0, STATIC
        LOCFRAME DOVERLAY, 0, STATIC
        ARGFRAME ISTACK, 0, STACK
        ARGFRAME PSTACK, 0, STACK
        ARGFRAME XSTACK, 15, STACK
        ARGFRAME IOVERLAY, 0, STATIC
        ARGFRAME DOVERLAY, 0, STATIC
        REQUIRE ?V0
        REQUIRE ?V1
        REQUIRE ?V2
        REQUIRE ?V4
        REQUIRE ?V5
        MOV       A,#-0xe
        LCALL     ?BANKED_ENTER_XDATA
          CFI DPH0 load(1, XDATA, add(CFA_XSP16, literal(-1)))
          CFI DPL0 load(1, XDATA, add(CFA_XSP16, literal(-2)))
          CFI ?BRET_EXT load(1, XDATA, add(CFA_XSP16, literal(-3)))
          CFI ?RET_HIGH load(1, XDATA, add(CFA_XSP16, literal(-4)))
          CFI ?RET_LOW load(1, XDATA, add(CFA_XSP16, literal(-5)))
          CFI R7 load(1, XDATA, add(CFA_XSP16, literal(-6)))
          CFI V5 load(1, XDATA, add(CFA_XSP16, literal(-7)))
          CFI V4 load(1, XDATA, add(CFA_XSP16, literal(-8)))
          CFI V3 load(1, XDATA, add(CFA_XSP16, literal(-9)))
          CFI V2 load(1, XDATA, add(CFA_XSP16, literal(-10)))
          CFI V1 load(1, XDATA, add(CFA_XSP16, literal(-11)))
          CFI V0 load(1, XDATA, add(CFA_XSP16, literal(-12)))
          CFI VB load(1, XDATA, add(CFA_XSP16, literal(-13)))
          CFI R6 load(1, XDATA, add(CFA_XSP16, literal(-14)))
          CFI CFA_SP SP+0
          CFI CFA_XSP16 add(XSP16, 14)
        ; Saved register size: 14
        ; Auto size: 1
        MOV       A,#-0x1
        LCALL     ?ALLOC_XSTACK8
          CFI CFA_XSP16 add(XSP16, 15)
        MOV       A,R2
        MOV       R6,A
        MOV       A,R3
        MOV       R7,A
//  264   uint8 cmdId;
//  265   uint8 retValue = ZMemError;
        MOV       DPL,?XSP + 0
        MOV       DPH,?XSP + 1
        MOV       A,#0x10
        LCALL     ?Subroutine33 & 0xFFFF
//  266   endPointDesc_t *epDesc;
//  267 
//  268   /* parse header */
//  269   cmdId = pBuf[MT_RPC_POS_CMD1];
??CrossCallReturnLabel_49:
        INC       DPTR
        MOVX      A,@DPTR
        MOV       ?V2,A
//  270   pBuf += MT_RPC_FRAME_HDR_SZ;
//  271 
//  272   epDesc = (endPointDesc_t *)osal_mem_alloc(sizeof(endPointDesc_t));
        ; Setup parameters for call to function osal_mem_alloc
        MOV       R2,#0x6
        MOV       R3,#0x0
        LCALL     ?Subroutine35 & 0xFFFF
//  273   if ( epDesc )
??CrossCallReturnLabel_52:
        JZ        ??MT_AfRegister_0
//  274   {
//  275     epDesc->task_id = &MT_TaskID;
        MOV       DPL,R2
        MOV       DPH,R3
        INC       DPTR
        MOV       A,#MT_TaskID & 0xff
        MOVX      @DPTR,A
        INC       DPTR
        MOV       A,#(MT_TaskID >> 8) & 0xff
        MOVX      @DPTR,A
//  276     retValue = MT_BuildEndpointDesc( pBuf, epDesc );
        ; Setup parameters for call to function MT_BuildEndpointDesc
        MOV       R4,?V0
        MOV       R5,?V1
        MOV       A,R6
        ADD       A,#0x3
        MOV       R2,A
        CLR       A
        ADDC      A,R7
        MOV       R3,A
        LCALL     `??MT_BuildEndpointDesc::?relay`; Banked call to: MT_BuildEndpointDesc
        MOV       A,R1
        MOV       DPL,?XSP + 0
        MOV       DPH,?XSP + 1
        MOVX      @DPTR,A
//  277     if ( retValue == ZSuccess )
        JNZ       ??MT_AfRegister_1
//  278     {
//  279       retValue = afRegister( epDesc );
        ; Setup parameters for call to function afRegister
        MOV       R2,?V0
        MOV       R3,?V1
        LCALL     `??afRegister::?relay`; Banked call to: afRegister
        MOV       A,R1
        MOV       DPL,?XSP + 0
        MOV       DPH,?XSP + 1
        MOVX      @DPTR,A
//  280     }
//  281 
//  282     if ( retValue != ZSuccess )
??MT_AfRegister_1:
        MOVX      A,@DPTR
        JZ        ??MT_AfRegister_0
//  283     {
//  284       osal_mem_free( epDesc );
        ; Setup parameters for call to function osal_mem_free
        MOV       R2,?V0
        MOV       R3,?V1
        LCALL     `??osal_mem_free::?relay`; Banked call to: osal_mem_free
//  285     }
//  286   }
//  287 
//  288   /* Build and send back the response */
//  289   MT_BuildAndSendZToolResponse(((uint8)MT_RPC_CMD_SRSP | (uint8)MT_RPC_SYS_AF), cmdId, 1, &retValue);
??MT_AfRegister_0:
        ; Setup parameters for call to function MT_BuildAndSendZToolResponse
        MOV       R4,?XSP + 0
        MOV       R5,?XSP + 1
        MOV       R3,#0x1
        MOV       R2,?V2
        MOV       R1,#0x64
        LCALL     `??MT_BuildAndSendZToolResponse::?relay`; Banked call to: MT_BuildAndSendZToolResponse
//  290 }
        MOV       A,#0x1
        LCALL     ?DEALLOC_XSTACK8
          CFI CFA_XSP16 add(XSP16, 14)
        MOV       R7,#0x6
        LJMP      ?BANKED_LEAVE_XDATA
          CFI EndBlock cfiBlock6
//  291 
//  292 /***************************************************************************************************
//  293  * @fn      MT_AfDataRequest
//  294  *
//  295  * @brief   Process AF Register command
//  296  *
//  297  * @param   pBuf - pointer to the received buffer
//  298  *
//  299  * @return  none
//  300  ***************************************************************************************************/

        RSEG BANKED_CODE:HUGECODE:NOROOT(0)
//  301 void MT_AfDataRequest(uint8 *pBuf)
MT_AfDataRequest:
          CFI Block cfiBlock7 Using cfiCommon0
          CFI Function MT_AfDataRequest
        CODE
//  302 {
        FUNCALL MT_AfDataRequest, osal_memcpy
        LOCFRAME ISTACK, 0, STACK
        LOCFRAME PSTACK, 0, STACK
        LOCFRAME XSTACK, 38, STACK
        LOCFRAME IOVERLAY, 0, STATIC
        LOCFRAME DOVERLAY, 0, STATIC
        ARGFRAME ISTACK, 0, STACK
        ARGFRAME PSTACK, 0, STACK
        ARGFRAME XSTACK, 38, STACK
        ARGFRAME IOVERLAY, 0, STATIC
        ARGFRAME DOVERLAY, 0, STATIC
        FUNCALL MT_AfDataRequest, afFindEndPointDesc
        LOCFRAME ISTACK, 0, STACK
        LOCFRAME PSTACK, 0, STACK
        LOCFRAME XSTACK, 35, STACK
        LOCFRAME IOVERLAY, 0, STATIC
        LOCFRAME DOVERLAY, 0, STATIC
        ARGFRAME ISTACK, 0, STACK
        ARGFRAME PSTACK, 0, STACK
        ARGFRAME XSTACK, 35, STACK
        ARGFRAME IOVERLAY, 0, STATIC
        ARGFRAME DOVERLAY, 0, STATIC
        FUNCALL MT_AfDataRequest, osal_mem_alloc
        LOCFRAME ISTACK, 0, STACK
        LOCFRAME PSTACK, 0, STACK
        LOCFRAME XSTACK, 35, STACK
        LOCFRAME IOVERLAY, 0, STATIC
        LOCFRAME DOVERLAY, 0, STATIC
        ARGFRAME ISTACK, 0, STACK
        ARGFRAME PSTACK, 0, STACK
        ARGFRAME XSTACK, 35, STACK
        ARGFRAME IOVERLAY, 0, STATIC
        ARGFRAME DOVERLAY, 0, STATIC
        FUNCALL MT_AfDataRequest, osal_memcpy
        LOCFRAME ISTACK, 0, STACK
        LOCFRAME PSTACK, 0, STACK
        LOCFRAME XSTACK, 38, STACK
        LOCFRAME IOVERLAY, 0, STATIC
        LOCFRAME DOVERLAY, 0, STATIC
        ARGFRAME ISTACK, 0, STACK
        ARGFRAME PSTACK, 0, STACK
        ARGFRAME XSTACK, 38, STACK
        ARGFRAME IOVERLAY, 0, STATIC
        ARGFRAME DOVERLAY, 0, STATIC
        FUNCALL MT_AfDataRequest, osal_start_timerEx
        LOCFRAME ISTACK, 0, STACK
        LOCFRAME PSTACK, 0, STACK
        LOCFRAME XSTACK, 35, STACK
        LOCFRAME IOVERLAY, 0, STATIC
        LOCFRAME DOVERLAY, 0, STATIC
        ARGFRAME ISTACK, 0, STACK
        ARGFRAME PSTACK, 0, STACK
        ARGFRAME XSTACK, 35, STACK
        ARGFRAME IOVERLAY, 0, STATIC
        ARGFRAME DOVERLAY, 0, STATIC
        FUNCALL MT_AfDataRequest, osal_set_event
        LOCFRAME ISTACK, 0, STACK
        LOCFRAME PSTACK, 0, STACK
        LOCFRAME XSTACK, 35, STACK
        LOCFRAME IOVERLAY, 0, STATIC
        LOCFRAME DOVERLAY, 0, STATIC
        ARGFRAME ISTACK, 0, STACK
        ARGFRAME PSTACK, 0, STACK
        ARGFRAME XSTACK, 35, STACK
        ARGFRAME IOVERLAY, 0, STATIC
        ARGFRAME DOVERLAY, 0, STATIC
        FUNCALL MT_AfDataRequest, AF_DataRequest
        LOCFRAME ISTACK, 0, STACK
        LOCFRAME PSTACK, 0, STACK
        LOCFRAME XSTACK, 44, STACK
        LOCFRAME IOVERLAY, 0, STATIC
        LOCFRAME DOVERLAY, 0, STATIC
        ARGFRAME ISTACK, 0, STACK
        ARGFRAME PSTACK, 0, STACK
        ARGFRAME XSTACK, 44, STACK
        ARGFRAME IOVERLAY, 0, STATIC
        ARGFRAME DOVERLAY, 0, STATIC
        FUNCALL MT_AfDataRequest, MT_BuildAndSendZToolResponse
        LOCFRAME ISTACK, 0, STACK
        LOCFRAME PSTACK, 0, STACK
        LOCFRAME XSTACK, 35, STACK
        LOCFRAME IOVERLAY, 0, STATIC
        LOCFRAME DOVERLAY, 0, STATIC
        ARGFRAME ISTACK, 0, STACK
        ARGFRAME PSTACK, 0, STACK
        ARGFRAME XSTACK, 35, STACK
        ARGFRAME IOVERLAY, 0, STATIC
        ARGFRAME DOVERLAY, 0, STATIC
        REQUIRE ?V0
        REQUIRE ?V1
        REQUIRE ?V2
        REQUIRE ?V3
        REQUIRE ?V4
        REQUIRE ?V5
        REQUIRE ?V6
        REQUIRE ?V7
        REQUIRE ?V8
        REQUIRE ?V9
        REQUIRE ?V10
        REQUIRE ?V11
        MOV       A,#-0x14
        LCALL     ?BANKED_ENTER_XDATA
          CFI DPH0 load(1, XDATA, add(CFA_XSP16, literal(-1)))
          CFI DPL0 load(1, XDATA, add(CFA_XSP16, literal(-2)))
          CFI ?BRET_EXT load(1, XDATA, add(CFA_XSP16, literal(-3)))
          CFI ?RET_HIGH load(1, XDATA, add(CFA_XSP16, literal(-4)))
          CFI ?RET_LOW load(1, XDATA, add(CFA_XSP16, literal(-5)))
          CFI R7 load(1, XDATA, add(CFA_XSP16, literal(-6)))
          CFI V11 load(1, XDATA, add(CFA_XSP16, literal(-7)))
          CFI V10 load(1, XDATA, add(CFA_XSP16, literal(-8)))
          CFI V9 load(1, XDATA, add(CFA_XSP16, literal(-9)))
          CFI V8 load(1, XDATA, add(CFA_XSP16, literal(-10)))
          CFI V7 load(1, XDATA, add(CFA_XSP16, literal(-11)))
          CFI V6 load(1, XDATA, add(CFA_XSP16, literal(-12)))
          CFI V5 load(1, XDATA, add(CFA_XSP16, literal(-13)))
          CFI V4 load(1, XDATA, add(CFA_XSP16, literal(-14)))
          CFI V3 load(1, XDATA, add(CFA_XSP16, literal(-15)))
          CFI V2 load(1, XDATA, add(CFA_XSP16, literal(-16)))
          CFI V1 load(1, XDATA, add(CFA_XSP16, literal(-17)))
          CFI V0 load(1, XDATA, add(CFA_XSP16, literal(-18)))
          CFI VB load(1, XDATA, add(CFA_XSP16, literal(-19)))
          CFI R6 load(1, XDATA, add(CFA_XSP16, literal(-20)))
          CFI CFA_SP SP+0
          CFI CFA_XSP16 add(XSP16, 20)
        ; Saved register size: 20
        ; Auto size: 15
        MOV       A,#-0xf
        LCALL     ?ALLOC_XSTACK8
          CFI CFA_XSP16 add(XSP16, 35)
        MOV       ?V3,R3
//  303   #define MT_AF_REQ_MSG_LEN  10
//  304   #define MT_AF_REQ_MSG_EXT  10
//  305 
//  306   endPointDesc_t *epDesc;
//  307   afAddrType_t dstAddr;
//  308   cId_t cId;
//  309   uint8 transId, txOpts, radius;
//  310   uint8 cmd0, cmd1;
//  311   uint8 retValue = ZFailure;
        MOV       DPL,?XSP + 0
        MOV       DPH,?XSP + 1
        MOV       A,#0x1
        LCALL     ?Subroutine33 & 0xFFFF
//  312   uint16 dataLen, tempLen;
//  313 
//  314   /* Parse header */
//  315   cmd0 = pBuf[MT_RPC_POS_CMD0];
??CrossCallReturnLabel_50:
        MOVX      A,@DPTR
        PUSH      A
          CFI CFA_SP SP+-1
        MOV       A,#0x2
        LCALL     ?XSTACK_DISP0_8
        POP       A
          CFI CFA_SP SP+0
        LCALL     ?Subroutine25 & 0xFFFF
//  316   cmd1 = pBuf[MT_RPC_POS_CMD1];
//  317   pBuf += MT_RPC_FRAME_HDR_SZ;
??CrossCallReturnLabel_36:
        MOV       ?V2,A
        JNC       ??MT_AfDataRequest_0
        INC       ?V3
//  318 
//  319   if (cmd1 == MT_AF_DATA_REQUEST_EXT)
??MT_AfDataRequest_0:
        MOV       A,#0x2
        XRL       A,?V9
        JZ        $+5
        LJMP      ??MT_AfDataRequest_1 & 0xFFFF
//  320   {
//  321     dstAddr.addrMode = (afAddrMode_t)*pBuf++;
        MOV       DPL,?V2
        MOV       DPH,?V3
        MOVX      A,@DPTR
        MOV       R0,A
        MOV       A,#0xb
        LCALL     ?XSTACK_DISP0_8
        MOV       A,R0
        LCALL     ?Subroutine46 & 0xFFFF
??CrossCallReturnLabel_74:
        MOV       ?V2,DPL
        MOV       ?V3,DPH
//  322 
//  323     if (dstAddr.addrMode == afAddr64Bit)
        MOV       A,#0x3
        XRL       A,R0
        JNZ       ??MT_AfDataRequest_2
//  324     {
//  325       (void)osal_memcpy(dstAddr.addr.extAddr, pBuf, Z_EXTADDR_LEN);
        ; Setup parameters for call to function osal_memcpy
        MOV       ?V4,?V2
        MOV       ?V5,?V3
        MOV       ?V6,#0x0
        MOV       R0,#?V4
        LCALL     ?PUSH_XSTACK_I_THREE
          CFI CFA_XSP16 add(XSP16, 38)
        MOV       R4,#0x8
        MOV       R5,#0x0
        MOV       A,#0x6
        LCALL     ?XSTACK_DISP101_8
        LCALL     ??Subroutine61_0 & 0xFFFF
//  326     }
??CrossCallReturnLabel_129:
        LCALL     ?DEALLOC_XSTACK8
          CFI CFA_XSP16 add(XSP16, 35)
        SJMP      ??CrossCallReturnLabel_102
//  327     else
//  328     {
//  329       dstAddr.addr.shortAddr = BUILD_UINT16(pBuf[0], pBuf[1]);
??MT_AfDataRequest_2:
        LCALL     ??Subroutine56_0 & 0xFFFF
//  330     }
??CrossCallReturnLabel_98:
        MOV       A,#0x3
        LCALL     ?XSTACK_DISP0_8
        MOV       A,R2
        LCALL     ??Subroutine57_0 & 0xFFFF
//  331     pBuf += Z_EXTADDR_LEN;
//  332 
//  333     dstAddr.endPoint = *pBuf++;
??CrossCallReturnLabel_102:
        MOV       DPL,?V2
        MOV       DPH,?V3
        INC       DPTR
        INC       DPTR
        INC       DPTR
        INC       DPTR
        INC       DPTR
        INC       DPTR
        INC       DPTR
        INC       DPTR
        MOVX      A,@DPTR
        PUSH      A
          CFI CFA_SP SP+-1
        MOV       A,#0xc
        LCALL     ?XSTACK_DISP0_8
        POP       A
          CFI CFA_SP SP+0
        MOVX      @DPTR,A
        MOV       A,?V2
        ADD       A,#0x9
        MOV       ?V2,A
        JNC       ??MT_AfDataRequest_3
        INC       ?V3
//  334     dstAddr.panId = BUILD_UINT16(pBuf[0], pBuf[1]);
??MT_AfDataRequest_3:
        MOV       DPL,A
        LCALL     ?Subroutine16 & 0xFFFF
??CrossCallReturnLabel_100:
        MOV       A,#0xd
        LCALL     ?XSTACK_DISP0_8
        MOV       A,R2
        LCALL     ??Subroutine57_0 & 0xFFFF
//  335     pBuf += 2;
??CrossCallReturnLabel_103:
        MOV       A,?V2
        ADD       A,#0x2
        MOV       ?V2,A
        JNC       ??MT_AfDataRequest_4
        INC       ?V3
        SJMP      ??MT_AfDataRequest_4
//  336   }
//  337   else
//  338   {
//  339     /* Destination address */
//  340     dstAddr.addrMode = afAddr16Bit;
??MT_AfDataRequest_1:
        MOV       A,#0xb
        LCALL     ?XSTACK_DISP0_8
        MOV       A,#0x2
        MOVX      @DPTR,A
//  341     dstAddr.addr.shortAddr = BUILD_UINT16(pBuf[0], pBuf[1]);
        MOV       DPL,?V2
        LCALL     ?Subroutine16 & 0xFFFF
??CrossCallReturnLabel_101:
        MOV       A,#0x3
        LCALL     ?XSTACK_DISP0_8
        MOV       A,R2
        MOVX      @DPTR,A
        INC       DPTR
        MOV       A,R1
        LCALL     ?Subroutine28 & 0xFFFF
//  342     pBuf += 2;
//  343 
//  344     /* Destination endpoint */
//  345     dstAddr.endPoint = *pBuf++;
??CrossCallReturnLabel_41:
        MOVX      A,@DPTR
        PUSH      A
          CFI CFA_SP SP+-1
        MOV       A,#0xc
        LCALL     ?XSTACK_DISP0_8
        POP       A
          CFI CFA_SP SP+0
        MOVX      @DPTR,A
        MOV       A,?V2
        ADD       A,#0x3
        MOV       ?V2,A
        JNC       ??MT_AfDataRequest_5
        INC       ?V3
//  346     dstAddr.panId = 0;
??MT_AfDataRequest_5:
        MOV       A,#0xd
        LCALL     ?XSTACK_DISP0_8
        CLR       A
        MOVX      @DPTR,A
        INC       DPTR
        MOVX      @DPTR,A
//  347   }
//  348 
//  349   /* Source endpoint */
//  350   epDesc = afFindEndPointDesc(*pBuf++);
??MT_AfDataRequest_4:
        ; Setup parameters for call to function afFindEndPointDesc
        MOV       DPL,?V2
        MOV       DPH,?V3
        MOVX      A,@DPTR
        MOV       R1,A
        LCALL     `??afFindEndPointDesc::?relay`; Banked call to: afFindEndPointDesc
        MOV       ?V10,R2
        MOV       ?V11,R3
        MOV       DPL,?V2
        MOV       DPH,?V3
        INC       DPTR
        MOV       ?V2,DPL
        MOV       ?V3,DPH
//  351 
//  352   /* ClusterId */
//  353   cId = BUILD_UINT16(pBuf[0], pBuf[1]);
        LCALL     ?Subroutine14 & 0xFFFF
??CrossCallReturnLabel_17:
        MOV       ?V0,A
        CLR       A
        ADDC      A,R1
        MOV       ?V1,A
//  354   pBuf +=2;
//  355 
//  356   /* TransId */
//  357   transId = *pBuf++;
        MOV       DPL,?V2
        MOV       DPH,?V3
        INC       DPTR
        INC       DPTR
        MOVX      A,@DPTR
        PUSH      A
          CFI CFA_SP SP+-1
        MOV       A,#0x1
        LCALL     ?XSTACK_DISP0_8
        POP       A
          CFI CFA_SP SP+0
        LCALL     ?Subroutine28 & 0xFFFF
//  358 
//  359   /* TxOption */
//  360   txOpts = *pBuf++;
??CrossCallReturnLabel_42:
        INC       DPTR
        MOVX      A,@DPTR
        MOV       ?V8,A
//  361 
//  362   /* Radius */
//  363   radius = *pBuf++;
        MOV       DPL,?V2
        MOV       DPH,?V3
        INC       DPTR
        INC       DPTR
        INC       DPTR
        INC       DPTR
        MOVX      A,@DPTR
        MOV       ?V7,A
        MOV       A,?V2
        ADD       A,#0x5
        MOV       ?V2,A
        JNC       ??MT_AfDataRequest_6
        INC       ?V3
//  364 
//  365   /* Length */
//  366   if (cmd1 == MT_AF_DATA_REQUEST_EXT)
??MT_AfDataRequest_6:
        MOV       A,#0x2
        XRL       A,?V9
        MOV       DPL,?V2
        MOV       DPH,?V3
        JNZ       ??MT_AfDataRequest_7
//  367   {
//  368     dataLen = BUILD_UINT16(pBuf[0], pBuf[1]);
        LCALL     ?Subroutine14 & 0xFFFF
??CrossCallReturnLabel_18:
        MOV       R6,A
        CLR       A
        ADDC      A,R1
        MOV       R7,A
//  369     tempLen = dataLen + MT_AF_REQ_MSG_LEN + MT_AF_REQ_MSG_EXT;
        MOV       A,R2
        ADD       A,#0x14
        MOV       R0,A
        CLR       A
        ADDC      A,R7
        MOV       R1,A
//  370     pBuf += 2;
        MOV       A,?V2
        ADD       A,#0x2
        MOV       ?V2,A
        JNC       ??MT_AfDataRequest_8
        INC       ?V3
        SJMP      ??MT_AfDataRequest_8
//  371   }
//  372   else
//  373   {
//  374     dataLen = *pBuf++;
??MT_AfDataRequest_7:
        MOVX      A,@DPTR
        MOV       R6,A
        MOV       R7,#0x0
        INC       DPTR
        MOV       ?V2,DPL
        MOV       ?V3,DPH
//  375     tempLen = dataLen + MT_AF_REQ_MSG_LEN;
        ADD       A,#0xa
        MOV       R0,A
        CLR       A
        ADDC      A,#0x0
        MOV       R1,A
//  376   }
//  377 
//  378   if ( epDesc == NULL )
??MT_AfDataRequest_8:
        MOV       A,?V10
        ORL       A,R3
        JZ        ??MT_AfDataRequest_9
//  379   {
//  380     retValue = afStatus_INVALID_PARAMETER;
//  381   }
//  382   else if (tempLen > (uint16)MT_RPC_DATA_MAX)
        CLR       C
        MOV       A,R0
        SUBB      A,#-0x5
        MOV       A,R1
        SUBB      A,#0x0
        JNC       $+5
        LJMP      ??MT_AfDataRequest_10 & 0xFFFF
//  383   {
//  384     if (pMtAfDataReq != NULL)
        LCALL     ?Subroutine3 & 0xFFFF
??CrossCallReturnLabel_138:
        JZ        ??MT_AfDataRequest_11
//  385     {
//  386       retValue = afStatus_INVALID_PARAMETER;
??MT_AfDataRequest_9:
        MOV       DPL,?XSP + 0
        MOV       DPH,?XSP + 1
        MOV       A,#0x2
        LJMP      ??MT_AfDataRequest_12 & 0xFFFF
//  387     }
//  388     else if ((pMtAfDataReq = osal_mem_alloc(sizeof(mtAfDataReq_t) + dataLen)) == NULL)
??MT_AfDataRequest_11:
        ; Setup parameters for call to function osal_mem_alloc
        MOV       A,R6
        ADD       A,#0x18
        MOV       R2,A
        CLR       A
        ADDC      A,R7
        MOV       R3,A
        LCALL     `??osal_mem_alloc::?relay`; Banked call to: osal_mem_alloc
        MOV       DPTR,#pMtAfDataReq
        MOV       A,R2
        MOVX      @DPTR,A
        INC       DPTR
        MOV       A,R3
        MOVX      @DPTR,A
        MOV       R1,A
        MOV       A,R2
        ORL       A,R1
        MOV       DPL,?XSP + 0
        MOV       DPH,?XSP + 1
        JNZ       ??MT_AfDataRequest_13
//  389     {
//  390       retValue = afStatus_MEM_FAIL;
        MOV       A,#0x10
        LJMP      ??MT_AfDataRequest_12 & 0xFFFF
//  391     }
//  392     else
//  393     {
//  394       retValue = afStatus_SUCCESS;
??MT_AfDataRequest_13:
        CLR       A
        MOVX      @DPTR,A
//  395 
//  396       pMtAfDataReq->data = (uint8 *)(pMtAfDataReq+1);
        MOV       DPTR,#pMtAfDataReq
        MOVX      A,@DPTR
        ADD       A,#0x18
        MOV       R2,A
        INC       DPTR
        MOVX      A,@DPTR
        ADDC      A,#0x0
        MOV       R3,A
        LCALL     ?Subroutine7 & 0xFFFF
??CrossCallReturnLabel_93:
        MOV       A,R2
        MOVX      @DPTR,A
        INC       DPTR
        MOV       A,R3
        MOVX      @DPTR,A
//  397       (void)osal_memcpy(&(pMtAfDataReq->dstAddr), &dstAddr, sizeof(afAddrType_t));
        ; Setup parameters for call to function osal_memcpy
        MOV       A,#0x3
        LCALL     ?XSTACK_DISP100_8
        MOV       ?V4,R0
        MOV       ?V5,R1
        MOV       ?V6,#0x0
        MOV       R0,#?V4
        LCALL     ?PUSH_XSTACK_I_THREE
          CFI CFA_XSP16 add(XSP16, 38)
        MOV       R4,#0xc
        MOV       R5,#0x0
        LCALL     ?Subroutine18 & 0xFFFF
??CrossCallReturnLabel_21:
        LCALL     ??Subroutine61_0 & 0xFFFF
??CrossCallReturnLabel_130:
        LCALL     ?DEALLOC_XSTACK8
          CFI CFA_XSP16 add(XSP16, 35)
//  398       pMtAfDataReq->epDesc = epDesc;
        LCALL     ??Subroutine52_0 & 0xFFFF
??CrossCallReturnLabel_89:
        LCALL     ?Subroutine37 & 0xFFFF
??CrossCallReturnLabel_56:
        MOV       A,?V10
        MOVX      @DPTR,A
        INC       DPTR
        MOV       A,?V11
        LCALL     ?Subroutine13 & 0xFFFF
//  399       pMtAfDataReq->cId = cId;
??CrossCallReturnLabel_84:
        ADD       A,#0x10
        MOV       DPL,A
        CLR       A
        ADDC      A,R0
        MOV       DPH,A
        MOV       A,?V0
        MOVX      @DPTR,A
        INC       DPTR
        MOV       A,?V1
        LCALL     ?Subroutine13 & 0xFFFF
//  400       pMtAfDataReq->dataLen = dataLen;
??CrossCallReturnLabel_85:
        ADD       A,#0x12
        MOV       DPL,A
        CLR       A
        ADDC      A,R0
        MOV       DPH,A
        MOV       A,R6
        MOVX      @DPTR,A
        INC       DPTR
        MOV       A,R7
        MOVX      @DPTR,A
//  401       pMtAfDataReq->transId = transId;
        MOV       A,#0x1
        LCALL     ?XSTACK_DISP0_8
        MOVX      A,@DPTR
        PUSH      A
          CFI CFA_SP SP+-1
        LCALL     ??Subroutine52_0 & 0xFFFF
??CrossCallReturnLabel_90:
        ADD       A,#0x14
        MOV       DPL,A
        CLR       A
        ADDC      A,R0
        MOV       DPH,A
        POP       A
          CFI CFA_SP SP+0
        LCALL     ?Subroutine13 & 0xFFFF
//  402       pMtAfDataReq->txOpts = txOpts;
??CrossCallReturnLabel_86:
        ADD       A,#0x15
        MOV       DPL,A
        CLR       A
        ADDC      A,R0
        MOV       DPH,A
        MOV       A,?V8
        LCALL     ?Subroutine13 & 0xFFFF
//  403       pMtAfDataReq->radius = radius;
??CrossCallReturnLabel_87:
        ADD       A,#0x16
        MOV       DPL,A
        CLR       A
        ADDC      A,R0
        MOV       DPH,A
        MOV       A,?V7
        LCALL     ?Subroutine12 & 0xFFFF
//  404 
//  405       // Setup to time-out the huge outgoing item if host does not MT_AF_DATA_STORE it.
//  406       pMtAfDataReq->tick = MT_AF_EXEC_CNT;
??CrossCallReturnLabel_15:
        LCALL     ?Subroutine17 & 0xFFFF
//  407       if (ZSuccess != osal_start_timerEx(MT_TaskID, MT_AF_EXEC_EVT, MT_AF_EXEC_DLY))
??CrossCallReturnLabel_81:
        JZ        ??MT_AfDataRequest_14
//  408       {
//  409         (void)osal_set_event(MT_TaskID, MT_AF_EXEC_EVT);
        ; Setup parameters for call to function osal_set_event
        LCALL     ?Subroutine21 & 0xFFFF
//  410       }
//  411     }
//  412   }
??CrossCallReturnLabel_28:
        SJMP      ??MT_AfDataRequest_14
//  413   else
//  414   {
//  415     retValue = AF_DataRequest(&dstAddr, epDesc, cId, dataLen, pBuf, &transId, txOpts, radius);
??MT_AfDataRequest_10:
        ; Setup parameters for call to function AF_DataRequest
        MOV       A,?V7
        MOV       ?V4,A
        MOV       R0,#?V4
        LCALL     ?PUSH_XSTACK_I_ONE
          CFI CFA_XSP16 add(XSP16, 36)
        MOV       A,#0x2
        LCALL     ?XSTACK_DISP100_8
        MOV       ?V4,R0
        MOV       ?V5,R1
        MOV       R0,#?V4
        LCALL     ?PUSH_XSTACK_I_TWO
          CFI CFA_XSP16 add(XSP16, 38)
        MOV       R0,#?V2
        LCALL     ?PUSH_XSTACK_I_TWO
          CFI CFA_XSP16 add(XSP16, 40)
        MOV       ?V2,R6
        MOV       ?V3,R7
        MOV       R0,#?V2
        LCALL     ?PUSH_XSTACK_I_TWO
          CFI CFA_XSP16 add(XSP16, 42)
        MOV       R0,#?V0
        LCALL     ?PUSH_XSTACK_I_TWO
          CFI CFA_XSP16 add(XSP16, 44)
        MOV       R1,?V8
        MOV       R4,?V10
        MOV       R5,?V11
        MOV       A,#0xc
        LCALL     ?XSTACK_DISP101_8
        LCALL     `??AF_DataRequest::?relay`; Banked call to: AF_DataRequest
        MOV       A,#0x9
        LCALL     ?DEALLOC_XSTACK8
          CFI CFA_XSP16 add(XSP16, 35)
        MOV       A,R1
        MOV       DPL,?XSP + 0
        MOV       DPH,?XSP + 1
??MT_AfDataRequest_12:
        MOVX      @DPTR,A
//  416   }
//  417 
//  418   if (MT_RPC_CMD_SREQ == (cmd0 & MT_RPC_CMD_TYPE_MASK))
??MT_AfDataRequest_14:
        MOV       A,#0x2
        LCALL     ?XSTACK_DISP0_8
        MOVX      A,@DPTR
        ANL       A,#0xe0
        XRL       A,#0x20
        JNZ       ??MT_AfDataRequest_15
//  419   {
//  420     MT_BuildAndSendZToolResponse(((uint8)MT_RPC_CMD_SRSP|(uint8)MT_RPC_SYS_AF), cmd1, 1, &retValue);
        ; Setup parameters for call to function MT_BuildAndSendZToolResponse
        MOV       R4,?XSP + 0
        MOV       R5,?XSP + 1
        MOV       R3,#0x1
        MOV       R2,?V9
        MOV       R1,#0x64
        LCALL     `??MT_BuildAndSendZToolResponse::?relay`; Banked call to: MT_BuildAndSendZToolResponse
//  421   }
//  422 }
??MT_AfDataRequest_15:
        MOV       A,#0xf
        SJMP      ??Subroutine55_0
          CFI EndBlock cfiBlock7

        RSEG BANKED_CODE:HUGECODE:NOROOT(0)
?Subroutine33:
          CFI Block cfiCond8 Using cfiCommon0
          CFI Function MT_AfRegister
          CFI Conditional ??CrossCallReturnLabel_49
          CFI R6 load(1, XDATA, add(CFA_XSP16, literal(-14)))
          CFI VB load(1, XDATA, add(CFA_XSP16, literal(-13)))
          CFI V0 load(1, XDATA, add(CFA_XSP16, literal(-12)))
          CFI V1 load(1, XDATA, add(CFA_XSP16, literal(-11)))
          CFI V2 load(1, XDATA, add(CFA_XSP16, literal(-10)))
          CFI V3 load(1, XDATA, add(CFA_XSP16, literal(-9)))
          CFI V4 load(1, XDATA, add(CFA_XSP16, literal(-8)))
          CFI V5 load(1, XDATA, add(CFA_XSP16, literal(-7)))
          CFI R7 load(1, XDATA, add(CFA_XSP16, literal(-6)))
          CFI ?RET_LOW load(1, XDATA, add(CFA_XSP16, literal(-5)))
          CFI ?RET_HIGH load(1, XDATA, add(CFA_XSP16, literal(-4)))
          CFI ?BRET_EXT load(1, XDATA, add(CFA_XSP16, literal(-3)))
          CFI DPL0 load(1, XDATA, add(CFA_XSP16, literal(-2)))
          CFI DPH0 load(1, XDATA, add(CFA_XSP16, literal(-1)))
          CFI CFA_SP SP+-2
          CFI CFA_XSP16 add(XSP16, 15)
          CFI Block cfiCond9 Using cfiCommon0
          CFI (cfiCond9) Function MT_AfDataRequest
          CFI (cfiCond9) Conditional ??CrossCallReturnLabel_50
          CFI (cfiCond9) R6 load(1, XDATA, add(CFA_XSP16, literal(-20)))
          CFI (cfiCond9) VB load(1, XDATA, add(CFA_XSP16, literal(-19)))
          CFI (cfiCond9) V0 load(1, XDATA, add(CFA_XSP16, literal(-18)))
          CFI (cfiCond9) V1 load(1, XDATA, add(CFA_XSP16, literal(-17)))
          CFI (cfiCond9) V2 load(1, XDATA, add(CFA_XSP16, literal(-16)))
          CFI (cfiCond9) V3 load(1, XDATA, add(CFA_XSP16, literal(-15)))
          CFI (cfiCond9) V4 load(1, XDATA, add(CFA_XSP16, literal(-14)))
          CFI (cfiCond9) V5 load(1, XDATA, add(CFA_XSP16, literal(-13)))
          CFI (cfiCond9) V6 load(1, XDATA, add(CFA_XSP16, literal(-12)))
          CFI (cfiCond9) V7 load(1, XDATA, add(CFA_XSP16, literal(-11)))
          CFI (cfiCond9) V8 load(1, XDATA, add(CFA_XSP16, literal(-10)))
          CFI (cfiCond9) V9 load(1, XDATA, add(CFA_XSP16, literal(-9)))
          CFI (cfiCond9) V10 load(1, XDATA, add(CFA_XSP16, literal(-8)))
          CFI (cfiCond9) V11 load(1, XDATA, add(CFA_XSP16, literal(-7)))
          CFI (cfiCond9) R7 load(1, XDATA, add(CFA_XSP16, literal(-6)))
          CFI (cfiCond9) ?RET_LOW load(1, XDATA, add(CFA_XSP16, literal(-5)))
          CFI (cfiCond9) ?RET_HIGH load(1, XDATA, add(CFA_XSP16, literal(-4)))
          CFI (cfiCond9) ?BRET_EXT load(1, XDATA, add(CFA_XSP16, literal(-3)))
          CFI (cfiCond9) DPL0 load(1, XDATA, add(CFA_XSP16, literal(-2)))
          CFI (cfiCond9) DPH0 load(1, XDATA, add(CFA_XSP16, literal(-1)))
          CFI (cfiCond9) CFA_SP SP+-2
          CFI (cfiCond9) CFA_XSP16 add(XSP16, 35)
          CFI Block cfiCond10 Using cfiCommon0
          CFI (cfiCond10) Function MT_AfIncomingMsg
          CFI (cfiCond10) Conditional ??CrossCallReturnLabel_51
          CFI (cfiCond10) R6 load(1, XDATA, add(CFA_XSP16, literal(-20)))
          CFI (cfiCond10) VB load(1, XDATA, add(CFA_XSP16, literal(-19)))
          CFI (cfiCond10) V0 load(1, XDATA, add(CFA_XSP16, literal(-18)))
          CFI (cfiCond10) V1 load(1, XDATA, add(CFA_XSP16, literal(-17)))
          CFI (cfiCond10) V2 load(1, XDATA, add(CFA_XSP16, literal(-16)))
          CFI (cfiCond10) V3 load(1, XDATA, add(CFA_XSP16, literal(-15)))
          CFI (cfiCond10) V4 load(1, XDATA, add(CFA_XSP16, literal(-14)))
          CFI (cfiCond10) V5 load(1, XDATA, add(CFA_XSP16, literal(-13)))
          CFI (cfiCond10) V6 load(1, XDATA, add(CFA_XSP16, literal(-12)))
          CFI (cfiCond10) V7 load(1, XDATA, add(CFA_XSP16, literal(-11)))
          CFI (cfiCond10) V8 load(1, XDATA, add(CFA_XSP16, literal(-10)))
          CFI (cfiCond10) V9 load(1, XDATA, add(CFA_XSP16, literal(-9)))
          CFI (cfiCond10) V10 load(1, XDATA, add(CFA_XSP16, literal(-8)))
          CFI (cfiCond10) V11 load(1, XDATA, add(CFA_XSP16, literal(-7)))
          CFI (cfiCond10) R7 load(1, XDATA, add(CFA_XSP16, literal(-6)))
          CFI (cfiCond10) ?RET_LOW load(1, XDATA, add(CFA_XSP16, literal(-5)))
          CFI (cfiCond10) ?RET_HIGH load(1, XDATA, add(CFA_XSP16, literal(-4)))
          CFI (cfiCond10) ?BRET_EXT load(1, XDATA, add(CFA_XSP16, literal(-3)))
          CFI (cfiCond10) DPL0 load(1, XDATA, add(CFA_XSP16, literal(-2)))
          CFI (cfiCond10) DPH0 load(1, XDATA, add(CFA_XSP16, literal(-1)))
          CFI (cfiCond10) CFA_SP SP+-2
          CFI (cfiCond10) CFA_XSP16 add(XSP16, 23)
          CFI Block cfiPicker11 Using cfiCommon1
          CFI (cfiPicker11) NoFunction
          CFI (cfiPicker11) Picker
        LCALL     ?Subroutine45 & 0xFFFF
??CrossCallReturnLabel_70:
        RET
          CFI EndBlock cfiCond8
          CFI EndBlock cfiCond9
          CFI EndBlock cfiCond10
          CFI EndBlock cfiPicker11

        RSEG BANKED_CODE:HUGECODE:NOROOT(0)
?Subroutine45:
          CFI Block cfiCond12 Using cfiCommon0
          CFI Function MT_AfRegister
          CFI Conditional ??CrossCallReturnLabel_70, ??CrossCallReturnLabel_49
          CFI R6 load(1, XDATA, add(CFA_XSP16, literal(-14)))
          CFI VB load(1, XDATA, add(CFA_XSP16, literal(-13)))
          CFI V0 load(1, XDATA, add(CFA_XSP16, literal(-12)))
          CFI V1 load(1, XDATA, add(CFA_XSP16, literal(-11)))
          CFI V2 load(1, XDATA, add(CFA_XSP16, literal(-10)))
          CFI V3 load(1, XDATA, add(CFA_XSP16, literal(-9)))
          CFI V4 load(1, XDATA, add(CFA_XSP16, literal(-8)))
          CFI V5 load(1, XDATA, add(CFA_XSP16, literal(-7)))
          CFI R7 load(1, XDATA, add(CFA_XSP16, literal(-6)))
          CFI ?RET_LOW load(1, XDATA, add(CFA_XSP16, literal(-5)))
          CFI ?RET_HIGH load(1, XDATA, add(CFA_XSP16, literal(-4)))
          CFI ?BRET_EXT load(1, XDATA, add(CFA_XSP16, literal(-3)))
          CFI DPL0 load(1, XDATA, add(CFA_XSP16, literal(-2)))
          CFI DPH0 load(1, XDATA, add(CFA_XSP16, literal(-1)))
          CFI CFA_SP SP+-4
          CFI CFA_XSP16 add(XSP16, 15)
          CFI Block cfiCond13 Using cfiCommon0
          CFI (cfiCond13) Function MT_AfDataRequest
          CFI (cfiCond13) Conditional ??CrossCallReturnLabel_70, ??CrossCallReturnLabel_50
          CFI (cfiCond13) R6 load(1, XDATA, add(CFA_XSP16, literal(-20)))
          CFI (cfiCond13) VB load(1, XDATA, add(CFA_XSP16, literal(-19)))
          CFI (cfiCond13) V0 load(1, XDATA, add(CFA_XSP16, literal(-18)))
          CFI (cfiCond13) V1 load(1, XDATA, add(CFA_XSP16, literal(-17)))
          CFI (cfiCond13) V2 load(1, XDATA, add(CFA_XSP16, literal(-16)))
          CFI (cfiCond13) V3 load(1, XDATA, add(CFA_XSP16, literal(-15)))
          CFI (cfiCond13) V4 load(1, XDATA, add(CFA_XSP16, literal(-14)))
          CFI (cfiCond13) V5 load(1, XDATA, add(CFA_XSP16, literal(-13)))
          CFI (cfiCond13) V6 load(1, XDATA, add(CFA_XSP16, literal(-12)))
          CFI (cfiCond13) V7 load(1, XDATA, add(CFA_XSP16, literal(-11)))
          CFI (cfiCond13) V8 load(1, XDATA, add(CFA_XSP16, literal(-10)))
          CFI (cfiCond13) V9 load(1, XDATA, add(CFA_XSP16, literal(-9)))
          CFI (cfiCond13) V10 load(1, XDATA, add(CFA_XSP16, literal(-8)))
          CFI (cfiCond13) V11 load(1, XDATA, add(CFA_XSP16, literal(-7)))
          CFI (cfiCond13) R7 load(1, XDATA, add(CFA_XSP16, literal(-6)))
          CFI (cfiCond13) ?RET_LOW load(1, XDATA, add(CFA_XSP16, literal(-5)))
          CFI (cfiCond13) ?RET_HIGH load(1, XDATA, add(CFA_XSP16, literal(-4)))
          CFI (cfiCond13) ?BRET_EXT load(1, XDATA, add(CFA_XSP16, literal(-3)))
          CFI (cfiCond13) DPL0 load(1, XDATA, add(CFA_XSP16, literal(-2)))
          CFI (cfiCond13) DPH0 load(1, XDATA, add(CFA_XSP16, literal(-1)))
          CFI (cfiCond13) CFA_SP SP+-4
          CFI (cfiCond13) CFA_XSP16 add(XSP16, 35)
          CFI Block cfiCond14 Using cfiCommon0
          CFI (cfiCond14) Function MT_AfIncomingMsg
          CFI (cfiCond14) Conditional ??CrossCallReturnLabel_70, ??CrossCallReturnLabel_51
          CFI (cfiCond14) R6 load(1, XDATA, add(CFA_XSP16, literal(-20)))
          CFI (cfiCond14) VB load(1, XDATA, add(CFA_XSP16, literal(-19)))
          CFI (cfiCond14) V0 load(1, XDATA, add(CFA_XSP16, literal(-18)))
          CFI (cfiCond14) V1 load(1, XDATA, add(CFA_XSP16, literal(-17)))
          CFI (cfiCond14) V2 load(1, XDATA, add(CFA_XSP16, literal(-16)))
          CFI (cfiCond14) V3 load(1, XDATA, add(CFA_XSP16, literal(-15)))
          CFI (cfiCond14) V4 load(1, XDATA, add(CFA_XSP16, literal(-14)))
          CFI (cfiCond14) V5 load(1, XDATA, add(CFA_XSP16, literal(-13)))
          CFI (cfiCond14) V6 load(1, XDATA, add(CFA_XSP16, literal(-12)))
          CFI (cfiCond14) V7 load(1, XDATA, add(CFA_XSP16, literal(-11)))
          CFI (cfiCond14) V8 load(1, XDATA, add(CFA_XSP16, literal(-10)))
          CFI (cfiCond14) V9 load(1, XDATA, add(CFA_XSP16, literal(-9)))
          CFI (cfiCond14) V10 load(1, XDATA, add(CFA_XSP16, literal(-8)))
          CFI (cfiCond14) V11 load(1, XDATA, add(CFA_XSP16, literal(-7)))
          CFI (cfiCond14) R7 load(1, XDATA, add(CFA_XSP16, literal(-6)))
          CFI (cfiCond14) ?RET_LOW load(1, XDATA, add(CFA_XSP16, literal(-5)))
          CFI (cfiCond14) ?RET_HIGH load(1, XDATA, add(CFA_XSP16, literal(-4)))
          CFI (cfiCond14) ?BRET_EXT load(1, XDATA, add(CFA_XSP16, literal(-3)))
          CFI (cfiCond14) DPL0 load(1, XDATA, add(CFA_XSP16, literal(-2)))
          CFI (cfiCond14) DPH0 load(1, XDATA, add(CFA_XSP16, literal(-1)))
          CFI (cfiCond14) CFA_SP SP+-4
          CFI (cfiCond14) CFA_XSP16 add(XSP16, 23)
          CFI Block cfiCond15 Using cfiCommon0
          CFI (cfiCond15) Function MT_AfDataRequest
          CFI (cfiCond15) Conditional ??CrossCallReturnLabel_71, ??CrossCallReturnLabel_36
          CFI (cfiCond15) R6 load(1, XDATA, add(CFA_XSP16, literal(-20)))
          CFI (cfiCond15) VB load(1, XDATA, add(CFA_XSP16, literal(-19)))
          CFI (cfiCond15) V0 load(1, XDATA, add(CFA_XSP16, literal(-18)))
          CFI (cfiCond15) V1 load(1, XDATA, add(CFA_XSP16, literal(-17)))
          CFI (cfiCond15) V2 load(1, XDATA, add(CFA_XSP16, literal(-16)))
          CFI (cfiCond15) V3 load(1, XDATA, add(CFA_XSP16, literal(-15)))
          CFI (cfiCond15) V4 load(1, XDATA, add(CFA_XSP16, literal(-14)))
          CFI (cfiCond15) V5 load(1, XDATA, add(CFA_XSP16, literal(-13)))
          CFI (cfiCond15) V6 load(1, XDATA, add(CFA_XSP16, literal(-12)))
          CFI (cfiCond15) V7 load(1, XDATA, add(CFA_XSP16, literal(-11)))
          CFI (cfiCond15) V8 load(1, XDATA, add(CFA_XSP16, literal(-10)))
          CFI (cfiCond15) V9 load(1, XDATA, add(CFA_XSP16, literal(-9)))
          CFI (cfiCond15) V10 load(1, XDATA, add(CFA_XSP16, literal(-8)))
          CFI (cfiCond15) V11 load(1, XDATA, add(CFA_XSP16, literal(-7)))
          CFI (cfiCond15) R7 load(1, XDATA, add(CFA_XSP16, literal(-6)))
          CFI (cfiCond15) ?RET_LOW load(1, XDATA, add(CFA_XSP16, literal(-5)))
          CFI (cfiCond15) ?RET_HIGH load(1, XDATA, add(CFA_XSP16, literal(-4)))
          CFI (cfiCond15) ?BRET_EXT load(1, XDATA, add(CFA_XSP16, literal(-3)))
          CFI (cfiCond15) DPL0 load(1, XDATA, add(CFA_XSP16, literal(-2)))
          CFI (cfiCond15) DPH0 load(1, XDATA, add(CFA_XSP16, literal(-1)))
          CFI (cfiCond15) CFA_SP SP+-4
          CFI (cfiCond15) CFA_XSP16 add(XSP16, 35)
          CFI Block cfiCond16 Using cfiCommon0
          CFI (cfiCond16) Function MT_AfDataRequestSrcRtg
          CFI (cfiCond16) Conditional ??CrossCallReturnLabel_71, ??CrossCallReturnLabel_37
          CFI (cfiCond16) R6 load(1, XDATA, add(CFA_XSP16, literal(-20)))
          CFI (cfiCond16) VB load(1, XDATA, add(CFA_XSP16, literal(-19)))
          CFI (cfiCond16) V0 load(1, XDATA, add(CFA_XSP16, literal(-18)))
          CFI (cfiCond16) V1 load(1, XDATA, add(CFA_XSP16, literal(-17)))
          CFI (cfiCond16) V2 load(1, XDATA, add(CFA_XSP16, literal(-16)))
          CFI (cfiCond16) V3 load(1, XDATA, add(CFA_XSP16, literal(-15)))
          CFI (cfiCond16) V4 load(1, XDATA, add(CFA_XSP16, literal(-14)))
          CFI (cfiCond16) V5 load(1, XDATA, add(CFA_XSP16, literal(-13)))
          CFI (cfiCond16) V6 load(1, XDATA, add(CFA_XSP16, literal(-12)))
          CFI (cfiCond16) V7 load(1, XDATA, add(CFA_XSP16, literal(-11)))
          CFI (cfiCond16) V8 load(1, XDATA, add(CFA_XSP16, literal(-10)))
          CFI (cfiCond16) V9 load(1, XDATA, add(CFA_XSP16, literal(-9)))
          CFI (cfiCond16) V10 load(1, XDATA, add(CFA_XSP16, literal(-8)))
          CFI (cfiCond16) V11 load(1, XDATA, add(CFA_XSP16, literal(-7)))
          CFI (cfiCond16) R7 load(1, XDATA, add(CFA_XSP16, literal(-6)))
          CFI (cfiCond16) ?RET_LOW load(1, XDATA, add(CFA_XSP16, literal(-5)))
          CFI (cfiCond16) ?RET_HIGH load(1, XDATA, add(CFA_XSP16, literal(-4)))
          CFI (cfiCond16) ?BRET_EXT load(1, XDATA, add(CFA_XSP16, literal(-3)))
          CFI (cfiCond16) DPL0 load(1, XDATA, add(CFA_XSP16, literal(-2)))
          CFI (cfiCond16) DPH0 load(1, XDATA, add(CFA_XSP16, literal(-1)))
          CFI (cfiCond16) CFA_SP SP+-4
          CFI (cfiCond16) CFA_XSP16 add(XSP16, 34)
          CFI Block cfiCond17 Using cfiCommon0
          CFI (cfiCond17) Function MT_AfCommandProcessing
          CFI (cfiCond17) Conditional ??CrossCallReturnLabel_72, ??CrossCallReturnLabel_47
          CFI (cfiCond17) R6 load(1, XDATA, add(CFA_XSP16, literal(-9)))
          CFI (cfiCond17) VB load(1, XDATA, add(CFA_XSP16, literal(-8)))
          CFI (cfiCond17) V0 load(1, XDATA, add(CFA_XSP16, literal(-7)))
          CFI (cfiCond17) R7 load(1, XDATA, add(CFA_XSP16, literal(-6)))
          CFI (cfiCond17) ?RET_LOW load(1, XDATA, add(CFA_XSP16, literal(-5)))
          CFI (cfiCond17) ?RET_HIGH load(1, XDATA, add(CFA_XSP16, literal(-4)))
          CFI (cfiCond17) ?BRET_EXT load(1, XDATA, add(CFA_XSP16, literal(-3)))
          CFI (cfiCond17) DPL0 load(1, XDATA, add(CFA_XSP16, literal(-2)))
          CFI (cfiCond17) DPH0 load(1, XDATA, add(CFA_XSP16, literal(-1)))
          CFI (cfiCond17) CFA_SP SP+-4
          CFI (cfiCond17) CFA_XSP16 add(XSP16, 12)
          CFI Block cfiCond18 Using cfiCommon0
          CFI (cfiCond18) Function MT_AfDataConfirm
          CFI (cfiCond18) Conditional ??CrossCallReturnLabel_72, ??CrossCallReturnLabel_48
          CFI (cfiCond18) DPL0 Frame(CFA_SP, 4)
          CFI (cfiCond18) DPH0 Frame(CFA_SP, 5)
          CFI (cfiCond18) CFA_SP SP+-9
          CFI (cfiCond18) CFA_XSP16 add(XSP16, 3)
          CFI Block cfiPicker19 Using cfiCommon1
          CFI (cfiPicker19) NoFunction
          CFI (cfiPicker19) Picker
        MOVX      @DPTR,A
        MOV       DPL,R2
        MOV       DPH,R3
        INC       DPTR
        RET
          CFI EndBlock cfiCond12
          CFI EndBlock cfiCond13
          CFI EndBlock cfiCond14
          CFI EndBlock cfiCond15
          CFI EndBlock cfiCond16
          CFI EndBlock cfiCond17
          CFI EndBlock cfiCond18
          CFI EndBlock cfiPicker19

        RSEG BANKED_CODE:HUGECODE:NOROOT(0)
?Subroutine28:
          CFI Block cfiCond20 Using cfiCommon0
          CFI Function MT_AfDataRequest
          CFI Conditional ??CrossCallReturnLabel_41
          CFI R6 load(1, XDATA, add(CFA_XSP16, literal(-20)))
          CFI VB load(1, XDATA, add(CFA_XSP16, literal(-19)))
          CFI V0 load(1, XDATA, add(CFA_XSP16, literal(-18)))
          CFI V1 load(1, XDATA, add(CFA_XSP16, literal(-17)))
          CFI V2 load(1, XDATA, add(CFA_XSP16, literal(-16)))
          CFI V3 load(1, XDATA, add(CFA_XSP16, literal(-15)))
          CFI V4 load(1, XDATA, add(CFA_XSP16, literal(-14)))
          CFI V5 load(1, XDATA, add(CFA_XSP16, literal(-13)))
          CFI V6 load(1, XDATA, add(CFA_XSP16, literal(-12)))
          CFI V7 load(1, XDATA, add(CFA_XSP16, literal(-11)))
          CFI V8 load(1, XDATA, add(CFA_XSP16, literal(-10)))
          CFI V9 load(1, XDATA, add(CFA_XSP16, literal(-9)))
          CFI V10 load(1, XDATA, add(CFA_XSP16, literal(-8)))
          CFI V11 load(1, XDATA, add(CFA_XSP16, literal(-7)))
          CFI R7 load(1, XDATA, add(CFA_XSP16, literal(-6)))
          CFI ?RET_LOW load(1, XDATA, add(CFA_XSP16, literal(-5)))
          CFI ?RET_HIGH load(1, XDATA, add(CFA_XSP16, literal(-4)))
          CFI ?BRET_EXT load(1, XDATA, add(CFA_XSP16, literal(-3)))
          CFI DPL0 load(1, XDATA, add(CFA_XSP16, literal(-2)))
          CFI DPH0 load(1, XDATA, add(CFA_XSP16, literal(-1)))
          CFI CFA_SP SP+-2
          CFI CFA_XSP16 add(XSP16, 35)
          CFI Block cfiCond21 Using cfiCommon0
          CFI (cfiCond21) Function MT_AfDataRequest
          CFI (cfiCond21) Conditional ??CrossCallReturnLabel_42
          CFI (cfiCond21) R6 load(1, XDATA, add(CFA_XSP16, literal(-20)))
          CFI (cfiCond21) VB load(1, XDATA, add(CFA_XSP16, literal(-19)))
          CFI (cfiCond21) V0 load(1, XDATA, add(CFA_XSP16, literal(-18)))
          CFI (cfiCond21) V1 load(1, XDATA, add(CFA_XSP16, literal(-17)))
          CFI (cfiCond21) V2 load(1, XDATA, add(CFA_XSP16, literal(-16)))
          CFI (cfiCond21) V3 load(1, XDATA, add(CFA_XSP16, literal(-15)))
          CFI (cfiCond21) V4 load(1, XDATA, add(CFA_XSP16, literal(-14)))
          CFI (cfiCond21) V5 load(1, XDATA, add(CFA_XSP16, literal(-13)))
          CFI (cfiCond21) V6 load(1, XDATA, add(CFA_XSP16, literal(-12)))
          CFI (cfiCond21) V7 load(1, XDATA, add(CFA_XSP16, literal(-11)))
          CFI (cfiCond21) V8 load(1, XDATA, add(CFA_XSP16, literal(-10)))
          CFI (cfiCond21) V9 load(1, XDATA, add(CFA_XSP16, literal(-9)))
          CFI (cfiCond21) V10 load(1, XDATA, add(CFA_XSP16, literal(-8)))
          CFI (cfiCond21) V11 load(1, XDATA, add(CFA_XSP16, literal(-7)))
          CFI (cfiCond21) R7 load(1, XDATA, add(CFA_XSP16, literal(-6)))
          CFI (cfiCond21) ?RET_LOW load(1, XDATA, add(CFA_XSP16, literal(-5)))
          CFI (cfiCond21) ?RET_HIGH load(1, XDATA, add(CFA_XSP16, literal(-4)))
          CFI (cfiCond21) ?BRET_EXT load(1, XDATA, add(CFA_XSP16, literal(-3)))
          CFI (cfiCond21) DPL0 load(1, XDATA, add(CFA_XSP16, literal(-2)))
          CFI (cfiCond21) DPH0 load(1, XDATA, add(CFA_XSP16, literal(-1)))
          CFI (cfiCond21) CFA_SP SP+-2
          CFI (cfiCond21) CFA_XSP16 add(XSP16, 35)
          CFI Block cfiPicker22 Using cfiCommon1
          CFI (cfiPicker22) NoFunction
          CFI (cfiPicker22) Picker
        LCALL     ?Subroutine46 & 0xFFFF
??CrossCallReturnLabel_73:
        INC       DPTR
        RET
          CFI EndBlock cfiCond20
          CFI EndBlock cfiCond21
          CFI EndBlock cfiPicker22

        RSEG BANKED_CODE:HUGECODE:NOROOT(0)
?Subroutine46:
          CFI Block cfiCond23 Using cfiCommon0
          CFI Function MT_AfDataRequest
          CFI Conditional ??CrossCallReturnLabel_74
          CFI R6 load(1, XDATA, add(CFA_XSP16, literal(-20)))
          CFI VB load(1, XDATA, add(CFA_XSP16, literal(-19)))
          CFI V0 load(1, XDATA, add(CFA_XSP16, literal(-18)))
          CFI V1 load(1, XDATA, add(CFA_XSP16, literal(-17)))
          CFI V2 load(1, XDATA, add(CFA_XSP16, literal(-16)))
          CFI V3 load(1, XDATA, add(CFA_XSP16, literal(-15)))
          CFI V4 load(1, XDATA, add(CFA_XSP16, literal(-14)))
          CFI V5 load(1, XDATA, add(CFA_XSP16, literal(-13)))
          CFI V6 load(1, XDATA, add(CFA_XSP16, literal(-12)))
          CFI V7 load(1, XDATA, add(CFA_XSP16, literal(-11)))
          CFI V8 load(1, XDATA, add(CFA_XSP16, literal(-10)))
          CFI V9 load(1, XDATA, add(CFA_XSP16, literal(-9)))
          CFI V10 load(1, XDATA, add(CFA_XSP16, literal(-8)))
          CFI V11 load(1, XDATA, add(CFA_XSP16, literal(-7)))
          CFI R7 load(1, XDATA, add(CFA_XSP16, literal(-6)))
          CFI ?RET_LOW load(1, XDATA, add(CFA_XSP16, literal(-5)))
          CFI ?RET_HIGH load(1, XDATA, add(CFA_XSP16, literal(-4)))
          CFI ?BRET_EXT load(1, XDATA, add(CFA_XSP16, literal(-3)))
          CFI DPL0 load(1, XDATA, add(CFA_XSP16, literal(-2)))
          CFI DPH0 load(1, XDATA, add(CFA_XSP16, literal(-1)))
          CFI CFA_SP SP+-2
          CFI CFA_XSP16 add(XSP16, 35)
          CFI Block cfiCond24 Using cfiCommon0
          CFI (cfiCond24) Function MT_AfDataRequest
          CFI (cfiCond24) Conditional ??CrossCallReturnLabel_73, ??CrossCallReturnLabel_41
          CFI (cfiCond24) R6 load(1, XDATA, add(CFA_XSP16, literal(-20)))
          CFI (cfiCond24) VB load(1, XDATA, add(CFA_XSP16, literal(-19)))
          CFI (cfiCond24) V0 load(1, XDATA, add(CFA_XSP16, literal(-18)))
          CFI (cfiCond24) V1 load(1, XDATA, add(CFA_XSP16, literal(-17)))
          CFI (cfiCond24) V2 load(1, XDATA, add(CFA_XSP16, literal(-16)))
          CFI (cfiCond24) V3 load(1, XDATA, add(CFA_XSP16, literal(-15)))
          CFI (cfiCond24) V4 load(1, XDATA, add(CFA_XSP16, literal(-14)))
          CFI (cfiCond24) V5 load(1, XDATA, add(CFA_XSP16, literal(-13)))
          CFI (cfiCond24) V6 load(1, XDATA, add(CFA_XSP16, literal(-12)))
          CFI (cfiCond24) V7 load(1, XDATA, add(CFA_XSP16, literal(-11)))
          CFI (cfiCond24) V8 load(1, XDATA, add(CFA_XSP16, literal(-10)))
          CFI (cfiCond24) V9 load(1, XDATA, add(CFA_XSP16, literal(-9)))
          CFI (cfiCond24) V10 load(1, XDATA, add(CFA_XSP16, literal(-8)))
          CFI (cfiCond24) V11 load(1, XDATA, add(CFA_XSP16, literal(-7)))
          CFI (cfiCond24) R7 load(1, XDATA, add(CFA_XSP16, literal(-6)))
          CFI (cfiCond24) ?RET_LOW load(1, XDATA, add(CFA_XSP16, literal(-5)))
          CFI (cfiCond24) ?RET_HIGH load(1, XDATA, add(CFA_XSP16, literal(-4)))
          CFI (cfiCond24) ?BRET_EXT load(1, XDATA, add(CFA_XSP16, literal(-3)))
          CFI (cfiCond24) DPL0 load(1, XDATA, add(CFA_XSP16, literal(-2)))
          CFI (cfiCond24) DPH0 load(1, XDATA, add(CFA_XSP16, literal(-1)))
          CFI (cfiCond24) CFA_SP SP+-4
          CFI (cfiCond24) CFA_XSP16 add(XSP16, 35)
          CFI Block cfiCond25 Using cfiCommon0
          CFI (cfiCond25) Function MT_AfDataRequest
          CFI (cfiCond25) Conditional ??CrossCallReturnLabel_73, ??CrossCallReturnLabel_42
          CFI (cfiCond25) R6 load(1, XDATA, add(CFA_XSP16, literal(-20)))
          CFI (cfiCond25) VB load(1, XDATA, add(CFA_XSP16, literal(-19)))
          CFI (cfiCond25) V0 load(1, XDATA, add(CFA_XSP16, literal(-18)))
          CFI (cfiCond25) V1 load(1, XDATA, add(CFA_XSP16, literal(-17)))
          CFI (cfiCond25) V2 load(1, XDATA, add(CFA_XSP16, literal(-16)))
          CFI (cfiCond25) V3 load(1, XDATA, add(CFA_XSP16, literal(-15)))
          CFI (cfiCond25) V4 load(1, XDATA, add(CFA_XSP16, literal(-14)))
          CFI (cfiCond25) V5 load(1, XDATA, add(CFA_XSP16, literal(-13)))
          CFI (cfiCond25) V6 load(1, XDATA, add(CFA_XSP16, literal(-12)))
          CFI (cfiCond25) V7 load(1, XDATA, add(CFA_XSP16, literal(-11)))
          CFI (cfiCond25) V8 load(1, XDATA, add(CFA_XSP16, literal(-10)))
          CFI (cfiCond25) V9 load(1, XDATA, add(CFA_XSP16, literal(-9)))
          CFI (cfiCond25) V10 load(1, XDATA, add(CFA_XSP16, literal(-8)))
          CFI (cfiCond25) V11 load(1, XDATA, add(CFA_XSP16, literal(-7)))
          CFI (cfiCond25) R7 load(1, XDATA, add(CFA_XSP16, literal(-6)))
          CFI (cfiCond25) ?RET_LOW load(1, XDATA, add(CFA_XSP16, literal(-5)))
          CFI (cfiCond25) ?RET_HIGH load(1, XDATA, add(CFA_XSP16, literal(-4)))
          CFI (cfiCond25) ?BRET_EXT load(1, XDATA, add(CFA_XSP16, literal(-3)))
          CFI (cfiCond25) DPL0 load(1, XDATA, add(CFA_XSP16, literal(-2)))
          CFI (cfiCond25) DPH0 load(1, XDATA, add(CFA_XSP16, literal(-1)))
          CFI (cfiCond25) CFA_SP SP+-4
          CFI (cfiCond25) CFA_XSP16 add(XSP16, 35)
          CFI Block cfiPicker26 Using cfiCommon1
          CFI (cfiPicker26) NoFunction
          CFI (cfiPicker26) Picker
        MOVX      @DPTR,A
        MOV       DPL,?V2
        MOV       DPH,?V3
        INC       DPTR
        RET
          CFI EndBlock cfiCond23
          CFI EndBlock cfiCond24
          CFI EndBlock cfiCond25
          CFI EndBlock cfiPicker26

        RSEG BANKED_CODE:HUGECODE:NOROOT(0)
?Subroutine21:
          CFI Block cfiCond27 Using cfiCommon0
          CFI Function MT_AfExec
          CFI Conditional ??CrossCallReturnLabel_27
          CFI R6 load(1, XDATA, add(CFA_XSP16, literal(-9)))
          CFI VB load(1, XDATA, add(CFA_XSP16, literal(-8)))
          CFI V0 load(1, XDATA, add(CFA_XSP16, literal(-7)))
          CFI R7 load(1, XDATA, add(CFA_XSP16, literal(-6)))
          CFI ?RET_LOW load(1, XDATA, add(CFA_XSP16, literal(-5)))
          CFI ?RET_HIGH load(1, XDATA, add(CFA_XSP16, literal(-4)))
          CFI ?BRET_EXT load(1, XDATA, add(CFA_XSP16, literal(-3)))
          CFI DPL0 load(1, XDATA, add(CFA_XSP16, literal(-2)))
          CFI DPH0 load(1, XDATA, add(CFA_XSP16, literal(-1)))
          CFI CFA_SP SP+-2
          CFI CFA_XSP16 add(XSP16, 9)
          CFI Block cfiCond28 Using cfiCommon0
          CFI (cfiCond28) Function MT_AfDataRequest
          CFI (cfiCond28) Conditional ??CrossCallReturnLabel_28
          CFI (cfiCond28) R6 load(1, XDATA, add(CFA_XSP16, literal(-20)))
          CFI (cfiCond28) VB load(1, XDATA, add(CFA_XSP16, literal(-19)))
          CFI (cfiCond28) V0 load(1, XDATA, add(CFA_XSP16, literal(-18)))
          CFI (cfiCond28) V1 load(1, XDATA, add(CFA_XSP16, literal(-17)))
          CFI (cfiCond28) V2 load(1, XDATA, add(CFA_XSP16, literal(-16)))
          CFI (cfiCond28) V3 load(1, XDATA, add(CFA_XSP16, literal(-15)))
          CFI (cfiCond28) V4 load(1, XDATA, add(CFA_XSP16, literal(-14)))
          CFI (cfiCond28) V5 load(1, XDATA, add(CFA_XSP16, literal(-13)))
          CFI (cfiCond28) V6 load(1, XDATA, add(CFA_XSP16, literal(-12)))
          CFI (cfiCond28) V7 load(1, XDATA, add(CFA_XSP16, literal(-11)))
          CFI (cfiCond28) V8 load(1, XDATA, add(CFA_XSP16, literal(-10)))
          CFI (cfiCond28) V9 load(1, XDATA, add(CFA_XSP16, literal(-9)))
          CFI (cfiCond28) V10 load(1, XDATA, add(CFA_XSP16, literal(-8)))
          CFI (cfiCond28) V11 load(1, XDATA, add(CFA_XSP16, literal(-7)))
          CFI (cfiCond28) R7 load(1, XDATA, add(CFA_XSP16, literal(-6)))
          CFI (cfiCond28) ?RET_LOW load(1, XDATA, add(CFA_XSP16, literal(-5)))
          CFI (cfiCond28) ?RET_HIGH load(1, XDATA, add(CFA_XSP16, literal(-4)))
          CFI (cfiCond28) ?BRET_EXT load(1, XDATA, add(CFA_XSP16, literal(-3)))
          CFI (cfiCond28) DPL0 load(1, XDATA, add(CFA_XSP16, literal(-2)))
          CFI (cfiCond28) DPH0 load(1, XDATA, add(CFA_XSP16, literal(-1)))
          CFI (cfiCond28) CFA_SP SP+-2
          CFI (cfiCond28) CFA_XSP16 add(XSP16, 35)
          CFI Block cfiCond29 Using cfiCommon0
          CFI (cfiCond29) Function MT_AfIncomingMsg
          CFI (cfiCond29) Conditional ??CrossCallReturnLabel_29
          CFI (cfiCond29) R6 load(1, XDATA, add(CFA_XSP16, literal(-20)))
          CFI (cfiCond29) VB load(1, XDATA, add(CFA_XSP16, literal(-19)))
          CFI (cfiCond29) V0 load(1, XDATA, add(CFA_XSP16, literal(-18)))
          CFI (cfiCond29) V1 load(1, XDATA, add(CFA_XSP16, literal(-17)))
          CFI (cfiCond29) V2 load(1, XDATA, add(CFA_XSP16, literal(-16)))
          CFI (cfiCond29) V3 load(1, XDATA, add(CFA_XSP16, literal(-15)))
          CFI (cfiCond29) V4 load(1, XDATA, add(CFA_XSP16, literal(-14)))
          CFI (cfiCond29) V5 load(1, XDATA, add(CFA_XSP16, literal(-13)))
          CFI (cfiCond29) V6 load(1, XDATA, add(CFA_XSP16, literal(-12)))
          CFI (cfiCond29) V7 load(1, XDATA, add(CFA_XSP16, literal(-11)))
          CFI (cfiCond29) V8 load(1, XDATA, add(CFA_XSP16, literal(-10)))
          CFI (cfiCond29) V9 load(1, XDATA, add(CFA_XSP16, literal(-9)))
          CFI (cfiCond29) V10 load(1, XDATA, add(CFA_XSP16, literal(-8)))
          CFI (cfiCond29) V11 load(1, XDATA, add(CFA_XSP16, literal(-7)))
          CFI (cfiCond29) R7 load(1, XDATA, add(CFA_XSP16, literal(-6)))
          CFI (cfiCond29) ?RET_LOW load(1, XDATA, add(CFA_XSP16, literal(-5)))
          CFI (cfiCond29) ?RET_HIGH load(1, XDATA, add(CFA_XSP16, literal(-4)))
          CFI (cfiCond29) ?BRET_EXT load(1, XDATA, add(CFA_XSP16, literal(-3)))
          CFI (cfiCond29) DPL0 load(1, XDATA, add(CFA_XSP16, literal(-2)))
          CFI (cfiCond29) DPH0 load(1, XDATA, add(CFA_XSP16, literal(-1)))
          CFI (cfiCond29) CFA_SP SP+-2
          CFI (cfiCond29) CFA_XSP16 add(XSP16, 23)
          CFI Block cfiPicker30 Using cfiCommon1
          CFI (cfiPicker30) NoFunction
          CFI (cfiPicker30) Picker
        MOV       R2,#0x8
        MOV       R3,#0x0
        MOV       DPTR,#MT_TaskID
        MOVX      A,@DPTR
        MOV       R1,A
        LCALL     `??osal_set_event::?relay`; Banked call to: osal_set_event
        RET
          CFI EndBlock cfiCond27
          CFI EndBlock cfiCond28
          CFI EndBlock cfiCond29
          CFI EndBlock cfiPicker30

        RSEG BANKED_CODE:HUGECODE:NOROOT(0)
?Subroutine17:
          CFI Block cfiCond31 Using cfiCommon0
          CFI Function MT_AfDataRequest
          CFI Conditional ??CrossCallReturnLabel_81
          CFI R6 load(1, XDATA, add(CFA_XSP16, literal(-20)))
          CFI VB load(1, XDATA, add(CFA_XSP16, literal(-19)))
          CFI V0 load(1, XDATA, add(CFA_XSP16, literal(-18)))
          CFI V1 load(1, XDATA, add(CFA_XSP16, literal(-17)))
          CFI V2 load(1, XDATA, add(CFA_XSP16, literal(-16)))
          CFI V3 load(1, XDATA, add(CFA_XSP16, literal(-15)))
          CFI V4 load(1, XDATA, add(CFA_XSP16, literal(-14)))
          CFI V5 load(1, XDATA, add(CFA_XSP16, literal(-13)))
          CFI V6 load(1, XDATA, add(CFA_XSP16, literal(-12)))
          CFI V7 load(1, XDATA, add(CFA_XSP16, literal(-11)))
          CFI V8 load(1, XDATA, add(CFA_XSP16, literal(-10)))
          CFI V9 load(1, XDATA, add(CFA_XSP16, literal(-9)))
          CFI V10 load(1, XDATA, add(CFA_XSP16, literal(-8)))
          CFI V11 load(1, XDATA, add(CFA_XSP16, literal(-7)))
          CFI R7 load(1, XDATA, add(CFA_XSP16, literal(-6)))
          CFI ?RET_LOW load(1, XDATA, add(CFA_XSP16, literal(-5)))
          CFI ?RET_HIGH load(1, XDATA, add(CFA_XSP16, literal(-4)))
          CFI ?BRET_EXT load(1, XDATA, add(CFA_XSP16, literal(-3)))
          CFI DPL0 load(1, XDATA, add(CFA_XSP16, literal(-2)))
          CFI DPH0 load(1, XDATA, add(CFA_XSP16, literal(-1)))
          CFI CFA_SP SP+-2
          CFI CFA_XSP16 add(XSP16, 35)
          CFI Block cfiCond32 Using cfiCommon0
          CFI (cfiCond32) Function MT_AfIncomingMsg
          CFI (cfiCond32) Conditional ??CrossCallReturnLabel_82
          CFI (cfiCond32) R6 load(1, XDATA, add(CFA_XSP16, literal(-20)))
          CFI (cfiCond32) VB load(1, XDATA, add(CFA_XSP16, literal(-19)))
          CFI (cfiCond32) V0 load(1, XDATA, add(CFA_XSP16, literal(-18)))
          CFI (cfiCond32) V1 load(1, XDATA, add(CFA_XSP16, literal(-17)))
          CFI (cfiCond32) V2 load(1, XDATA, add(CFA_XSP16, literal(-16)))
          CFI (cfiCond32) V3 load(1, XDATA, add(CFA_XSP16, literal(-15)))
          CFI (cfiCond32) V4 load(1, XDATA, add(CFA_XSP16, literal(-14)))
          CFI (cfiCond32) V5 load(1, XDATA, add(CFA_XSP16, literal(-13)))
          CFI (cfiCond32) V6 load(1, XDATA, add(CFA_XSP16, literal(-12)))
          CFI (cfiCond32) V7 load(1, XDATA, add(CFA_XSP16, literal(-11)))
          CFI (cfiCond32) V8 load(1, XDATA, add(CFA_XSP16, literal(-10)))
          CFI (cfiCond32) V9 load(1, XDATA, add(CFA_XSP16, literal(-9)))
          CFI (cfiCond32) V10 load(1, XDATA, add(CFA_XSP16, literal(-8)))
          CFI (cfiCond32) V11 load(1, XDATA, add(CFA_XSP16, literal(-7)))
          CFI (cfiCond32) R7 load(1, XDATA, add(CFA_XSP16, literal(-6)))
          CFI (cfiCond32) ?RET_LOW load(1, XDATA, add(CFA_XSP16, literal(-5)))
          CFI (cfiCond32) ?RET_HIGH load(1, XDATA, add(CFA_XSP16, literal(-4)))
          CFI (cfiCond32) ?BRET_EXT load(1, XDATA, add(CFA_XSP16, literal(-3)))
          CFI (cfiCond32) DPL0 load(1, XDATA, add(CFA_XSP16, literal(-2)))
          CFI (cfiCond32) DPH0 load(1, XDATA, add(CFA_XSP16, literal(-1)))
          CFI (cfiCond32) CFA_SP SP+-2
          CFI (cfiCond32) CFA_XSP16 add(XSP16, 23)
          CFI Block cfiPicker33 Using cfiCommon1
          CFI (cfiPicker33) NoFunction
          CFI (cfiPicker33) Picker
        MOV       A,#0xf
        MOVX      @DPTR,A
          CFI EndBlock cfiCond31
          CFI EndBlock cfiCond32
          CFI EndBlock cfiPicker33
        ; Setup parameters for call to function osal_start_timerEx
        ; Setup parameters for call to function osal_start_timerEx
        REQUIRE ??Subroutine51_0
        ; // Fall through to label ??Subroutine51_0

        RSEG BANKED_CODE:HUGECODE:NOROOT(0)
??Subroutine51_0:
          CFI Block cfiCond34 Using cfiCommon0
          CFI Function MT_AfExec
          CFI Conditional ??CrossCallReturnLabel_83
          CFI R6 load(1, XDATA, add(CFA_XSP16, literal(-9)))
          CFI VB load(1, XDATA, add(CFA_XSP16, literal(-8)))
          CFI V0 load(1, XDATA, add(CFA_XSP16, literal(-7)))
          CFI R7 load(1, XDATA, add(CFA_XSP16, literal(-6)))
          CFI ?RET_LOW load(1, XDATA, add(CFA_XSP16, literal(-5)))
          CFI ?RET_HIGH load(1, XDATA, add(CFA_XSP16, literal(-4)))
          CFI ?BRET_EXT load(1, XDATA, add(CFA_XSP16, literal(-3)))
          CFI DPL0 load(1, XDATA, add(CFA_XSP16, literal(-2)))
          CFI DPH0 load(1, XDATA, add(CFA_XSP16, literal(-1)))
          CFI CFA_SP SP+-2
          CFI CFA_XSP16 add(XSP16, 9)
          CFI Block cfiCond35 Using cfiCommon0
          CFI (cfiCond35) Function MT_AfDataRequest
          CFI (cfiCond35) Conditional ??CrossCallReturnLabel_81
          CFI (cfiCond35) R6 load(1, XDATA, add(CFA_XSP16, literal(-20)))
          CFI (cfiCond35) VB load(1, XDATA, add(CFA_XSP16, literal(-19)))
          CFI (cfiCond35) V0 load(1, XDATA, add(CFA_XSP16, literal(-18)))
          CFI (cfiCond35) V1 load(1, XDATA, add(CFA_XSP16, literal(-17)))
          CFI (cfiCond35) V2 load(1, XDATA, add(CFA_XSP16, literal(-16)))
          CFI (cfiCond35) V3 load(1, XDATA, add(CFA_XSP16, literal(-15)))
          CFI (cfiCond35) V4 load(1, XDATA, add(CFA_XSP16, literal(-14)))
          CFI (cfiCond35) V5 load(1, XDATA, add(CFA_XSP16, literal(-13)))
          CFI (cfiCond35) V6 load(1, XDATA, add(CFA_XSP16, literal(-12)))
          CFI (cfiCond35) V7 load(1, XDATA, add(CFA_XSP16, literal(-11)))
          CFI (cfiCond35) V8 load(1, XDATA, add(CFA_XSP16, literal(-10)))
          CFI (cfiCond35) V9 load(1, XDATA, add(CFA_XSP16, literal(-9)))
          CFI (cfiCond35) V10 load(1, XDATA, add(CFA_XSP16, literal(-8)))
          CFI (cfiCond35) V11 load(1, XDATA, add(CFA_XSP16, literal(-7)))
          CFI (cfiCond35) R7 load(1, XDATA, add(CFA_XSP16, literal(-6)))
          CFI (cfiCond35) ?RET_LOW load(1, XDATA, add(CFA_XSP16, literal(-5)))
          CFI (cfiCond35) ?RET_HIGH load(1, XDATA, add(CFA_XSP16, literal(-4)))
          CFI (cfiCond35) ?BRET_EXT load(1, XDATA, add(CFA_XSP16, literal(-3)))
          CFI (cfiCond35) DPL0 load(1, XDATA, add(CFA_XSP16, literal(-2)))
          CFI (cfiCond35) DPH0 load(1, XDATA, add(CFA_XSP16, literal(-1)))
          CFI (cfiCond35) CFA_SP SP+-2
          CFI (cfiCond35) CFA_XSP16 add(XSP16, 35)
          CFI Block cfiCond36 Using cfiCommon0
          CFI (cfiCond36) Function MT_AfIncomingMsg
          CFI (cfiCond36) Conditional ??CrossCallReturnLabel_82
          CFI (cfiCond36) R6 load(1, XDATA, add(CFA_XSP16, literal(-20)))
          CFI (cfiCond36) VB load(1, XDATA, add(CFA_XSP16, literal(-19)))
          CFI (cfiCond36) V0 load(1, XDATA, add(CFA_XSP16, literal(-18)))
          CFI (cfiCond36) V1 load(1, XDATA, add(CFA_XSP16, literal(-17)))
          CFI (cfiCond36) V2 load(1, XDATA, add(CFA_XSP16, literal(-16)))
          CFI (cfiCond36) V3 load(1, XDATA, add(CFA_XSP16, literal(-15)))
          CFI (cfiCond36) V4 load(1, XDATA, add(CFA_XSP16, literal(-14)))
          CFI (cfiCond36) V5 load(1, XDATA, add(CFA_XSP16, literal(-13)))
          CFI (cfiCond36) V6 load(1, XDATA, add(CFA_XSP16, literal(-12)))
          CFI (cfiCond36) V7 load(1, XDATA, add(CFA_XSP16, literal(-11)))
          CFI (cfiCond36) V8 load(1, XDATA, add(CFA_XSP16, literal(-10)))
          CFI (cfiCond36) V9 load(1, XDATA, add(CFA_XSP16, literal(-9)))
          CFI (cfiCond36) V10 load(1, XDATA, add(CFA_XSP16, literal(-8)))
          CFI (cfiCond36) V11 load(1, XDATA, add(CFA_XSP16, literal(-7)))
          CFI (cfiCond36) R7 load(1, XDATA, add(CFA_XSP16, literal(-6)))
          CFI (cfiCond36) ?RET_LOW load(1, XDATA, add(CFA_XSP16, literal(-5)))
          CFI (cfiCond36) ?RET_HIGH load(1, XDATA, add(CFA_XSP16, literal(-4)))
          CFI (cfiCond36) ?BRET_EXT load(1, XDATA, add(CFA_XSP16, literal(-3)))
          CFI (cfiCond36) DPL0 load(1, XDATA, add(CFA_XSP16, literal(-2)))
          CFI (cfiCond36) DPH0 load(1, XDATA, add(CFA_XSP16, literal(-1)))
          CFI (cfiCond36) CFA_SP SP+-2
          CFI (cfiCond36) CFA_XSP16 add(XSP16, 23)
          CFI Block cfiPicker37 Using cfiCommon1
          CFI (cfiPicker37) NoFunction
          CFI (cfiPicker37) Picker
        MOV       R4,#-0x18
        MOV       R5,#0x3
        MOV       R2,#0x8
        MOV       R3,#0x0
        MOV       DPTR,#MT_TaskID
        MOVX      A,@DPTR
        MOV       R1,A
        LCALL     `??osal_start_timerEx::?relay`; Banked call to: osal_start_timerEx
        MOV       A,R1
        RET
          CFI EndBlock cfiCond34
          CFI EndBlock cfiCond35
          CFI EndBlock cfiCond36
          CFI EndBlock cfiPicker37

        RSEG BANKED_CODE:HUGECODE:NOROOT(0)
?Subroutine14:
          CFI Block cfiCond38 Using cfiCommon0
          CFI Function MT_AfDataRequest
          CFI Conditional ??CrossCallReturnLabel_17
          CFI R6 load(1, XDATA, add(CFA_XSP16, literal(-20)))
          CFI VB load(1, XDATA, add(CFA_XSP16, literal(-19)))
          CFI V0 load(1, XDATA, add(CFA_XSP16, literal(-18)))
          CFI V1 load(1, XDATA, add(CFA_XSP16, literal(-17)))
          CFI V2 load(1, XDATA, add(CFA_XSP16, literal(-16)))
          CFI V3 load(1, XDATA, add(CFA_XSP16, literal(-15)))
          CFI V4 load(1, XDATA, add(CFA_XSP16, literal(-14)))
          CFI V5 load(1, XDATA, add(CFA_XSP16, literal(-13)))
          CFI V6 load(1, XDATA, add(CFA_XSP16, literal(-12)))
          CFI V7 load(1, XDATA, add(CFA_XSP16, literal(-11)))
          CFI V8 load(1, XDATA, add(CFA_XSP16, literal(-10)))
          CFI V9 load(1, XDATA, add(CFA_XSP16, literal(-9)))
          CFI V10 load(1, XDATA, add(CFA_XSP16, literal(-8)))
          CFI V11 load(1, XDATA, add(CFA_XSP16, literal(-7)))
          CFI R7 load(1, XDATA, add(CFA_XSP16, literal(-6)))
          CFI ?RET_LOW load(1, XDATA, add(CFA_XSP16, literal(-5)))
          CFI ?RET_HIGH load(1, XDATA, add(CFA_XSP16, literal(-4)))
          CFI ?BRET_EXT load(1, XDATA, add(CFA_XSP16, literal(-3)))
          CFI DPL0 load(1, XDATA, add(CFA_XSP16, literal(-2)))
          CFI DPH0 load(1, XDATA, add(CFA_XSP16, literal(-1)))
          CFI CFA_SP SP+-2
          CFI CFA_XSP16 add(XSP16, 35)
          CFI Block cfiCond39 Using cfiCommon0
          CFI (cfiCond39) Function MT_AfDataRequest
          CFI (cfiCond39) Conditional ??CrossCallReturnLabel_18
          CFI (cfiCond39) R6 load(1, XDATA, add(CFA_XSP16, literal(-20)))
          CFI (cfiCond39) VB load(1, XDATA, add(CFA_XSP16, literal(-19)))
          CFI (cfiCond39) V0 load(1, XDATA, add(CFA_XSP16, literal(-18)))
          CFI (cfiCond39) V1 load(1, XDATA, add(CFA_XSP16, literal(-17)))
          CFI (cfiCond39) V2 load(1, XDATA, add(CFA_XSP16, literal(-16)))
          CFI (cfiCond39) V3 load(1, XDATA, add(CFA_XSP16, literal(-15)))
          CFI (cfiCond39) V4 load(1, XDATA, add(CFA_XSP16, literal(-14)))
          CFI (cfiCond39) V5 load(1, XDATA, add(CFA_XSP16, literal(-13)))
          CFI (cfiCond39) V6 load(1, XDATA, add(CFA_XSP16, literal(-12)))
          CFI (cfiCond39) V7 load(1, XDATA, add(CFA_XSP16, literal(-11)))
          CFI (cfiCond39) V8 load(1, XDATA, add(CFA_XSP16, literal(-10)))
          CFI (cfiCond39) V9 load(1, XDATA, add(CFA_XSP16, literal(-9)))
          CFI (cfiCond39) V10 load(1, XDATA, add(CFA_XSP16, literal(-8)))
          CFI (cfiCond39) V11 load(1, XDATA, add(CFA_XSP16, literal(-7)))
          CFI (cfiCond39) R7 load(1, XDATA, add(CFA_XSP16, literal(-6)))
          CFI (cfiCond39) ?RET_LOW load(1, XDATA, add(CFA_XSP16, literal(-5)))
          CFI (cfiCond39) ?RET_HIGH load(1, XDATA, add(CFA_XSP16, literal(-4)))
          CFI (cfiCond39) ?BRET_EXT load(1, XDATA, add(CFA_XSP16, literal(-3)))
          CFI (cfiCond39) DPL0 load(1, XDATA, add(CFA_XSP16, literal(-2)))
          CFI (cfiCond39) DPH0 load(1, XDATA, add(CFA_XSP16, literal(-1)))
          CFI (cfiCond39) CFA_SP SP+-2
          CFI (cfiCond39) CFA_XSP16 add(XSP16, 35)
          CFI Block cfiPicker40 Using cfiCommon1
          CFI (cfiPicker40) NoFunction
          CFI (cfiPicker40) Picker
        LCALL     ?Subroutine38 & 0xFFFF
??CrossCallReturnLabel_59:
        RET
          CFI EndBlock cfiCond38
          CFI EndBlock cfiCond39
          CFI EndBlock cfiPicker40

        RSEG BANKED_CODE:HUGECODE:NOROOT(0)
?Subroutine38:
          CFI Block cfiCond41 Using cfiCommon0
          CFI Function MT_AfDataRequest
          CFI Conditional ??CrossCallReturnLabel_59, ??CrossCallReturnLabel_17
          CFI R6 load(1, XDATA, add(CFA_XSP16, literal(-20)))
          CFI VB load(1, XDATA, add(CFA_XSP16, literal(-19)))
          CFI V0 load(1, XDATA, add(CFA_XSP16, literal(-18)))
          CFI V1 load(1, XDATA, add(CFA_XSP16, literal(-17)))
          CFI V2 load(1, XDATA, add(CFA_XSP16, literal(-16)))
          CFI V3 load(1, XDATA, add(CFA_XSP16, literal(-15)))
          CFI V4 load(1, XDATA, add(CFA_XSP16, literal(-14)))
          CFI V5 load(1, XDATA, add(CFA_XSP16, literal(-13)))
          CFI V6 load(1, XDATA, add(CFA_XSP16, literal(-12)))
          CFI V7 load(1, XDATA, add(CFA_XSP16, literal(-11)))
          CFI V8 load(1, XDATA, add(CFA_XSP16, literal(-10)))
          CFI V9 load(1, XDATA, add(CFA_XSP16, literal(-9)))
          CFI V10 load(1, XDATA, add(CFA_XSP16, literal(-8)))
          CFI V11 load(1, XDATA, add(CFA_XSP16, literal(-7)))
          CFI R7 load(1, XDATA, add(CFA_XSP16, literal(-6)))
          CFI ?RET_LOW load(1, XDATA, add(CFA_XSP16, literal(-5)))
          CFI ?RET_HIGH load(1, XDATA, add(CFA_XSP16, literal(-4)))
          CFI ?BRET_EXT load(1, XDATA, add(CFA_XSP16, literal(-3)))
          CFI DPL0 load(1, XDATA, add(CFA_XSP16, literal(-2)))
          CFI DPH0 load(1, XDATA, add(CFA_XSP16, literal(-1)))
          CFI CFA_SP SP+-4
          CFI CFA_XSP16 add(XSP16, 35)
          CFI Block cfiCond42 Using cfiCommon0
          CFI (cfiCond42) Function MT_AfDataRequest
          CFI (cfiCond42) Conditional ??CrossCallReturnLabel_59, ??CrossCallReturnLabel_18
          CFI (cfiCond42) R6 load(1, XDATA, add(CFA_XSP16, literal(-20)))
          CFI (cfiCond42) VB load(1, XDATA, add(CFA_XSP16, literal(-19)))
          CFI (cfiCond42) V0 load(1, XDATA, add(CFA_XSP16, literal(-18)))
          CFI (cfiCond42) V1 load(1, XDATA, add(CFA_XSP16, literal(-17)))
          CFI (cfiCond42) V2 load(1, XDATA, add(CFA_XSP16, literal(-16)))
          CFI (cfiCond42) V3 load(1, XDATA, add(CFA_XSP16, literal(-15)))
          CFI (cfiCond42) V4 load(1, XDATA, add(CFA_XSP16, literal(-14)))
          CFI (cfiCond42) V5 load(1, XDATA, add(CFA_XSP16, literal(-13)))
          CFI (cfiCond42) V6 load(1, XDATA, add(CFA_XSP16, literal(-12)))
          CFI (cfiCond42) V7 load(1, XDATA, add(CFA_XSP16, literal(-11)))
          CFI (cfiCond42) V8 load(1, XDATA, add(CFA_XSP16, literal(-10)))
          CFI (cfiCond42) V9 load(1, XDATA, add(CFA_XSP16, literal(-9)))
          CFI (cfiCond42) V10 load(1, XDATA, add(CFA_XSP16, literal(-8)))
          CFI (cfiCond42) V11 load(1, XDATA, add(CFA_XSP16, literal(-7)))
          CFI (cfiCond42) R7 load(1, XDATA, add(CFA_XSP16, literal(-6)))
          CFI (cfiCond42) ?RET_LOW load(1, XDATA, add(CFA_XSP16, literal(-5)))
          CFI (cfiCond42) ?RET_HIGH load(1, XDATA, add(CFA_XSP16, literal(-4)))
          CFI (cfiCond42) ?BRET_EXT load(1, XDATA, add(CFA_XSP16, literal(-3)))
          CFI (cfiCond42) DPL0 load(1, XDATA, add(CFA_XSP16, literal(-2)))
          CFI (cfiCond42) DPH0 load(1, XDATA, add(CFA_XSP16, literal(-1)))
          CFI (cfiCond42) CFA_SP SP+-4
          CFI (cfiCond42) CFA_XSP16 add(XSP16, 35)
          CFI Block cfiCond43 Using cfiCommon0
          CFI (cfiCond43) Function MT_AfDataRequestSrcRtg
          CFI (cfiCond43) Conditional ??CrossCallReturnLabel_58, ??CrossCallReturnLabel_8
          CFI (cfiCond43) R6 load(1, XDATA, add(CFA_XSP16, literal(-20)))
          CFI (cfiCond43) VB load(1, XDATA, add(CFA_XSP16, literal(-19)))
          CFI (cfiCond43) V0 load(1, XDATA, add(CFA_XSP16, literal(-18)))
          CFI (cfiCond43) V1 load(1, XDATA, add(CFA_XSP16, literal(-17)))
          CFI (cfiCond43) V2 load(1, XDATA, add(CFA_XSP16, literal(-16)))
          CFI (cfiCond43) V3 load(1, XDATA, add(CFA_XSP16, literal(-15)))
          CFI (cfiCond43) V4 load(1, XDATA, add(CFA_XSP16, literal(-14)))
          CFI (cfiCond43) V5 load(1, XDATA, add(CFA_XSP16, literal(-13)))
          CFI (cfiCond43) V6 load(1, XDATA, add(CFA_XSP16, literal(-12)))
          CFI (cfiCond43) V7 load(1, XDATA, add(CFA_XSP16, literal(-11)))
          CFI (cfiCond43) V8 load(1, XDATA, add(CFA_XSP16, literal(-10)))
          CFI (cfiCond43) V9 load(1, XDATA, add(CFA_XSP16, literal(-9)))
          CFI (cfiCond43) V10 load(1, XDATA, add(CFA_XSP16, literal(-8)))
          CFI (cfiCond43) V11 load(1, XDATA, add(CFA_XSP16, literal(-7)))
          CFI (cfiCond43) R7 load(1, XDATA, add(CFA_XSP16, literal(-6)))
          CFI (cfiCond43) ?RET_LOW load(1, XDATA, add(CFA_XSP16, literal(-5)))
          CFI (cfiCond43) ?RET_HIGH load(1, XDATA, add(CFA_XSP16, literal(-4)))
          CFI (cfiCond43) ?BRET_EXT load(1, XDATA, add(CFA_XSP16, literal(-3)))
          CFI (cfiCond43) DPL0 load(1, XDATA, add(CFA_XSP16, literal(-2)))
          CFI (cfiCond43) DPH0 load(1, XDATA, add(CFA_XSP16, literal(-1)))
          CFI (cfiCond43) CFA_SP SP+-4
          CFI (cfiCond43) CFA_XSP16 add(XSP16, 34)
          CFI Block cfiCond44 Using cfiCommon0
          CFI (cfiCond44) Function MT_AfDataRetrieve
          CFI (cfiCond44) Conditional ??CrossCallReturnLabel_58, ??CrossCallReturnLabel_9
          CFI (cfiCond44) R6 load(1, XDATA, add(CFA_XSP16, literal(-20)))
          CFI (cfiCond44) VB load(1, XDATA, add(CFA_XSP16, literal(-19)))
          CFI (cfiCond44) V0 load(1, XDATA, add(CFA_XSP16, literal(-18)))
          CFI (cfiCond44) V1 load(1, XDATA, add(CFA_XSP16, literal(-17)))
          CFI (cfiCond44) V2 load(1, XDATA, add(CFA_XSP16, literal(-16)))
          CFI (cfiCond44) V3 load(1, XDATA, add(CFA_XSP16, literal(-15)))
          CFI (cfiCond44) V4 load(1, XDATA, add(CFA_XSP16, literal(-14)))
          CFI (cfiCond44) V5 load(1, XDATA, add(CFA_XSP16, literal(-13)))
          CFI (cfiCond44) V6 load(1, XDATA, add(CFA_XSP16, literal(-12)))
          CFI (cfiCond44) V7 load(1, XDATA, add(CFA_XSP16, literal(-11)))
          CFI (cfiCond44) V8 load(1, XDATA, add(CFA_XSP16, literal(-10)))
          CFI (cfiCond44) V9 load(1, XDATA, add(CFA_XSP16, literal(-9)))
          CFI (cfiCond44) V10 load(1, XDATA, add(CFA_XSP16, literal(-8)))
          CFI (cfiCond44) V11 load(1, XDATA, add(CFA_XSP16, literal(-7)))
          CFI (cfiCond44) R7 load(1, XDATA, add(CFA_XSP16, literal(-6)))
          CFI (cfiCond44) ?RET_LOW load(1, XDATA, add(CFA_XSP16, literal(-5)))
          CFI (cfiCond44) ?RET_HIGH load(1, XDATA, add(CFA_XSP16, literal(-4)))
          CFI (cfiCond44) ?BRET_EXT load(1, XDATA, add(CFA_XSP16, literal(-3)))
          CFI (cfiCond44) DPL0 load(1, XDATA, add(CFA_XSP16, literal(-2)))
          CFI (cfiCond44) DPH0 load(1, XDATA, add(CFA_XSP16, literal(-1)))
          CFI (cfiCond44) CFA_SP SP+-4
          CFI (cfiCond44) CFA_XSP16 add(XSP16, 23)
          CFI Block cfiPicker45 Using cfiCommon1
          CFI (cfiPicker45) NoFunction
          CFI (cfiPicker45) Picker
        MOVX      A,@DPTR
        MOV       R2,A
        INC       DPTR
        MOVX      A,@DPTR
        MOV       R0,A
        CLR       A
        XCH       A,R0
        MOV       R1,A
        MOV       A,R2
        ADD       A,R0
        RET
          CFI EndBlock cfiCond41
          CFI EndBlock cfiCond42
          CFI EndBlock cfiCond43
          CFI EndBlock cfiCond44
          CFI EndBlock cfiPicker45

        RSEG BANKED_CODE:HUGECODE:NOROOT(0)
?Subroutine13:
          CFI Block cfiCond46 Using cfiCommon0
          CFI Function MT_AfDataRequest
          CFI Conditional ??CrossCallReturnLabel_84
          CFI R6 load(1, XDATA, add(CFA_XSP16, literal(-20)))
          CFI VB load(1, XDATA, add(CFA_XSP16, literal(-19)))
          CFI V0 load(1, XDATA, add(CFA_XSP16, literal(-18)))
          CFI V1 load(1, XDATA, add(CFA_XSP16, literal(-17)))
          CFI V2 load(1, XDATA, add(CFA_XSP16, literal(-16)))
          CFI V3 load(1, XDATA, add(CFA_XSP16, literal(-15)))
          CFI V4 load(1, XDATA, add(CFA_XSP16, literal(-14)))
          CFI V5 load(1, XDATA, add(CFA_XSP16, literal(-13)))
          CFI V6 load(1, XDATA, add(CFA_XSP16, literal(-12)))
          CFI V7 load(1, XDATA, add(CFA_XSP16, literal(-11)))
          CFI V8 load(1, XDATA, add(CFA_XSP16, literal(-10)))
          CFI V9 load(1, XDATA, add(CFA_XSP16, literal(-9)))
          CFI V10 load(1, XDATA, add(CFA_XSP16, literal(-8)))
          CFI V11 load(1, XDATA, add(CFA_XSP16, literal(-7)))
          CFI R7 load(1, XDATA, add(CFA_XSP16, literal(-6)))
          CFI ?RET_LOW load(1, XDATA, add(CFA_XSP16, literal(-5)))
          CFI ?RET_HIGH load(1, XDATA, add(CFA_XSP16, literal(-4)))
          CFI ?BRET_EXT load(1, XDATA, add(CFA_XSP16, literal(-3)))
          CFI DPL0 load(1, XDATA, add(CFA_XSP16, literal(-2)))
          CFI DPH0 load(1, XDATA, add(CFA_XSP16, literal(-1)))
          CFI CFA_SP SP+-2
          CFI CFA_XSP16 add(XSP16, 35)
          CFI Block cfiCond47 Using cfiCommon0
          CFI (cfiCond47) Function MT_AfDataRequest
          CFI (cfiCond47) Conditional ??CrossCallReturnLabel_85
          CFI (cfiCond47) R6 load(1, XDATA, add(CFA_XSP16, literal(-20)))
          CFI (cfiCond47) VB load(1, XDATA, add(CFA_XSP16, literal(-19)))
          CFI (cfiCond47) V0 load(1, XDATA, add(CFA_XSP16, literal(-18)))
          CFI (cfiCond47) V1 load(1, XDATA, add(CFA_XSP16, literal(-17)))
          CFI (cfiCond47) V2 load(1, XDATA, add(CFA_XSP16, literal(-16)))
          CFI (cfiCond47) V3 load(1, XDATA, add(CFA_XSP16, literal(-15)))
          CFI (cfiCond47) V4 load(1, XDATA, add(CFA_XSP16, literal(-14)))
          CFI (cfiCond47) V5 load(1, XDATA, add(CFA_XSP16, literal(-13)))
          CFI (cfiCond47) V6 load(1, XDATA, add(CFA_XSP16, literal(-12)))
          CFI (cfiCond47) V7 load(1, XDATA, add(CFA_XSP16, literal(-11)))
          CFI (cfiCond47) V8 load(1, XDATA, add(CFA_XSP16, literal(-10)))
          CFI (cfiCond47) V9 load(1, XDATA, add(CFA_XSP16, literal(-9)))
          CFI (cfiCond47) V10 load(1, XDATA, add(CFA_XSP16, literal(-8)))
          CFI (cfiCond47) V11 load(1, XDATA, add(CFA_XSP16, literal(-7)))
          CFI (cfiCond47) R7 load(1, XDATA, add(CFA_XSP16, literal(-6)))
          CFI (cfiCond47) ?RET_LOW load(1, XDATA, add(CFA_XSP16, literal(-5)))
          CFI (cfiCond47) ?RET_HIGH load(1, XDATA, add(CFA_XSP16, literal(-4)))
          CFI (cfiCond47) ?BRET_EXT load(1, XDATA, add(CFA_XSP16, literal(-3)))
          CFI (cfiCond47) DPL0 load(1, XDATA, add(CFA_XSP16, literal(-2)))
          CFI (cfiCond47) DPH0 load(1, XDATA, add(CFA_XSP16, literal(-1)))
          CFI (cfiCond47) CFA_SP SP+-2
          CFI (cfiCond47) CFA_XSP16 add(XSP16, 35)
          CFI Block cfiCond48 Using cfiCommon0
          CFI (cfiCond48) Function MT_AfDataRequest
          CFI (cfiCond48) Conditional ??CrossCallReturnLabel_86
          CFI (cfiCond48) R6 load(1, XDATA, add(CFA_XSP16, literal(-20)))
          CFI (cfiCond48) VB load(1, XDATA, add(CFA_XSP16, literal(-19)))
          CFI (cfiCond48) V0 load(1, XDATA, add(CFA_XSP16, literal(-18)))
          CFI (cfiCond48) V1 load(1, XDATA, add(CFA_XSP16, literal(-17)))
          CFI (cfiCond48) V2 load(1, XDATA, add(CFA_XSP16, literal(-16)))
          CFI (cfiCond48) V3 load(1, XDATA, add(CFA_XSP16, literal(-15)))
          CFI (cfiCond48) V4 load(1, XDATA, add(CFA_XSP16, literal(-14)))
          CFI (cfiCond48) V5 load(1, XDATA, add(CFA_XSP16, literal(-13)))
          CFI (cfiCond48) V6 load(1, XDATA, add(CFA_XSP16, literal(-12)))
          CFI (cfiCond48) V7 load(1, XDATA, add(CFA_XSP16, literal(-11)))
          CFI (cfiCond48) V8 load(1, XDATA, add(CFA_XSP16, literal(-10)))
          CFI (cfiCond48) V9 load(1, XDATA, add(CFA_XSP16, literal(-9)))
          CFI (cfiCond48) V10 load(1, XDATA, add(CFA_XSP16, literal(-8)))
          CFI (cfiCond48) V11 load(1, XDATA, add(CFA_XSP16, literal(-7)))
          CFI (cfiCond48) R7 load(1, XDATA, add(CFA_XSP16, literal(-6)))
          CFI (cfiCond48) ?RET_LOW load(1, XDATA, add(CFA_XSP16, literal(-5)))
          CFI (cfiCond48) ?RET_HIGH load(1, XDATA, add(CFA_XSP16, literal(-4)))
          CFI (cfiCond48) ?BRET_EXT load(1, XDATA, add(CFA_XSP16, literal(-3)))
          CFI (cfiCond48) DPL0 load(1, XDATA, add(CFA_XSP16, literal(-2)))
          CFI (cfiCond48) DPH0 load(1, XDATA, add(CFA_XSP16, literal(-1)))
          CFI (cfiCond48) CFA_SP SP+-2
          CFI (cfiCond48) CFA_XSP16 add(XSP16, 35)
          CFI Block cfiCond49 Using cfiCommon0
          CFI (cfiCond49) Function MT_AfDataRequest
          CFI (cfiCond49) Conditional ??CrossCallReturnLabel_87
          CFI (cfiCond49) R6 load(1, XDATA, add(CFA_XSP16, literal(-20)))
          CFI (cfiCond49) VB load(1, XDATA, add(CFA_XSP16, literal(-19)))
          CFI (cfiCond49) V0 load(1, XDATA, add(CFA_XSP16, literal(-18)))
          CFI (cfiCond49) V1 load(1, XDATA, add(CFA_XSP16, literal(-17)))
          CFI (cfiCond49) V2 load(1, XDATA, add(CFA_XSP16, literal(-16)))
          CFI (cfiCond49) V3 load(1, XDATA, add(CFA_XSP16, literal(-15)))
          CFI (cfiCond49) V4 load(1, XDATA, add(CFA_XSP16, literal(-14)))
          CFI (cfiCond49) V5 load(1, XDATA, add(CFA_XSP16, literal(-13)))
          CFI (cfiCond49) V6 load(1, XDATA, add(CFA_XSP16, literal(-12)))
          CFI (cfiCond49) V7 load(1, XDATA, add(CFA_XSP16, literal(-11)))
          CFI (cfiCond49) V8 load(1, XDATA, add(CFA_XSP16, literal(-10)))
          CFI (cfiCond49) V9 load(1, XDATA, add(CFA_XSP16, literal(-9)))
          CFI (cfiCond49) V10 load(1, XDATA, add(CFA_XSP16, literal(-8)))
          CFI (cfiCond49) V11 load(1, XDATA, add(CFA_XSP16, literal(-7)))
          CFI (cfiCond49) R7 load(1, XDATA, add(CFA_XSP16, literal(-6)))
          CFI (cfiCond49) ?RET_LOW load(1, XDATA, add(CFA_XSP16, literal(-5)))
          CFI (cfiCond49) ?RET_HIGH load(1, XDATA, add(CFA_XSP16, literal(-4)))
          CFI (cfiCond49) ?BRET_EXT load(1, XDATA, add(CFA_XSP16, literal(-3)))
          CFI (cfiCond49) DPL0 load(1, XDATA, add(CFA_XSP16, literal(-2)))
          CFI (cfiCond49) DPH0 load(1, XDATA, add(CFA_XSP16, literal(-1)))
          CFI (cfiCond49) CFA_SP SP+-2
          CFI (cfiCond49) CFA_XSP16 add(XSP16, 35)
          CFI Block cfiPicker50 Using cfiCommon1
          CFI (cfiPicker50) NoFunction
          CFI (cfiPicker50) Picker
        MOVX      @DPTR,A
          CFI EndBlock cfiCond46
          CFI EndBlock cfiCond47
          CFI EndBlock cfiCond48
          CFI EndBlock cfiCond49
          CFI EndBlock cfiPicker50
        REQUIRE ??Subroutine52_0
        ; // Fall through to label ??Subroutine52_0

        RSEG BANKED_CODE:HUGECODE:NOROOT(0)
??Subroutine52_0:
          CFI Block cfiCond51 Using cfiCommon0
          CFI Function MT_AfDataRequest
          CFI Conditional ??CrossCallReturnLabel_89
          CFI R6 load(1, XDATA, add(CFA_XSP16, literal(-20)))
          CFI VB load(1, XDATA, add(CFA_XSP16, literal(-19)))
          CFI V0 load(1, XDATA, add(CFA_XSP16, literal(-18)))
          CFI V1 load(1, XDATA, add(CFA_XSP16, literal(-17)))
          CFI V2 load(1, XDATA, add(CFA_XSP16, literal(-16)))
          CFI V3 load(1, XDATA, add(CFA_XSP16, literal(-15)))
          CFI V4 load(1, XDATA, add(CFA_XSP16, literal(-14)))
          CFI V5 load(1, XDATA, add(CFA_XSP16, literal(-13)))
          CFI V6 load(1, XDATA, add(CFA_XSP16, literal(-12)))
          CFI V7 load(1, XDATA, add(CFA_XSP16, literal(-11)))
          CFI V8 load(1, XDATA, add(CFA_XSP16, literal(-10)))
          CFI V9 load(1, XDATA, add(CFA_XSP16, literal(-9)))
          CFI V10 load(1, XDATA, add(CFA_XSP16, literal(-8)))
          CFI V11 load(1, XDATA, add(CFA_XSP16, literal(-7)))
          CFI R7 load(1, XDATA, add(CFA_XSP16, literal(-6)))
          CFI ?RET_LOW load(1, XDATA, add(CFA_XSP16, literal(-5)))
          CFI ?RET_HIGH load(1, XDATA, add(CFA_XSP16, literal(-4)))
          CFI ?BRET_EXT load(1, XDATA, add(CFA_XSP16, literal(-3)))
          CFI DPL0 load(1, XDATA, add(CFA_XSP16, literal(-2)))
          CFI DPH0 load(1, XDATA, add(CFA_XSP16, literal(-1)))
          CFI CFA_SP SP+-2
          CFI CFA_XSP16 add(XSP16, 35)
          CFI Block cfiCond52 Using cfiCommon0
          CFI (cfiCond52) Function MT_AfDataRequest
          CFI (cfiCond52) Conditional ??CrossCallReturnLabel_90
          CFI (cfiCond52) R6 load(1, XDATA, add(CFA_XSP16, literal(-20)))
          CFI (cfiCond52) VB load(1, XDATA, add(CFA_XSP16, literal(-19)))
          CFI (cfiCond52) V0 load(1, XDATA, add(CFA_XSP16, literal(-18)))
          CFI (cfiCond52) V1 load(1, XDATA, add(CFA_XSP16, literal(-17)))
          CFI (cfiCond52) V2 load(1, XDATA, add(CFA_XSP16, literal(-16)))
          CFI (cfiCond52) V3 load(1, XDATA, add(CFA_XSP16, literal(-15)))
          CFI (cfiCond52) V4 load(1, XDATA, add(CFA_XSP16, literal(-14)))
          CFI (cfiCond52) V5 load(1, XDATA, add(CFA_XSP16, literal(-13)))
          CFI (cfiCond52) V6 load(1, XDATA, add(CFA_XSP16, literal(-12)))
          CFI (cfiCond52) V7 load(1, XDATA, add(CFA_XSP16, literal(-11)))
          CFI (cfiCond52) V8 load(1, XDATA, add(CFA_XSP16, literal(-10)))
          CFI (cfiCond52) V9 load(1, XDATA, add(CFA_XSP16, literal(-9)))
          CFI (cfiCond52) V10 load(1, XDATA, add(CFA_XSP16, literal(-8)))
          CFI (cfiCond52) V11 load(1, XDATA, add(CFA_XSP16, literal(-7)))
          CFI (cfiCond52) R7 load(1, XDATA, add(CFA_XSP16, literal(-6)))
          CFI (cfiCond52) ?RET_LOW load(1, XDATA, add(CFA_XSP16, literal(-5)))
          CFI (cfiCond52) ?RET_HIGH load(1, XDATA, add(CFA_XSP16, literal(-4)))
          CFI (cfiCond52) ?BRET_EXT load(1, XDATA, add(CFA_XSP16, literal(-3)))
          CFI (cfiCond52) DPL0 load(1, XDATA, add(CFA_XSP16, literal(-2)))
          CFI (cfiCond52) DPH0 load(1, XDATA, add(CFA_XSP16, literal(-1)))
          CFI (cfiCond52) CFA_XSP16 add(XSP16, 35)
          CFI Block cfiCond53 Using cfiCommon0
          CFI (cfiCond53) Function MT_AfDataRequest
          CFI (cfiCond53) Conditional ??CrossCallReturnLabel_84
          CFI (cfiCond53) R6 load(1, XDATA, add(CFA_XSP16, literal(-20)))
          CFI (cfiCond53) VB load(1, XDATA, add(CFA_XSP16, literal(-19)))
          CFI (cfiCond53) V0 load(1, XDATA, add(CFA_XSP16, literal(-18)))
          CFI (cfiCond53) V1 load(1, XDATA, add(CFA_XSP16, literal(-17)))
          CFI (cfiCond53) V2 load(1, XDATA, add(CFA_XSP16, literal(-16)))
          CFI (cfiCond53) V3 load(1, XDATA, add(CFA_XSP16, literal(-15)))
          CFI (cfiCond53) V4 load(1, XDATA, add(CFA_XSP16, literal(-14)))
          CFI (cfiCond53) V5 load(1, XDATA, add(CFA_XSP16, literal(-13)))
          CFI (cfiCond53) V6 load(1, XDATA, add(CFA_XSP16, literal(-12)))
          CFI (cfiCond53) V7 load(1, XDATA, add(CFA_XSP16, literal(-11)))
          CFI (cfiCond53) V8 load(1, XDATA, add(CFA_XSP16, literal(-10)))
          CFI (cfiCond53) V9 load(1, XDATA, add(CFA_XSP16, literal(-9)))
          CFI (cfiCond53) V10 load(1, XDATA, add(CFA_XSP16, literal(-8)))
          CFI (cfiCond53) V11 load(1, XDATA, add(CFA_XSP16, literal(-7)))
          CFI (cfiCond53) R7 load(1, XDATA, add(CFA_XSP16, literal(-6)))
          CFI (cfiCond53) ?RET_LOW load(1, XDATA, add(CFA_XSP16, literal(-5)))
          CFI (cfiCond53) ?RET_HIGH load(1, XDATA, add(CFA_XSP16, literal(-4)))
          CFI (cfiCond53) ?BRET_EXT load(1, XDATA, add(CFA_XSP16, literal(-3)))
          CFI (cfiCond53) DPL0 load(1, XDATA, add(CFA_XSP16, literal(-2)))
          CFI (cfiCond53) DPH0 load(1, XDATA, add(CFA_XSP16, literal(-1)))
          CFI (cfiCond53) CFA_SP SP+-2
          CFI (cfiCond53) CFA_XSP16 add(XSP16, 35)
          CFI Block cfiCond54 Using cfiCommon0
          CFI (cfiCond54) Function MT_AfDataRequest
          CFI (cfiCond54) Conditional ??CrossCallReturnLabel_85
          CFI (cfiCond54) R6 load(1, XDATA, add(CFA_XSP16, literal(-20)))
          CFI (cfiCond54) VB load(1, XDATA, add(CFA_XSP16, literal(-19)))
          CFI (cfiCond54) V0 load(1, XDATA, add(CFA_XSP16, literal(-18)))
          CFI (cfiCond54) V1 load(1, XDATA, add(CFA_XSP16, literal(-17)))
          CFI (cfiCond54) V2 load(1, XDATA, add(CFA_XSP16, literal(-16)))
          CFI (cfiCond54) V3 load(1, XDATA, add(CFA_XSP16, literal(-15)))
          CFI (cfiCond54) V4 load(1, XDATA, add(CFA_XSP16, literal(-14)))
          CFI (cfiCond54) V5 load(1, XDATA, add(CFA_XSP16, literal(-13)))
          CFI (cfiCond54) V6 load(1, XDATA, add(CFA_XSP16, literal(-12)))
          CFI (cfiCond54) V7 load(1, XDATA, add(CFA_XSP16, literal(-11)))
          CFI (cfiCond54) V8 load(1, XDATA, add(CFA_XSP16, literal(-10)))
          CFI (cfiCond54) V9 load(1, XDATA, add(CFA_XSP16, literal(-9)))
          CFI (cfiCond54) V10 load(1, XDATA, add(CFA_XSP16, literal(-8)))
          CFI (cfiCond54) V11 load(1, XDATA, add(CFA_XSP16, literal(-7)))
          CFI (cfiCond54) R7 load(1, XDATA, add(CFA_XSP16, literal(-6)))
          CFI (cfiCond54) ?RET_LOW load(1, XDATA, add(CFA_XSP16, literal(-5)))
          CFI (cfiCond54) ?RET_HIGH load(1, XDATA, add(CFA_XSP16, literal(-4)))
          CFI (cfiCond54) ?BRET_EXT load(1, XDATA, add(CFA_XSP16, literal(-3)))
          CFI (cfiCond54) DPL0 load(1, XDATA, add(CFA_XSP16, literal(-2)))
          CFI (cfiCond54) DPH0 load(1, XDATA, add(CFA_XSP16, literal(-1)))
          CFI (cfiCond54) CFA_SP SP+-2
          CFI (cfiCond54) CFA_XSP16 add(XSP16, 35)
          CFI Block cfiCond55 Using cfiCommon0
          CFI (cfiCond55) Function MT_AfDataRequest
          CFI (cfiCond55) Conditional ??CrossCallReturnLabel_86
          CFI (cfiCond55) R6 load(1, XDATA, add(CFA_XSP16, literal(-20)))
          CFI (cfiCond55) VB load(1, XDATA, add(CFA_XSP16, literal(-19)))
          CFI (cfiCond55) V0 load(1, XDATA, add(CFA_XSP16, literal(-18)))
          CFI (cfiCond55) V1 load(1, XDATA, add(CFA_XSP16, literal(-17)))
          CFI (cfiCond55) V2 load(1, XDATA, add(CFA_XSP16, literal(-16)))
          CFI (cfiCond55) V3 load(1, XDATA, add(CFA_XSP16, literal(-15)))
          CFI (cfiCond55) V4 load(1, XDATA, add(CFA_XSP16, literal(-14)))
          CFI (cfiCond55) V5 load(1, XDATA, add(CFA_XSP16, literal(-13)))
          CFI (cfiCond55) V6 load(1, XDATA, add(CFA_XSP16, literal(-12)))
          CFI (cfiCond55) V7 load(1, XDATA, add(CFA_XSP16, literal(-11)))
          CFI (cfiCond55) V8 load(1, XDATA, add(CFA_XSP16, literal(-10)))
          CFI (cfiCond55) V9 load(1, XDATA, add(CFA_XSP16, literal(-9)))
          CFI (cfiCond55) V10 load(1, XDATA, add(CFA_XSP16, literal(-8)))
          CFI (cfiCond55) V11 load(1, XDATA, add(CFA_XSP16, literal(-7)))
          CFI (cfiCond55) R7 load(1, XDATA, add(CFA_XSP16, literal(-6)))
          CFI (cfiCond55) ?RET_LOW load(1, XDATA, add(CFA_XSP16, literal(-5)))
          CFI (cfiCond55) ?RET_HIGH load(1, XDATA, add(CFA_XSP16, literal(-4)))
          CFI (cfiCond55) ?BRET_EXT load(1, XDATA, add(CFA_XSP16, literal(-3)))
          CFI (cfiCond55) DPL0 load(1, XDATA, add(CFA_XSP16, literal(-2)))
          CFI (cfiCond55) DPH0 load(1, XDATA, add(CFA_XSP16, literal(-1)))
          CFI (cfiCond55) CFA_SP SP+-2
          CFI (cfiCond55) CFA_XSP16 add(XSP16, 35)
          CFI Block cfiCond56 Using cfiCommon0
          CFI (cfiCond56) Function MT_AfDataRequest
          CFI (cfiCond56) Conditional ??CrossCallReturnLabel_87
          CFI (cfiCond56) R6 load(1, XDATA, add(CFA_XSP16, literal(-20)))
          CFI (cfiCond56) VB load(1, XDATA, add(CFA_XSP16, literal(-19)))
          CFI (cfiCond56) V0 load(1, XDATA, add(CFA_XSP16, literal(-18)))
          CFI (cfiCond56) V1 load(1, XDATA, add(CFA_XSP16, literal(-17)))
          CFI (cfiCond56) V2 load(1, XDATA, add(CFA_XSP16, literal(-16)))
          CFI (cfiCond56) V3 load(1, XDATA, add(CFA_XSP16, literal(-15)))
          CFI (cfiCond56) V4 load(1, XDATA, add(CFA_XSP16, literal(-14)))
          CFI (cfiCond56) V5 load(1, XDATA, add(CFA_XSP16, literal(-13)))
          CFI (cfiCond56) V6 load(1, XDATA, add(CFA_XSP16, literal(-12)))
          CFI (cfiCond56) V7 load(1, XDATA, add(CFA_XSP16, literal(-11)))
          CFI (cfiCond56) V8 load(1, XDATA, add(CFA_XSP16, literal(-10)))
          CFI (cfiCond56) V9 load(1, XDATA, add(CFA_XSP16, literal(-9)))
          CFI (cfiCond56) V10 load(1, XDATA, add(CFA_XSP16, literal(-8)))
          CFI (cfiCond56) V11 load(1, XDATA, add(CFA_XSP16, literal(-7)))
          CFI (cfiCond56) R7 load(1, XDATA, add(CFA_XSP16, literal(-6)))
          CFI (cfiCond56) ?RET_LOW load(1, XDATA, add(CFA_XSP16, literal(-5)))
          CFI (cfiCond56) ?RET_HIGH load(1, XDATA, add(CFA_XSP16, literal(-4)))
          CFI (cfiCond56) ?BRET_EXT load(1, XDATA, add(CFA_XSP16, literal(-3)))
          CFI (cfiCond56) DPL0 load(1, XDATA, add(CFA_XSP16, literal(-2)))
          CFI (cfiCond56) DPH0 load(1, XDATA, add(CFA_XSP16, literal(-1)))
          CFI (cfiCond56) CFA_SP SP+-2
          CFI (cfiCond56) CFA_XSP16 add(XSP16, 35)
          CFI Block cfiPicker57 Using cfiCommon1
          CFI (cfiPicker57) NoFunction
          CFI (cfiPicker57) Picker
        MOV       DPTR,#pMtAfDataReq
          CFI EndBlock cfiCond51
          CFI EndBlock cfiCond52
          CFI EndBlock cfiCond53
          CFI EndBlock cfiCond54
          CFI EndBlock cfiCond55
          CFI EndBlock cfiCond56
          CFI EndBlock cfiPicker57
        REQUIRE ??Subroutine53_0
        ; // Fall through to label ??Subroutine53_0

        RSEG BANKED_CODE:HUGECODE:NOROOT(0)
??Subroutine53_0:
          CFI Block cfiCond58 Using cfiCommon0
          CFI Function MT_AfIncomingMsg
          CFI Conditional ??CrossCallReturnLabel_88
          CFI R6 load(1, XDATA, add(CFA_XSP16, literal(-20)))
          CFI VB load(1, XDATA, add(CFA_XSP16, literal(-19)))
          CFI V0 load(1, XDATA, add(CFA_XSP16, literal(-18)))
          CFI V1 load(1, XDATA, add(CFA_XSP16, literal(-17)))
          CFI V2 load(1, XDATA, add(CFA_XSP16, literal(-16)))
          CFI V3 load(1, XDATA, add(CFA_XSP16, literal(-15)))
          CFI V4 load(1, XDATA, add(CFA_XSP16, literal(-14)))
          CFI V5 load(1, XDATA, add(CFA_XSP16, literal(-13)))
          CFI V6 load(1, XDATA, add(CFA_XSP16, literal(-12)))
          CFI V7 load(1, XDATA, add(CFA_XSP16, literal(-11)))
          CFI V8 load(1, XDATA, add(CFA_XSP16, literal(-10)))
          CFI V9 load(1, XDATA, add(CFA_XSP16, literal(-9)))
          CFI V10 load(1, XDATA, add(CFA_XSP16, literal(-8)))
          CFI V11 load(1, XDATA, add(CFA_XSP16, literal(-7)))
          CFI R7 load(1, XDATA, add(CFA_XSP16, literal(-6)))
          CFI ?RET_LOW load(1, XDATA, add(CFA_XSP16, literal(-5)))
          CFI ?RET_HIGH load(1, XDATA, add(CFA_XSP16, literal(-4)))
          CFI ?BRET_EXT load(1, XDATA, add(CFA_XSP16, literal(-3)))
          CFI DPL0 load(1, XDATA, add(CFA_XSP16, literal(-2)))
          CFI DPH0 load(1, XDATA, add(CFA_XSP16, literal(-1)))
          CFI CFA_XSP16 add(XSP16, 23)
          CFI Block cfiCond59 Using cfiCommon0
          CFI (cfiCond59) Function MT_AfDataRequest
          CFI (cfiCond59) Conditional ??CrossCallReturnLabel_89
          CFI (cfiCond59) R6 load(1, XDATA, add(CFA_XSP16, literal(-20)))
          CFI (cfiCond59) VB load(1, XDATA, add(CFA_XSP16, literal(-19)))
          CFI (cfiCond59) V0 load(1, XDATA, add(CFA_XSP16, literal(-18)))
          CFI (cfiCond59) V1 load(1, XDATA, add(CFA_XSP16, literal(-17)))
          CFI (cfiCond59) V2 load(1, XDATA, add(CFA_XSP16, literal(-16)))
          CFI (cfiCond59) V3 load(1, XDATA, add(CFA_XSP16, literal(-15)))
          CFI (cfiCond59) V4 load(1, XDATA, add(CFA_XSP16, literal(-14)))
          CFI (cfiCond59) V5 load(1, XDATA, add(CFA_XSP16, literal(-13)))
          CFI (cfiCond59) V6 load(1, XDATA, add(CFA_XSP16, literal(-12)))
          CFI (cfiCond59) V7 load(1, XDATA, add(CFA_XSP16, literal(-11)))
          CFI (cfiCond59) V8 load(1, XDATA, add(CFA_XSP16, literal(-10)))
          CFI (cfiCond59) V9 load(1, XDATA, add(CFA_XSP16, literal(-9)))
          CFI (cfiCond59) V10 load(1, XDATA, add(CFA_XSP16, literal(-8)))
          CFI (cfiCond59) V11 load(1, XDATA, add(CFA_XSP16, literal(-7)))
          CFI (cfiCond59) R7 load(1, XDATA, add(CFA_XSP16, literal(-6)))
          CFI (cfiCond59) ?RET_LOW load(1, XDATA, add(CFA_XSP16, literal(-5)))
          CFI (cfiCond59) ?RET_HIGH load(1, XDATA, add(CFA_XSP16, literal(-4)))
          CFI (cfiCond59) ?BRET_EXT load(1, XDATA, add(CFA_XSP16, literal(-3)))
          CFI (cfiCond59) DPL0 load(1, XDATA, add(CFA_XSP16, literal(-2)))
          CFI (cfiCond59) DPH0 load(1, XDATA, add(CFA_XSP16, literal(-1)))
          CFI (cfiCond59) CFA_SP SP+-2
          CFI (cfiCond59) CFA_XSP16 add(XSP16, 35)
          CFI Block cfiCond60 Using cfiCommon0
          CFI (cfiCond60) Function MT_AfDataRequest
          CFI (cfiCond60) Conditional ??CrossCallReturnLabel_90
          CFI (cfiCond60) R6 load(1, XDATA, add(CFA_XSP16, literal(-20)))
          CFI (cfiCond60) VB load(1, XDATA, add(CFA_XSP16, literal(-19)))
          CFI (cfiCond60) V0 load(1, XDATA, add(CFA_XSP16, literal(-18)))
          CFI (cfiCond60) V1 load(1, XDATA, add(CFA_XSP16, literal(-17)))
          CFI (cfiCond60) V2 load(1, XDATA, add(CFA_XSP16, literal(-16)))
          CFI (cfiCond60) V3 load(1, XDATA, add(CFA_XSP16, literal(-15)))
          CFI (cfiCond60) V4 load(1, XDATA, add(CFA_XSP16, literal(-14)))
          CFI (cfiCond60) V5 load(1, XDATA, add(CFA_XSP16, literal(-13)))
          CFI (cfiCond60) V6 load(1, XDATA, add(CFA_XSP16, literal(-12)))
          CFI (cfiCond60) V7 load(1, XDATA, add(CFA_XSP16, literal(-11)))
          CFI (cfiCond60) V8 load(1, XDATA, add(CFA_XSP16, literal(-10)))
          CFI (cfiCond60) V9 load(1, XDATA, add(CFA_XSP16, literal(-9)))
          CFI (cfiCond60) V10 load(1, XDATA, add(CFA_XSP16, literal(-8)))
          CFI (cfiCond60) V11 load(1, XDATA, add(CFA_XSP16, literal(-7)))
          CFI (cfiCond60) R7 load(1, XDATA, add(CFA_XSP16, literal(-6)))
          CFI (cfiCond60) ?RET_LOW load(1, XDATA, add(CFA_XSP16, literal(-5)))
          CFI (cfiCond60) ?RET_HIGH load(1, XDATA, add(CFA_XSP16, literal(-4)))
          CFI (cfiCond60) ?BRET_EXT load(1, XDATA, add(CFA_XSP16, literal(-3)))
          CFI (cfiCond60) DPL0 load(1, XDATA, add(CFA_XSP16, literal(-2)))
          CFI (cfiCond60) DPH0 load(1, XDATA, add(CFA_XSP16, literal(-1)))
          CFI (cfiCond60) CFA_XSP16 add(XSP16, 35)
          CFI Block cfiCond61 Using cfiCommon0
          CFI (cfiCond61) Function MT_AfDataRequest
          CFI (cfiCond61) Conditional ??CrossCallReturnLabel_84
          CFI (cfiCond61) R6 load(1, XDATA, add(CFA_XSP16, literal(-20)))
          CFI (cfiCond61) VB load(1, XDATA, add(CFA_XSP16, literal(-19)))
          CFI (cfiCond61) V0 load(1, XDATA, add(CFA_XSP16, literal(-18)))
          CFI (cfiCond61) V1 load(1, XDATA, add(CFA_XSP16, literal(-17)))
          CFI (cfiCond61) V2 load(1, XDATA, add(CFA_XSP16, literal(-16)))
          CFI (cfiCond61) V3 load(1, XDATA, add(CFA_XSP16, literal(-15)))
          CFI (cfiCond61) V4 load(1, XDATA, add(CFA_XSP16, literal(-14)))
          CFI (cfiCond61) V5 load(1, XDATA, add(CFA_XSP16, literal(-13)))
          CFI (cfiCond61) V6 load(1, XDATA, add(CFA_XSP16, literal(-12)))
          CFI (cfiCond61) V7 load(1, XDATA, add(CFA_XSP16, literal(-11)))
          CFI (cfiCond61) V8 load(1, XDATA, add(CFA_XSP16, literal(-10)))
          CFI (cfiCond61) V9 load(1, XDATA, add(CFA_XSP16, literal(-9)))
          CFI (cfiCond61) V10 load(1, XDATA, add(CFA_XSP16, literal(-8)))
          CFI (cfiCond61) V11 load(1, XDATA, add(CFA_XSP16, literal(-7)))
          CFI (cfiCond61) R7 load(1, XDATA, add(CFA_XSP16, literal(-6)))
          CFI (cfiCond61) ?RET_LOW load(1, XDATA, add(CFA_XSP16, literal(-5)))
          CFI (cfiCond61) ?RET_HIGH load(1, XDATA, add(CFA_XSP16, literal(-4)))
          CFI (cfiCond61) ?BRET_EXT load(1, XDATA, add(CFA_XSP16, literal(-3)))
          CFI (cfiCond61) DPL0 load(1, XDATA, add(CFA_XSP16, literal(-2)))
          CFI (cfiCond61) DPH0 load(1, XDATA, add(CFA_XSP16, literal(-1)))
          CFI (cfiCond61) CFA_SP SP+-2
          CFI (cfiCond61) CFA_XSP16 add(XSP16, 35)
          CFI Block cfiCond62 Using cfiCommon0
          CFI (cfiCond62) Function MT_AfDataRequest
          CFI (cfiCond62) Conditional ??CrossCallReturnLabel_85
          CFI (cfiCond62) R6 load(1, XDATA, add(CFA_XSP16, literal(-20)))
          CFI (cfiCond62) VB load(1, XDATA, add(CFA_XSP16, literal(-19)))
          CFI (cfiCond62) V0 load(1, XDATA, add(CFA_XSP16, literal(-18)))
          CFI (cfiCond62) V1 load(1, XDATA, add(CFA_XSP16, literal(-17)))
          CFI (cfiCond62) V2 load(1, XDATA, add(CFA_XSP16, literal(-16)))
          CFI (cfiCond62) V3 load(1, XDATA, add(CFA_XSP16, literal(-15)))
          CFI (cfiCond62) V4 load(1, XDATA, add(CFA_XSP16, literal(-14)))
          CFI (cfiCond62) V5 load(1, XDATA, add(CFA_XSP16, literal(-13)))
          CFI (cfiCond62) V6 load(1, XDATA, add(CFA_XSP16, literal(-12)))
          CFI (cfiCond62) V7 load(1, XDATA, add(CFA_XSP16, literal(-11)))
          CFI (cfiCond62) V8 load(1, XDATA, add(CFA_XSP16, literal(-10)))
          CFI (cfiCond62) V9 load(1, XDATA, add(CFA_XSP16, literal(-9)))
          CFI (cfiCond62) V10 load(1, XDATA, add(CFA_XSP16, literal(-8)))
          CFI (cfiCond62) V11 load(1, XDATA, add(CFA_XSP16, literal(-7)))
          CFI (cfiCond62) R7 load(1, XDATA, add(CFA_XSP16, literal(-6)))
          CFI (cfiCond62) ?RET_LOW load(1, XDATA, add(CFA_XSP16, literal(-5)))
          CFI (cfiCond62) ?RET_HIGH load(1, XDATA, add(CFA_XSP16, literal(-4)))
          CFI (cfiCond62) ?BRET_EXT load(1, XDATA, add(CFA_XSP16, literal(-3)))
          CFI (cfiCond62) DPL0 load(1, XDATA, add(CFA_XSP16, literal(-2)))
          CFI (cfiCond62) DPH0 load(1, XDATA, add(CFA_XSP16, literal(-1)))
          CFI (cfiCond62) CFA_SP SP+-2
          CFI (cfiCond62) CFA_XSP16 add(XSP16, 35)
          CFI Block cfiCond63 Using cfiCommon0
          CFI (cfiCond63) Function MT_AfDataRequest
          CFI (cfiCond63) Conditional ??CrossCallReturnLabel_86
          CFI (cfiCond63) R6 load(1, XDATA, add(CFA_XSP16, literal(-20)))
          CFI (cfiCond63) VB load(1, XDATA, add(CFA_XSP16, literal(-19)))
          CFI (cfiCond63) V0 load(1, XDATA, add(CFA_XSP16, literal(-18)))
          CFI (cfiCond63) V1 load(1, XDATA, add(CFA_XSP16, literal(-17)))
          CFI (cfiCond63) V2 load(1, XDATA, add(CFA_XSP16, literal(-16)))
          CFI (cfiCond63) V3 load(1, XDATA, add(CFA_XSP16, literal(-15)))
          CFI (cfiCond63) V4 load(1, XDATA, add(CFA_XSP16, literal(-14)))
          CFI (cfiCond63) V5 load(1, XDATA, add(CFA_XSP16, literal(-13)))
          CFI (cfiCond63) V6 load(1, XDATA, add(CFA_XSP16, literal(-12)))
          CFI (cfiCond63) V7 load(1, XDATA, add(CFA_XSP16, literal(-11)))
          CFI (cfiCond63) V8 load(1, XDATA, add(CFA_XSP16, literal(-10)))
          CFI (cfiCond63) V9 load(1, XDATA, add(CFA_XSP16, literal(-9)))
          CFI (cfiCond63) V10 load(1, XDATA, add(CFA_XSP16, literal(-8)))
          CFI (cfiCond63) V11 load(1, XDATA, add(CFA_XSP16, literal(-7)))
          CFI (cfiCond63) R7 load(1, XDATA, add(CFA_XSP16, literal(-6)))
          CFI (cfiCond63) ?RET_LOW load(1, XDATA, add(CFA_XSP16, literal(-5)))
          CFI (cfiCond63) ?RET_HIGH load(1, XDATA, add(CFA_XSP16, literal(-4)))
          CFI (cfiCond63) ?BRET_EXT load(1, XDATA, add(CFA_XSP16, literal(-3)))
          CFI (cfiCond63) DPL0 load(1, XDATA, add(CFA_XSP16, literal(-2)))
          CFI (cfiCond63) DPH0 load(1, XDATA, add(CFA_XSP16, literal(-1)))
          CFI (cfiCond63) CFA_SP SP+-2
          CFI (cfiCond63) CFA_XSP16 add(XSP16, 35)
          CFI Block cfiCond64 Using cfiCommon0
          CFI (cfiCond64) Function MT_AfDataRequest
          CFI (cfiCond64) Conditional ??CrossCallReturnLabel_87
          CFI (cfiCond64) R6 load(1, XDATA, add(CFA_XSP16, literal(-20)))
          CFI (cfiCond64) VB load(1, XDATA, add(CFA_XSP16, literal(-19)))
          CFI (cfiCond64) V0 load(1, XDATA, add(CFA_XSP16, literal(-18)))
          CFI (cfiCond64) V1 load(1, XDATA, add(CFA_XSP16, literal(-17)))
          CFI (cfiCond64) V2 load(1, XDATA, add(CFA_XSP16, literal(-16)))
          CFI (cfiCond64) V3 load(1, XDATA, add(CFA_XSP16, literal(-15)))
          CFI (cfiCond64) V4 load(1, XDATA, add(CFA_XSP16, literal(-14)))
          CFI (cfiCond64) V5 load(1, XDATA, add(CFA_XSP16, literal(-13)))
          CFI (cfiCond64) V6 load(1, XDATA, add(CFA_XSP16, literal(-12)))
          CFI (cfiCond64) V7 load(1, XDATA, add(CFA_XSP16, literal(-11)))
          CFI (cfiCond64) V8 load(1, XDATA, add(CFA_XSP16, literal(-10)))
          CFI (cfiCond64) V9 load(1, XDATA, add(CFA_XSP16, literal(-9)))
          CFI (cfiCond64) V10 load(1, XDATA, add(CFA_XSP16, literal(-8)))
          CFI (cfiCond64) V11 load(1, XDATA, add(CFA_XSP16, literal(-7)))
          CFI (cfiCond64) R7 load(1, XDATA, add(CFA_XSP16, literal(-6)))
          CFI (cfiCond64) ?RET_LOW load(1, XDATA, add(CFA_XSP16, literal(-5)))
          CFI (cfiCond64) ?RET_HIGH load(1, XDATA, add(CFA_XSP16, literal(-4)))
          CFI (cfiCond64) ?BRET_EXT load(1, XDATA, add(CFA_XSP16, literal(-3)))
          CFI (cfiCond64) DPL0 load(1, XDATA, add(CFA_XSP16, literal(-2)))
          CFI (cfiCond64) DPH0 load(1, XDATA, add(CFA_XSP16, literal(-1)))
          CFI (cfiCond64) CFA_SP SP+-2
          CFI (cfiCond64) CFA_XSP16 add(XSP16, 35)
          CFI Block cfiPicker65 Using cfiCommon1
          CFI (cfiPicker65) NoFunction
          CFI (cfiPicker65) Picker
        LCALL     ?Subroutine50 & 0xFFFF
??CrossCallReturnLabel_142:
        XCH       A,R0
        RET
          CFI EndBlock cfiCond58
          CFI EndBlock cfiCond59
          CFI EndBlock cfiCond60
          CFI EndBlock cfiCond61
          CFI EndBlock cfiCond62
          CFI EndBlock cfiCond63
          CFI EndBlock cfiCond64
          CFI EndBlock cfiPicker65

        RSEG BANKED_CODE:HUGECODE:NOROOT(0)
?Subroutine12:
          CFI Block cfiCond66 Using cfiCommon0
          CFI Function MT_AfExec
          CFI Conditional ??CrossCallReturnLabel_16
          CFI R6 load(1, XDATA, add(CFA_XSP16, literal(-9)))
          CFI VB load(1, XDATA, add(CFA_XSP16, literal(-8)))
          CFI V0 load(1, XDATA, add(CFA_XSP16, literal(-7)))
          CFI R7 load(1, XDATA, add(CFA_XSP16, literal(-6)))
          CFI ?RET_LOW load(1, XDATA, add(CFA_XSP16, literal(-5)))
          CFI ?RET_HIGH load(1, XDATA, add(CFA_XSP16, literal(-4)))
          CFI ?BRET_EXT load(1, XDATA, add(CFA_XSP16, literal(-3)))
          CFI DPL0 load(1, XDATA, add(CFA_XSP16, literal(-2)))
          CFI DPH0 load(1, XDATA, add(CFA_XSP16, literal(-1)))
          CFI CFA_SP SP+-2
          CFI CFA_XSP16 add(XSP16, 9)
          CFI Block cfiCond67 Using cfiCommon0
          CFI (cfiCond67) Function MT_AfDataRequest
          CFI (cfiCond67) Conditional ??CrossCallReturnLabel_15
          CFI (cfiCond67) R6 load(1, XDATA, add(CFA_XSP16, literal(-20)))
          CFI (cfiCond67) VB load(1, XDATA, add(CFA_XSP16, literal(-19)))
          CFI (cfiCond67) V0 load(1, XDATA, add(CFA_XSP16, literal(-18)))
          CFI (cfiCond67) V1 load(1, XDATA, add(CFA_XSP16, literal(-17)))
          CFI (cfiCond67) V2 load(1, XDATA, add(CFA_XSP16, literal(-16)))
          CFI (cfiCond67) V3 load(1, XDATA, add(CFA_XSP16, literal(-15)))
          CFI (cfiCond67) V4 load(1, XDATA, add(CFA_XSP16, literal(-14)))
          CFI (cfiCond67) V5 load(1, XDATA, add(CFA_XSP16, literal(-13)))
          CFI (cfiCond67) V6 load(1, XDATA, add(CFA_XSP16, literal(-12)))
          CFI (cfiCond67) V7 load(1, XDATA, add(CFA_XSP16, literal(-11)))
          CFI (cfiCond67) V8 load(1, XDATA, add(CFA_XSP16, literal(-10)))
          CFI (cfiCond67) V9 load(1, XDATA, add(CFA_XSP16, literal(-9)))
          CFI (cfiCond67) V10 load(1, XDATA, add(CFA_XSP16, literal(-8)))
          CFI (cfiCond67) V11 load(1, XDATA, add(CFA_XSP16, literal(-7)))
          CFI (cfiCond67) R7 load(1, XDATA, add(CFA_XSP16, literal(-6)))
          CFI (cfiCond67) ?RET_LOW load(1, XDATA, add(CFA_XSP16, literal(-5)))
          CFI (cfiCond67) ?RET_HIGH load(1, XDATA, add(CFA_XSP16, literal(-4)))
          CFI (cfiCond67) ?BRET_EXT load(1, XDATA, add(CFA_XSP16, literal(-3)))
          CFI (cfiCond67) DPL0 load(1, XDATA, add(CFA_XSP16, literal(-2)))
          CFI (cfiCond67) DPH0 load(1, XDATA, add(CFA_XSP16, literal(-1)))
          CFI (cfiCond67) CFA_SP SP+-2
          CFI (cfiCond67) CFA_XSP16 add(XSP16, 35)
          CFI Block cfiPicker68 Using cfiCommon1
          CFI (cfiPicker68) NoFunction
          CFI (cfiPicker68) Picker
        MOVX      @DPTR,A
        MOV       DPTR,#pMtAfDataReq
        LCALL     ?Subroutine50 & 0xFFFF
??CrossCallReturnLabel_141:
        XCH       A,R0
        ADD       A,#0x17
        MOV       DPL,A
        CLR       A
        ADDC      A,R0
        MOV       DPH,A
        RET
          CFI EndBlock cfiCond66
          CFI EndBlock cfiCond67
          CFI EndBlock cfiPicker68

        RSEG BANKED_CODE:HUGECODE:NOROOT(0)
?Subroutine7:
          CFI Block cfiCond69 Using cfiCommon0
          CFI Function MT_AfDataRequest
          CFI Conditional ??CrossCallReturnLabel_93
          CFI R6 load(1, XDATA, add(CFA_XSP16, literal(-20)))
          CFI VB load(1, XDATA, add(CFA_XSP16, literal(-19)))
          CFI V0 load(1, XDATA, add(CFA_XSP16, literal(-18)))
          CFI V1 load(1, XDATA, add(CFA_XSP16, literal(-17)))
          CFI V2 load(1, XDATA, add(CFA_XSP16, literal(-16)))
          CFI V3 load(1, XDATA, add(CFA_XSP16, literal(-15)))
          CFI V4 load(1, XDATA, add(CFA_XSP16, literal(-14)))
          CFI V5 load(1, XDATA, add(CFA_XSP16, literal(-13)))
          CFI V6 load(1, XDATA, add(CFA_XSP16, literal(-12)))
          CFI V7 load(1, XDATA, add(CFA_XSP16, literal(-11)))
          CFI V8 load(1, XDATA, add(CFA_XSP16, literal(-10)))
          CFI V9 load(1, XDATA, add(CFA_XSP16, literal(-9)))
          CFI V10 load(1, XDATA, add(CFA_XSP16, literal(-8)))
          CFI V11 load(1, XDATA, add(CFA_XSP16, literal(-7)))
          CFI R7 load(1, XDATA, add(CFA_XSP16, literal(-6)))
          CFI ?RET_LOW load(1, XDATA, add(CFA_XSP16, literal(-5)))
          CFI ?RET_HIGH load(1, XDATA, add(CFA_XSP16, literal(-4)))
          CFI ?BRET_EXT load(1, XDATA, add(CFA_XSP16, literal(-3)))
          CFI DPL0 load(1, XDATA, add(CFA_XSP16, literal(-2)))
          CFI DPH0 load(1, XDATA, add(CFA_XSP16, literal(-1)))
          CFI CFA_SP SP+-2
          CFI CFA_XSP16 add(XSP16, 35)
          CFI Block cfiCond70 Using cfiCommon0
          CFI (cfiCond70) Function MT_AfDataStore
          CFI (cfiCond70) Conditional ??CrossCallReturnLabel_94
          CFI (cfiCond70) R6 load(1, XDATA, add(CFA_XSP16, literal(-11)))
          CFI (cfiCond70) VB load(1, XDATA, add(CFA_XSP16, literal(-10)))
          CFI (cfiCond70) V0 load(1, XDATA, add(CFA_XSP16, literal(-9)))
          CFI (cfiCond70) V1 load(1, XDATA, add(CFA_XSP16, literal(-8)))
          CFI (cfiCond70) V2 load(1, XDATA, add(CFA_XSP16, literal(-7)))
          CFI (cfiCond70) R7 load(1, XDATA, add(CFA_XSP16, literal(-6)))
          CFI (cfiCond70) ?RET_LOW load(1, XDATA, add(CFA_XSP16, literal(-5)))
          CFI (cfiCond70) ?RET_HIGH load(1, XDATA, add(CFA_XSP16, literal(-4)))
          CFI (cfiCond70) ?BRET_EXT load(1, XDATA, add(CFA_XSP16, literal(-3)))
          CFI (cfiCond70) DPL0 load(1, XDATA, add(CFA_XSP16, literal(-2)))
          CFI (cfiCond70) DPH0 load(1, XDATA, add(CFA_XSP16, literal(-1)))
          CFI (cfiCond70) CFA_SP SP+-2
          CFI (cfiCond70) CFA_XSP16 add(XSP16, 15)
          CFI Block cfiCond71 Using cfiCommon0
          CFI (cfiCond71) Function MT_AfDataStore
          CFI (cfiCond71) Conditional ??CrossCallReturnLabel_95
          CFI (cfiCond71) R6 load(1, XDATA, add(CFA_XSP16, literal(-11)))
          CFI (cfiCond71) VB load(1, XDATA, add(CFA_XSP16, literal(-10)))
          CFI (cfiCond71) V0 load(1, XDATA, add(CFA_XSP16, literal(-9)))
          CFI (cfiCond71) V1 load(1, XDATA, add(CFA_XSP16, literal(-8)))
          CFI (cfiCond71) V2 load(1, XDATA, add(CFA_XSP16, literal(-7)))
          CFI (cfiCond71) R7 load(1, XDATA, add(CFA_XSP16, literal(-6)))
          CFI (cfiCond71) ?RET_LOW load(1, XDATA, add(CFA_XSP16, literal(-5)))
          CFI (cfiCond71) ?RET_HIGH load(1, XDATA, add(CFA_XSP16, literal(-4)))
          CFI (cfiCond71) ?BRET_EXT load(1, XDATA, add(CFA_XSP16, literal(-3)))
          CFI (cfiCond71) DPL0 load(1, XDATA, add(CFA_XSP16, literal(-2)))
          CFI (cfiCond71) DPH0 load(1, XDATA, add(CFA_XSP16, literal(-1)))
          CFI (cfiCond71) CFA_SP SP+-2
          CFI (cfiCond71) CFA_XSP16 add(XSP16, 15)
          CFI Block cfiPicker72 Using cfiCommon1
          CFI (cfiPicker72) NoFunction
          CFI (cfiPicker72) Picker
        MOV       DPTR,#pMtAfDataReq
          CFI EndBlock cfiCond69
          CFI EndBlock cfiCond70
          CFI EndBlock cfiCond71
          CFI EndBlock cfiPicker72
        REQUIRE ??Subroutine54_0
        ; // Fall through to label ??Subroutine54_0

        RSEG BANKED_CODE:HUGECODE:NOROOT(0)
??Subroutine54_0:
          CFI Block cfiCond73 Using cfiCommon0
          CFI Function MT_AfIncomingMsg
          CFI Conditional ??CrossCallReturnLabel_91
          CFI R6 load(1, XDATA, add(CFA_XSP16, literal(-20)))
          CFI VB load(1, XDATA, add(CFA_XSP16, literal(-19)))
          CFI V0 load(1, XDATA, add(CFA_XSP16, literal(-18)))
          CFI V1 load(1, XDATA, add(CFA_XSP16, literal(-17)))
          CFI V2 load(1, XDATA, add(CFA_XSP16, literal(-16)))
          CFI V3 load(1, XDATA, add(CFA_XSP16, literal(-15)))
          CFI V4 load(1, XDATA, add(CFA_XSP16, literal(-14)))
          CFI V5 load(1, XDATA, add(CFA_XSP16, literal(-13)))
          CFI V6 load(1, XDATA, add(CFA_XSP16, literal(-12)))
          CFI V7 load(1, XDATA, add(CFA_XSP16, literal(-11)))
          CFI V8 load(1, XDATA, add(CFA_XSP16, literal(-10)))
          CFI V9 load(1, XDATA, add(CFA_XSP16, literal(-9)))
          CFI V10 load(1, XDATA, add(CFA_XSP16, literal(-8)))
          CFI V11 load(1, XDATA, add(CFA_XSP16, literal(-7)))
          CFI R7 load(1, XDATA, add(CFA_XSP16, literal(-6)))
          CFI ?RET_LOW load(1, XDATA, add(CFA_XSP16, literal(-5)))
          CFI ?RET_HIGH load(1, XDATA, add(CFA_XSP16, literal(-4)))
          CFI ?BRET_EXT load(1, XDATA, add(CFA_XSP16, literal(-3)))
          CFI DPL0 load(1, XDATA, add(CFA_XSP16, literal(-2)))
          CFI DPH0 load(1, XDATA, add(CFA_XSP16, literal(-1)))
          CFI CFA_XSP16 add(XSP16, 23)
          CFI Block cfiCond74 Using cfiCommon0
          CFI (cfiCond74) Function MT_AfIncomingMsg
          CFI (cfiCond74) Conditional ??CrossCallReturnLabel_92
          CFI (cfiCond74) R6 load(1, XDATA, add(CFA_XSP16, literal(-20)))
          CFI (cfiCond74) VB load(1, XDATA, add(CFA_XSP16, literal(-19)))
          CFI (cfiCond74) V0 load(1, XDATA, add(CFA_XSP16, literal(-18)))
          CFI (cfiCond74) V1 load(1, XDATA, add(CFA_XSP16, literal(-17)))
          CFI (cfiCond74) V2 load(1, XDATA, add(CFA_XSP16, literal(-16)))
          CFI (cfiCond74) V3 load(1, XDATA, add(CFA_XSP16, literal(-15)))
          CFI (cfiCond74) V4 load(1, XDATA, add(CFA_XSP16, literal(-14)))
          CFI (cfiCond74) V5 load(1, XDATA, add(CFA_XSP16, literal(-13)))
          CFI (cfiCond74) V6 load(1, XDATA, add(CFA_XSP16, literal(-12)))
          CFI (cfiCond74) V7 load(1, XDATA, add(CFA_XSP16, literal(-11)))
          CFI (cfiCond74) V8 load(1, XDATA, add(CFA_XSP16, literal(-10)))
          CFI (cfiCond74) V9 load(1, XDATA, add(CFA_XSP16, literal(-9)))
          CFI (cfiCond74) V10 load(1, XDATA, add(CFA_XSP16, literal(-8)))
          CFI (cfiCond74) V11 load(1, XDATA, add(CFA_XSP16, literal(-7)))
          CFI (cfiCond74) R7 load(1, XDATA, add(CFA_XSP16, literal(-6)))
          CFI (cfiCond74) ?RET_LOW load(1, XDATA, add(CFA_XSP16, literal(-5)))
          CFI (cfiCond74) ?RET_HIGH load(1, XDATA, add(CFA_XSP16, literal(-4)))
          CFI (cfiCond74) ?BRET_EXT load(1, XDATA, add(CFA_XSP16, literal(-3)))
          CFI (cfiCond74) DPL0 load(1, XDATA, add(CFA_XSP16, literal(-2)))
          CFI (cfiCond74) DPH0 load(1, XDATA, add(CFA_XSP16, literal(-1)))
          CFI (cfiCond74) CFA_XSP16 add(XSP16, 23)
          CFI Block cfiCond75 Using cfiCommon0
          CFI (cfiCond75) Function MT_AfDataRequest
          CFI (cfiCond75) Conditional ??CrossCallReturnLabel_93
          CFI (cfiCond75) R6 load(1, XDATA, add(CFA_XSP16, literal(-20)))
          CFI (cfiCond75) VB load(1, XDATA, add(CFA_XSP16, literal(-19)))
          CFI (cfiCond75) V0 load(1, XDATA, add(CFA_XSP16, literal(-18)))
          CFI (cfiCond75) V1 load(1, XDATA, add(CFA_XSP16, literal(-17)))
          CFI (cfiCond75) V2 load(1, XDATA, add(CFA_XSP16, literal(-16)))
          CFI (cfiCond75) V3 load(1, XDATA, add(CFA_XSP16, literal(-15)))
          CFI (cfiCond75) V4 load(1, XDATA, add(CFA_XSP16, literal(-14)))
          CFI (cfiCond75) V5 load(1, XDATA, add(CFA_XSP16, literal(-13)))
          CFI (cfiCond75) V6 load(1, XDATA, add(CFA_XSP16, literal(-12)))
          CFI (cfiCond75) V7 load(1, XDATA, add(CFA_XSP16, literal(-11)))
          CFI (cfiCond75) V8 load(1, XDATA, add(CFA_XSP16, literal(-10)))
          CFI (cfiCond75) V9 load(1, XDATA, add(CFA_XSP16, literal(-9)))
          CFI (cfiCond75) V10 load(1, XDATA, add(CFA_XSP16, literal(-8)))
          CFI (cfiCond75) V11 load(1, XDATA, add(CFA_XSP16, literal(-7)))
          CFI (cfiCond75) R7 load(1, XDATA, add(CFA_XSP16, literal(-6)))
          CFI (cfiCond75) ?RET_LOW load(1, XDATA, add(CFA_XSP16, literal(-5)))
          CFI (cfiCond75) ?RET_HIGH load(1, XDATA, add(CFA_XSP16, literal(-4)))
          CFI (cfiCond75) ?BRET_EXT load(1, XDATA, add(CFA_XSP16, literal(-3)))
          CFI (cfiCond75) DPL0 load(1, XDATA, add(CFA_XSP16, literal(-2)))
          CFI (cfiCond75) DPH0 load(1, XDATA, add(CFA_XSP16, literal(-1)))
          CFI (cfiCond75) CFA_SP SP+-2
          CFI (cfiCond75) CFA_XSP16 add(XSP16, 35)
          CFI Block cfiCond76 Using cfiCommon0
          CFI (cfiCond76) Function MT_AfDataStore
          CFI (cfiCond76) Conditional ??CrossCallReturnLabel_94
          CFI (cfiCond76) R6 load(1, XDATA, add(CFA_XSP16, literal(-11)))
          CFI (cfiCond76) VB load(1, XDATA, add(CFA_XSP16, literal(-10)))
          CFI (cfiCond76) V0 load(1, XDATA, add(CFA_XSP16, literal(-9)))
          CFI (cfiCond76) V1 load(1, XDATA, add(CFA_XSP16, literal(-8)))
          CFI (cfiCond76) V2 load(1, XDATA, add(CFA_XSP16, literal(-7)))
          CFI (cfiCond76) R7 load(1, XDATA, add(CFA_XSP16, literal(-6)))
          CFI (cfiCond76) ?RET_LOW load(1, XDATA, add(CFA_XSP16, literal(-5)))
          CFI (cfiCond76) ?RET_HIGH load(1, XDATA, add(CFA_XSP16, literal(-4)))
          CFI (cfiCond76) ?BRET_EXT load(1, XDATA, add(CFA_XSP16, literal(-3)))
          CFI (cfiCond76) DPL0 load(1, XDATA, add(CFA_XSP16, literal(-2)))
          CFI (cfiCond76) DPH0 load(1, XDATA, add(CFA_XSP16, literal(-1)))
          CFI (cfiCond76) CFA_SP SP+-2
          CFI (cfiCond76) CFA_XSP16 add(XSP16, 15)
          CFI Block cfiCond77 Using cfiCommon0
          CFI (cfiCond77) Function MT_AfDataStore
          CFI (cfiCond77) Conditional ??CrossCallReturnLabel_95
          CFI (cfiCond77) R6 load(1, XDATA, add(CFA_XSP16, literal(-11)))
          CFI (cfiCond77) VB load(1, XDATA, add(CFA_XSP16, literal(-10)))
          CFI (cfiCond77) V0 load(1, XDATA, add(CFA_XSP16, literal(-9)))
          CFI (cfiCond77) V1 load(1, XDATA, add(CFA_XSP16, literal(-8)))
          CFI (cfiCond77) V2 load(1, XDATA, add(CFA_XSP16, literal(-7)))
          CFI (cfiCond77) R7 load(1, XDATA, add(CFA_XSP16, literal(-6)))
          CFI (cfiCond77) ?RET_LOW load(1, XDATA, add(CFA_XSP16, literal(-5)))
          CFI (cfiCond77) ?RET_HIGH load(1, XDATA, add(CFA_XSP16, literal(-4)))
          CFI (cfiCond77) ?BRET_EXT load(1, XDATA, add(CFA_XSP16, literal(-3)))
          CFI (cfiCond77) DPL0 load(1, XDATA, add(CFA_XSP16, literal(-2)))
          CFI (cfiCond77) DPH0 load(1, XDATA, add(CFA_XSP16, literal(-1)))
          CFI (cfiCond77) CFA_SP SP+-2
          CFI (cfiCond77) CFA_XSP16 add(XSP16, 15)
          CFI Block cfiPicker78 Using cfiCommon1
          CFI (cfiPicker78) NoFunction
          CFI (cfiPicker78) Picker
        LCALL     ?Subroutine42 & 0xFFFF
??CrossCallReturnLabel_97:
        RET
          CFI EndBlock cfiCond73
          CFI EndBlock cfiCond74
          CFI EndBlock cfiCond75
          CFI EndBlock cfiCond76
          CFI EndBlock cfiCond77
          CFI EndBlock cfiPicker78

        RSEG BANKED_CODE:HUGECODE:NOROOT(0)
?Subroutine42:
          CFI Block cfiCond79 Using cfiCommon0
          CFI Function MT_AfDataRequest
          CFI Conditional ??CrossCallReturnLabel_97, ??CrossCallReturnLabel_93
          CFI R6 load(1, XDATA, add(CFA_XSP16, literal(-20)))
          CFI VB load(1, XDATA, add(CFA_XSP16, literal(-19)))
          CFI V0 load(1, XDATA, add(CFA_XSP16, literal(-18)))
          CFI V1 load(1, XDATA, add(CFA_XSP16, literal(-17)))
          CFI V2 load(1, XDATA, add(CFA_XSP16, literal(-16)))
          CFI V3 load(1, XDATA, add(CFA_XSP16, literal(-15)))
          CFI V4 load(1, XDATA, add(CFA_XSP16, literal(-14)))
          CFI V5 load(1, XDATA, add(CFA_XSP16, literal(-13)))
          CFI V6 load(1, XDATA, add(CFA_XSP16, literal(-12)))
          CFI V7 load(1, XDATA, add(CFA_XSP16, literal(-11)))
          CFI V8 load(1, XDATA, add(CFA_XSP16, literal(-10)))
          CFI V9 load(1, XDATA, add(CFA_XSP16, literal(-9)))
          CFI V10 load(1, XDATA, add(CFA_XSP16, literal(-8)))
          CFI V11 load(1, XDATA, add(CFA_XSP16, literal(-7)))
          CFI R7 load(1, XDATA, add(CFA_XSP16, literal(-6)))
          CFI ?RET_LOW load(1, XDATA, add(CFA_XSP16, literal(-5)))
          CFI ?RET_HIGH load(1, XDATA, add(CFA_XSP16, literal(-4)))
          CFI ?BRET_EXT load(1, XDATA, add(CFA_XSP16, literal(-3)))
          CFI DPL0 load(1, XDATA, add(CFA_XSP16, literal(-2)))
          CFI DPH0 load(1, XDATA, add(CFA_XSP16, literal(-1)))
          CFI CFA_SP SP+-4
          CFI CFA_XSP16 add(XSP16, 35)
          CFI Block cfiCond80 Using cfiCommon0
          CFI (cfiCond80) Function MT_AfDataStore
          CFI (cfiCond80) Conditional ??CrossCallReturnLabel_97, ??CrossCallReturnLabel_94
          CFI (cfiCond80) R6 load(1, XDATA, add(CFA_XSP16, literal(-11)))
          CFI (cfiCond80) VB load(1, XDATA, add(CFA_XSP16, literal(-10)))
          CFI (cfiCond80) V0 load(1, XDATA, add(CFA_XSP16, literal(-9)))
          CFI (cfiCond80) V1 load(1, XDATA, add(CFA_XSP16, literal(-8)))
          CFI (cfiCond80) V2 load(1, XDATA, add(CFA_XSP16, literal(-7)))
          CFI (cfiCond80) R7 load(1, XDATA, add(CFA_XSP16, literal(-6)))
          CFI (cfiCond80) ?RET_LOW load(1, XDATA, add(CFA_XSP16, literal(-5)))
          CFI (cfiCond80) ?RET_HIGH load(1, XDATA, add(CFA_XSP16, literal(-4)))
          CFI (cfiCond80) ?BRET_EXT load(1, XDATA, add(CFA_XSP16, literal(-3)))
          CFI (cfiCond80) DPL0 load(1, XDATA, add(CFA_XSP16, literal(-2)))
          CFI (cfiCond80) DPH0 load(1, XDATA, add(CFA_XSP16, literal(-1)))
          CFI (cfiCond80) CFA_SP SP+-4
          CFI (cfiCond80) CFA_XSP16 add(XSP16, 15)
          CFI Block cfiCond81 Using cfiCommon0
          CFI (cfiCond81) Function MT_AfDataStore
          CFI (cfiCond81) Conditional ??CrossCallReturnLabel_97, ??CrossCallReturnLabel_95
          CFI (cfiCond81) R6 load(1, XDATA, add(CFA_XSP16, literal(-11)))
          CFI (cfiCond81) VB load(1, XDATA, add(CFA_XSP16, literal(-10)))
          CFI (cfiCond81) V0 load(1, XDATA, add(CFA_XSP16, literal(-9)))
          CFI (cfiCond81) V1 load(1, XDATA, add(CFA_XSP16, literal(-8)))
          CFI (cfiCond81) V2 load(1, XDATA, add(CFA_XSP16, literal(-7)))
          CFI (cfiCond81) R7 load(1, XDATA, add(CFA_XSP16, literal(-6)))
          CFI (cfiCond81) ?RET_LOW load(1, XDATA, add(CFA_XSP16, literal(-5)))
          CFI (cfiCond81) ?RET_HIGH load(1, XDATA, add(CFA_XSP16, literal(-4)))
          CFI (cfiCond81) ?BRET_EXT load(1, XDATA, add(CFA_XSP16, literal(-3)))
          CFI (cfiCond81) DPL0 load(1, XDATA, add(CFA_XSP16, literal(-2)))
          CFI (cfiCond81) DPH0 load(1, XDATA, add(CFA_XSP16, literal(-1)))
          CFI (cfiCond81) CFA_SP SP+-4
          CFI (cfiCond81) CFA_XSP16 add(XSP16, 15)
          CFI Block cfiCond82 Using cfiCommon0
          CFI (cfiCond82) Function MT_AfIncomingMsg
          CFI (cfiCond82) Conditional ??CrossCallReturnLabel_97, ??CrossCallReturnLabel_91
          CFI (cfiCond82) R6 load(1, XDATA, add(CFA_XSP16, literal(-20)))
          CFI (cfiCond82) VB load(1, XDATA, add(CFA_XSP16, literal(-19)))
          CFI (cfiCond82) V0 load(1, XDATA, add(CFA_XSP16, literal(-18)))
          CFI (cfiCond82) V1 load(1, XDATA, add(CFA_XSP16, literal(-17)))
          CFI (cfiCond82) V2 load(1, XDATA, add(CFA_XSP16, literal(-16)))
          CFI (cfiCond82) V3 load(1, XDATA, add(CFA_XSP16, literal(-15)))
          CFI (cfiCond82) V4 load(1, XDATA, add(CFA_XSP16, literal(-14)))
          CFI (cfiCond82) V5 load(1, XDATA, add(CFA_XSP16, literal(-13)))
          CFI (cfiCond82) V6 load(1, XDATA, add(CFA_XSP16, literal(-12)))
          CFI (cfiCond82) V7 load(1, XDATA, add(CFA_XSP16, literal(-11)))
          CFI (cfiCond82) V8 load(1, XDATA, add(CFA_XSP16, literal(-10)))
          CFI (cfiCond82) V9 load(1, XDATA, add(CFA_XSP16, literal(-9)))
          CFI (cfiCond82) V10 load(1, XDATA, add(CFA_XSP16, literal(-8)))
          CFI (cfiCond82) V11 load(1, XDATA, add(CFA_XSP16, literal(-7)))
          CFI (cfiCond82) R7 load(1, XDATA, add(CFA_XSP16, literal(-6)))
          CFI (cfiCond82) ?RET_LOW load(1, XDATA, add(CFA_XSP16, literal(-5)))
          CFI (cfiCond82) ?RET_HIGH load(1, XDATA, add(CFA_XSP16, literal(-4)))
          CFI (cfiCond82) ?BRET_EXT load(1, XDATA, add(CFA_XSP16, literal(-3)))
          CFI (cfiCond82) DPL0 load(1, XDATA, add(CFA_XSP16, literal(-2)))
          CFI (cfiCond82) DPH0 load(1, XDATA, add(CFA_XSP16, literal(-1)))
          CFI (cfiCond82) CFA_SP SP+-5
          CFI (cfiCond82) CFA_XSP16 add(XSP16, 23)
          CFI Block cfiCond83 Using cfiCommon0
          CFI (cfiCond83) Function MT_AfIncomingMsg
          CFI (cfiCond83) Conditional ??CrossCallReturnLabel_97, ??CrossCallReturnLabel_92
          CFI (cfiCond83) R6 load(1, XDATA, add(CFA_XSP16, literal(-20)))
          CFI (cfiCond83) VB load(1, XDATA, add(CFA_XSP16, literal(-19)))
          CFI (cfiCond83) V0 load(1, XDATA, add(CFA_XSP16, literal(-18)))
          CFI (cfiCond83) V1 load(1, XDATA, add(CFA_XSP16, literal(-17)))
          CFI (cfiCond83) V2 load(1, XDATA, add(CFA_XSP16, literal(-16)))
          CFI (cfiCond83) V3 load(1, XDATA, add(CFA_XSP16, literal(-15)))
          CFI (cfiCond83) V4 load(1, XDATA, add(CFA_XSP16, literal(-14)))
          CFI (cfiCond83) V5 load(1, XDATA, add(CFA_XSP16, literal(-13)))
          CFI (cfiCond83) V6 load(1, XDATA, add(CFA_XSP16, literal(-12)))
          CFI (cfiCond83) V7 load(1, XDATA, add(CFA_XSP16, literal(-11)))
          CFI (cfiCond83) V8 load(1, XDATA, add(CFA_XSP16, literal(-10)))
          CFI (cfiCond83) V9 load(1, XDATA, add(CFA_XSP16, literal(-9)))
          CFI (cfiCond83) V10 load(1, XDATA, add(CFA_XSP16, literal(-8)))
          CFI (cfiCond83) V11 load(1, XDATA, add(CFA_XSP16, literal(-7)))
          CFI (cfiCond83) R7 load(1, XDATA, add(CFA_XSP16, literal(-6)))
          CFI (cfiCond83) ?RET_LOW load(1, XDATA, add(CFA_XSP16, literal(-5)))
          CFI (cfiCond83) ?RET_HIGH load(1, XDATA, add(CFA_XSP16, literal(-4)))
          CFI (cfiCond83) ?BRET_EXT load(1, XDATA, add(CFA_XSP16, literal(-3)))
          CFI (cfiCond83) DPL0 load(1, XDATA, add(CFA_XSP16, literal(-2)))
          CFI (cfiCond83) DPH0 load(1, XDATA, add(CFA_XSP16, literal(-1)))
          CFI (cfiCond83) CFA_SP SP+-5
          CFI (cfiCond83) CFA_XSP16 add(XSP16, 23)
          CFI Block cfiCond84 Using cfiCommon0
          CFI (cfiCond84) Function MT_AfDataRetrieve
          CFI (cfiCond84) Conditional ??CrossCallReturnLabel_96, ??CrossCallReturnLabel_2
          CFI (cfiCond84) R6 load(1, XDATA, add(CFA_XSP16, literal(-20)))
          CFI (cfiCond84) VB load(1, XDATA, add(CFA_XSP16, literal(-19)))
          CFI (cfiCond84) V0 load(1, XDATA, add(CFA_XSP16, literal(-18)))
          CFI (cfiCond84) V1 load(1, XDATA, add(CFA_XSP16, literal(-17)))
          CFI (cfiCond84) V2 load(1, XDATA, add(CFA_XSP16, literal(-16)))
          CFI (cfiCond84) V3 load(1, XDATA, add(CFA_XSP16, literal(-15)))
          CFI (cfiCond84) V4 load(1, XDATA, add(CFA_XSP16, literal(-14)))
          CFI (cfiCond84) V5 load(1, XDATA, add(CFA_XSP16, literal(-13)))
          CFI (cfiCond84) V6 load(1, XDATA, add(CFA_XSP16, literal(-12)))
          CFI (cfiCond84) V7 load(1, XDATA, add(CFA_XSP16, literal(-11)))
          CFI (cfiCond84) V8 load(1, XDATA, add(CFA_XSP16, literal(-10)))
          CFI (cfiCond84) V9 load(1, XDATA, add(CFA_XSP16, literal(-9)))
          CFI (cfiCond84) V10 load(1, XDATA, add(CFA_XSP16, literal(-8)))
          CFI (cfiCond84) V11 load(1, XDATA, add(CFA_XSP16, literal(-7)))
          CFI (cfiCond84) R7 load(1, XDATA, add(CFA_XSP16, literal(-6)))
          CFI (cfiCond84) ?RET_LOW load(1, XDATA, add(CFA_XSP16, literal(-5)))
          CFI (cfiCond84) ?RET_HIGH load(1, XDATA, add(CFA_XSP16, literal(-4)))
          CFI (cfiCond84) ?BRET_EXT load(1, XDATA, add(CFA_XSP16, literal(-3)))
          CFI (cfiCond84) DPL0 load(1, XDATA, add(CFA_XSP16, literal(-2)))
          CFI (cfiCond84) DPH0 load(1, XDATA, add(CFA_XSP16, literal(-1)))
          CFI (cfiCond84) CFA_SP SP+-4
          CFI (cfiCond84) CFA_XSP16 add(XSP16, 23)
          CFI Block cfiCond85 Using cfiCommon0
          CFI (cfiCond85) Function MT_AfDataRetrieve
          CFI (cfiCond85) Conditional ??CrossCallReturnLabel_96, ??CrossCallReturnLabel_3
          CFI (cfiCond85) R6 load(1, XDATA, add(CFA_XSP16, literal(-20)))
          CFI (cfiCond85) VB load(1, XDATA, add(CFA_XSP16, literal(-19)))
          CFI (cfiCond85) V0 load(1, XDATA, add(CFA_XSP16, literal(-18)))
          CFI (cfiCond85) V1 load(1, XDATA, add(CFA_XSP16, literal(-17)))
          CFI (cfiCond85) V2 load(1, XDATA, add(CFA_XSP16, literal(-16)))
          CFI (cfiCond85) V3 load(1, XDATA, add(CFA_XSP16, literal(-15)))
          CFI (cfiCond85) V4 load(1, XDATA, add(CFA_XSP16, literal(-14)))
          CFI (cfiCond85) V5 load(1, XDATA, add(CFA_XSP16, literal(-13)))
          CFI (cfiCond85) V6 load(1, XDATA, add(CFA_XSP16, literal(-12)))
          CFI (cfiCond85) V7 load(1, XDATA, add(CFA_XSP16, literal(-11)))
          CFI (cfiCond85) V8 load(1, XDATA, add(CFA_XSP16, literal(-10)))
          CFI (cfiCond85) V9 load(1, XDATA, add(CFA_XSP16, literal(-9)))
          CFI (cfiCond85) V10 load(1, XDATA, add(CFA_XSP16, literal(-8)))
          CFI (cfiCond85) V11 load(1, XDATA, add(CFA_XSP16, literal(-7)))
          CFI (cfiCond85) R7 load(1, XDATA, add(CFA_XSP16, literal(-6)))
          CFI (cfiCond85) ?RET_LOW load(1, XDATA, add(CFA_XSP16, literal(-5)))
          CFI (cfiCond85) ?RET_HIGH load(1, XDATA, add(CFA_XSP16, literal(-4)))
          CFI (cfiCond85) ?BRET_EXT load(1, XDATA, add(CFA_XSP16, literal(-3)))
          CFI (cfiCond85) DPL0 load(1, XDATA, add(CFA_XSP16, literal(-2)))
          CFI (cfiCond85) DPH0 load(1, XDATA, add(CFA_XSP16, literal(-1)))
          CFI (cfiCond85) CFA_SP SP+-4
          CFI (cfiCond85) CFA_XSP16 add(XSP16, 23)
          CFI Block cfiCond86 Using cfiCommon0
          CFI (cfiCond86) Function MT_AfDataRetrieve
          CFI (cfiCond86) Conditional ??CrossCallReturnLabel_96, ??CrossCallReturnLabel_4
          CFI (cfiCond86) R6 load(1, XDATA, add(CFA_XSP16, literal(-20)))
          CFI (cfiCond86) VB load(1, XDATA, add(CFA_XSP16, literal(-19)))
          CFI (cfiCond86) V0 load(1, XDATA, add(CFA_XSP16, literal(-18)))
          CFI (cfiCond86) V1 load(1, XDATA, add(CFA_XSP16, literal(-17)))
          CFI (cfiCond86) V2 load(1, XDATA, add(CFA_XSP16, literal(-16)))
          CFI (cfiCond86) V3 load(1, XDATA, add(CFA_XSP16, literal(-15)))
          CFI (cfiCond86) V4 load(1, XDATA, add(CFA_XSP16, literal(-14)))
          CFI (cfiCond86) V5 load(1, XDATA, add(CFA_XSP16, literal(-13)))
          CFI (cfiCond86) V6 load(1, XDATA, add(CFA_XSP16, literal(-12)))
          CFI (cfiCond86) V7 load(1, XDATA, add(CFA_XSP16, literal(-11)))
          CFI (cfiCond86) V8 load(1, XDATA, add(CFA_XSP16, literal(-10)))
          CFI (cfiCond86) V9 load(1, XDATA, add(CFA_XSP16, literal(-9)))
          CFI (cfiCond86) V10 load(1, XDATA, add(CFA_XSP16, literal(-8)))
          CFI (cfiCond86) V11 load(1, XDATA, add(CFA_XSP16, literal(-7)))
          CFI (cfiCond86) R7 load(1, XDATA, add(CFA_XSP16, literal(-6)))
          CFI (cfiCond86) ?RET_LOW load(1, XDATA, add(CFA_XSP16, literal(-5)))
          CFI (cfiCond86) ?RET_HIGH load(1, XDATA, add(CFA_XSP16, literal(-4)))
          CFI (cfiCond86) ?BRET_EXT load(1, XDATA, add(CFA_XSP16, literal(-3)))
          CFI (cfiCond86) DPL0 load(1, XDATA, add(CFA_XSP16, literal(-2)))
          CFI (cfiCond86) DPH0 load(1, XDATA, add(CFA_XSP16, literal(-1)))
          CFI (cfiCond86) CFA_SP SP+-4
          CFI (cfiCond86) CFA_XSP16 add(XSP16, 23)
          CFI Block cfiPicker87 Using cfiCommon1
          CFI (cfiPicker87) NoFunction
          CFI (cfiPicker87) Picker
        LCALL     ?Subroutine48 & 0xFFFF
??CrossCallReturnLabel_125:
        RET
          CFI EndBlock cfiCond79
          CFI EndBlock cfiCond80
          CFI EndBlock cfiCond81
          CFI EndBlock cfiCond82
          CFI EndBlock cfiCond83
          CFI EndBlock cfiCond84
          CFI EndBlock cfiCond85
          CFI EndBlock cfiCond86
          CFI EndBlock cfiPicker87

        RSEG BANKED_CODE:HUGECODE:NOROOT(0)
?Subroutine48:
          CFI Block cfiCond88 Using cfiCommon0
          CFI Function MT_AfDataRequest
          CFI Conditional ??CrossCallReturnLabel_125, ??CrossCallReturnLabel_97, ??CrossCallReturnLabel_93
          CFI R6 load(1, XDATA, add(CFA_XSP16, literal(-20)))
          CFI VB load(1, XDATA, add(CFA_XSP16, literal(-19)))
          CFI V0 load(1, XDATA, add(CFA_XSP16, literal(-18)))
          CFI V1 load(1, XDATA, add(CFA_XSP16, literal(-17)))
          CFI V2 load(1, XDATA, add(CFA_XSP16, literal(-16)))
          CFI V3 load(1, XDATA, add(CFA_XSP16, literal(-15)))
          CFI V4 load(1, XDATA, add(CFA_XSP16, literal(-14)))
          CFI V5 load(1, XDATA, add(CFA_XSP16, literal(-13)))
          CFI V6 load(1, XDATA, add(CFA_XSP16, literal(-12)))
          CFI V7 load(1, XDATA, add(CFA_XSP16, literal(-11)))
          CFI V8 load(1, XDATA, add(CFA_XSP16, literal(-10)))
          CFI V9 load(1, XDATA, add(CFA_XSP16, literal(-9)))
          CFI V10 load(1, XDATA, add(CFA_XSP16, literal(-8)))
          CFI V11 load(1, XDATA, add(CFA_XSP16, literal(-7)))
          CFI R7 load(1, XDATA, add(CFA_XSP16, literal(-6)))
          CFI ?RET_LOW load(1, XDATA, add(CFA_XSP16, literal(-5)))
          CFI ?RET_HIGH load(1, XDATA, add(CFA_XSP16, literal(-4)))
          CFI ?BRET_EXT load(1, XDATA, add(CFA_XSP16, literal(-3)))
          CFI DPL0 load(1, XDATA, add(CFA_XSP16, literal(-2)))
          CFI DPH0 load(1, XDATA, add(CFA_XSP16, literal(-1)))
          CFI CFA_SP SP+-6
          CFI CFA_XSP16 add(XSP16, 35)
          CFI Block cfiCond89 Using cfiCommon0
          CFI (cfiCond89) Function MT_AfDataStore
          CFI (cfiCond89) Conditional ??CrossCallReturnLabel_125, ??CrossCallReturnLabel_97, ??CrossCallReturnLabel_94
          CFI (cfiCond89) R6 load(1, XDATA, add(CFA_XSP16, literal(-11)))
          CFI (cfiCond89) VB load(1, XDATA, add(CFA_XSP16, literal(-10)))
          CFI (cfiCond89) V0 load(1, XDATA, add(CFA_XSP16, literal(-9)))
          CFI (cfiCond89) V1 load(1, XDATA, add(CFA_XSP16, literal(-8)))
          CFI (cfiCond89) V2 load(1, XDATA, add(CFA_XSP16, literal(-7)))
          CFI (cfiCond89) R7 load(1, XDATA, add(CFA_XSP16, literal(-6)))
          CFI (cfiCond89) ?RET_LOW load(1, XDATA, add(CFA_XSP16, literal(-5)))
          CFI (cfiCond89) ?RET_HIGH load(1, XDATA, add(CFA_XSP16, literal(-4)))
          CFI (cfiCond89) ?BRET_EXT load(1, XDATA, add(CFA_XSP16, literal(-3)))
          CFI (cfiCond89) DPL0 load(1, XDATA, add(CFA_XSP16, literal(-2)))
          CFI (cfiCond89) DPH0 load(1, XDATA, add(CFA_XSP16, literal(-1)))
          CFI (cfiCond89) CFA_SP SP+-6
          CFI (cfiCond89) CFA_XSP16 add(XSP16, 15)
          CFI Block cfiCond90 Using cfiCommon0
          CFI (cfiCond90) Function MT_AfDataStore
          CFI (cfiCond90) Conditional ??CrossCallReturnLabel_125, ??CrossCallReturnLabel_97, ??CrossCallReturnLabel_95
          CFI (cfiCond90) R6 load(1, XDATA, add(CFA_XSP16, literal(-11)))
          CFI (cfiCond90) VB load(1, XDATA, add(CFA_XSP16, literal(-10)))
          CFI (cfiCond90) V0 load(1, XDATA, add(CFA_XSP16, literal(-9)))
          CFI (cfiCond90) V1 load(1, XDATA, add(CFA_XSP16, literal(-8)))
          CFI (cfiCond90) V2 load(1, XDATA, add(CFA_XSP16, literal(-7)))
          CFI (cfiCond90) R7 load(1, XDATA, add(CFA_XSP16, literal(-6)))
          CFI (cfiCond90) ?RET_LOW load(1, XDATA, add(CFA_XSP16, literal(-5)))
          CFI (cfiCond90) ?RET_HIGH load(1, XDATA, add(CFA_XSP16, literal(-4)))
          CFI (cfiCond90) ?BRET_EXT load(1, XDATA, add(CFA_XSP16, literal(-3)))
          CFI (cfiCond90) DPL0 load(1, XDATA, add(CFA_XSP16, literal(-2)))
          CFI (cfiCond90) DPH0 load(1, XDATA, add(CFA_XSP16, literal(-1)))
          CFI (cfiCond90) CFA_SP SP+-6
          CFI (cfiCond90) CFA_XSP16 add(XSP16, 15)
          CFI Block cfiCond91 Using cfiCommon0
          CFI (cfiCond91) Function MT_AfIncomingMsg
          CFI (cfiCond91) Conditional ??CrossCallReturnLabel_125, ??CrossCallReturnLabel_97, ??CrossCallReturnLabel_91
          CFI (cfiCond91) R6 load(1, XDATA, add(CFA_XSP16, literal(-20)))
          CFI (cfiCond91) VB load(1, XDATA, add(CFA_XSP16, literal(-19)))
          CFI (cfiCond91) V0 load(1, XDATA, add(CFA_XSP16, literal(-18)))
          CFI (cfiCond91) V1 load(1, XDATA, add(CFA_XSP16, literal(-17)))
          CFI (cfiCond91) V2 load(1, XDATA, add(CFA_XSP16, literal(-16)))
          CFI (cfiCond91) V3 load(1, XDATA, add(CFA_XSP16, literal(-15)))
          CFI (cfiCond91) V4 load(1, XDATA, add(CFA_XSP16, literal(-14)))
          CFI (cfiCond91) V5 load(1, XDATA, add(CFA_XSP16, literal(-13)))
          CFI (cfiCond91) V6 load(1, XDATA, add(CFA_XSP16, literal(-12)))
          CFI (cfiCond91) V7 load(1, XDATA, add(CFA_XSP16, literal(-11)))
          CFI (cfiCond91) V8 load(1, XDATA, add(CFA_XSP16, literal(-10)))
          CFI (cfiCond91) V9 load(1, XDATA, add(CFA_XSP16, literal(-9)))
          CFI (cfiCond91) V10 load(1, XDATA, add(CFA_XSP16, literal(-8)))
          CFI (cfiCond91) V11 load(1, XDATA, add(CFA_XSP16, literal(-7)))
          CFI (cfiCond91) R7 load(1, XDATA, add(CFA_XSP16, literal(-6)))
          CFI (cfiCond91) ?RET_LOW load(1, XDATA, add(CFA_XSP16, literal(-5)))
          CFI (cfiCond91) ?RET_HIGH load(1, XDATA, add(CFA_XSP16, literal(-4)))
          CFI (cfiCond91) ?BRET_EXT load(1, XDATA, add(CFA_XSP16, literal(-3)))
          CFI (cfiCond91) DPL0 load(1, XDATA, add(CFA_XSP16, literal(-2)))
          CFI (cfiCond91) DPH0 load(1, XDATA, add(CFA_XSP16, literal(-1)))
          CFI (cfiCond91) CFA_SP SP+-7
          CFI (cfiCond91) CFA_XSP16 add(XSP16, 23)
          CFI Block cfiCond92 Using cfiCommon0
          CFI (cfiCond92) Function MT_AfIncomingMsg
          CFI (cfiCond92) Conditional ??CrossCallReturnLabel_125, ??CrossCallReturnLabel_97, ??CrossCallReturnLabel_92
          CFI (cfiCond92) R6 load(1, XDATA, add(CFA_XSP16, literal(-20)))
          CFI (cfiCond92) VB load(1, XDATA, add(CFA_XSP16, literal(-19)))
          CFI (cfiCond92) V0 load(1, XDATA, add(CFA_XSP16, literal(-18)))
          CFI (cfiCond92) V1 load(1, XDATA, add(CFA_XSP16, literal(-17)))
          CFI (cfiCond92) V2 load(1, XDATA, add(CFA_XSP16, literal(-16)))
          CFI (cfiCond92) V3 load(1, XDATA, add(CFA_XSP16, literal(-15)))
          CFI (cfiCond92) V4 load(1, XDATA, add(CFA_XSP16, literal(-14)))
          CFI (cfiCond92) V5 load(1, XDATA, add(CFA_XSP16, literal(-13)))
          CFI (cfiCond92) V6 load(1, XDATA, add(CFA_XSP16, literal(-12)))
          CFI (cfiCond92) V7 load(1, XDATA, add(CFA_XSP16, literal(-11)))
          CFI (cfiCond92) V8 load(1, XDATA, add(CFA_XSP16, literal(-10)))
          CFI (cfiCond92) V9 load(1, XDATA, add(CFA_XSP16, literal(-9)))
          CFI (cfiCond92) V10 load(1, XDATA, add(CFA_XSP16, literal(-8)))
          CFI (cfiCond92) V11 load(1, XDATA, add(CFA_XSP16, literal(-7)))
          CFI (cfiCond92) R7 load(1, XDATA, add(CFA_XSP16, literal(-6)))
          CFI (cfiCond92) ?RET_LOW load(1, XDATA, add(CFA_XSP16, literal(-5)))
          CFI (cfiCond92) ?RET_HIGH load(1, XDATA, add(CFA_XSP16, literal(-4)))
          CFI (cfiCond92) ?BRET_EXT load(1, XDATA, add(CFA_XSP16, literal(-3)))
          CFI (cfiCond92) DPL0 load(1, XDATA, add(CFA_XSP16, literal(-2)))
          CFI (cfiCond92) DPH0 load(1, XDATA, add(CFA_XSP16, literal(-1)))
          CFI (cfiCond92) CFA_SP SP+-7
          CFI (cfiCond92) CFA_XSP16 add(XSP16, 23)
          CFI Block cfiCond93 Using cfiCommon0
          CFI (cfiCond93) Function MT_AfDataRetrieve
          CFI (cfiCond93) Conditional ??CrossCallReturnLabel_125, ??CrossCallReturnLabel_96, ??CrossCallReturnLabel_2
          CFI (cfiCond93) R6 load(1, XDATA, add(CFA_XSP16, literal(-20)))
          CFI (cfiCond93) VB load(1, XDATA, add(CFA_XSP16, literal(-19)))
          CFI (cfiCond93) V0 load(1, XDATA, add(CFA_XSP16, literal(-18)))
          CFI (cfiCond93) V1 load(1, XDATA, add(CFA_XSP16, literal(-17)))
          CFI (cfiCond93) V2 load(1, XDATA, add(CFA_XSP16, literal(-16)))
          CFI (cfiCond93) V3 load(1, XDATA, add(CFA_XSP16, literal(-15)))
          CFI (cfiCond93) V4 load(1, XDATA, add(CFA_XSP16, literal(-14)))
          CFI (cfiCond93) V5 load(1, XDATA, add(CFA_XSP16, literal(-13)))
          CFI (cfiCond93) V6 load(1, XDATA, add(CFA_XSP16, literal(-12)))
          CFI (cfiCond93) V7 load(1, XDATA, add(CFA_XSP16, literal(-11)))
          CFI (cfiCond93) V8 load(1, XDATA, add(CFA_XSP16, literal(-10)))
          CFI (cfiCond93) V9 load(1, XDATA, add(CFA_XSP16, literal(-9)))
          CFI (cfiCond93) V10 load(1, XDATA, add(CFA_XSP16, literal(-8)))
          CFI (cfiCond93) V11 load(1, XDATA, add(CFA_XSP16, literal(-7)))
          CFI (cfiCond93) R7 load(1, XDATA, add(CFA_XSP16, literal(-6)))
          CFI (cfiCond93) ?RET_LOW load(1, XDATA, add(CFA_XSP16, literal(-5)))
          CFI (cfiCond93) ?RET_HIGH load(1, XDATA, add(CFA_XSP16, literal(-4)))
          CFI (cfiCond93) ?BRET_EXT load(1, XDATA, add(CFA_XSP16, literal(-3)))
          CFI (cfiCond93) DPL0 load(1, XDATA, add(CFA_XSP16, literal(-2)))
          CFI (cfiCond93) DPH0 load(1, XDATA, add(CFA_XSP16, literal(-1)))
          CFI (cfiCond93) CFA_SP SP+-6
          CFI (cfiCond93) CFA_XSP16 add(XSP16, 23)
          CFI Block cfiCond94 Using cfiCommon0
          CFI (cfiCond94) Function MT_AfDataRetrieve
          CFI (cfiCond94) Conditional ??CrossCallReturnLabel_125, ??CrossCallReturnLabel_96, ??CrossCallReturnLabel_3
          CFI (cfiCond94) R6 load(1, XDATA, add(CFA_XSP16, literal(-20)))
          CFI (cfiCond94) VB load(1, XDATA, add(CFA_XSP16, literal(-19)))
          CFI (cfiCond94) V0 load(1, XDATA, add(CFA_XSP16, literal(-18)))
          CFI (cfiCond94) V1 load(1, XDATA, add(CFA_XSP16, literal(-17)))
          CFI (cfiCond94) V2 load(1, XDATA, add(CFA_XSP16, literal(-16)))
          CFI (cfiCond94) V3 load(1, XDATA, add(CFA_XSP16, literal(-15)))
          CFI (cfiCond94) V4 load(1, XDATA, add(CFA_XSP16, literal(-14)))
          CFI (cfiCond94) V5 load(1, XDATA, add(CFA_XSP16, literal(-13)))
          CFI (cfiCond94) V6 load(1, XDATA, add(CFA_XSP16, literal(-12)))
          CFI (cfiCond94) V7 load(1, XDATA, add(CFA_XSP16, literal(-11)))
          CFI (cfiCond94) V8 load(1, XDATA, add(CFA_XSP16, literal(-10)))
          CFI (cfiCond94) V9 load(1, XDATA, add(CFA_XSP16, literal(-9)))
          CFI (cfiCond94) V10 load(1, XDATA, add(CFA_XSP16, literal(-8)))
          CFI (cfiCond94) V11 load(1, XDATA, add(CFA_XSP16, literal(-7)))
          CFI (cfiCond94) R7 load(1, XDATA, add(CFA_XSP16, literal(-6)))
          CFI (cfiCond94) ?RET_LOW load(1, XDATA, add(CFA_XSP16, literal(-5)))
          CFI (cfiCond94) ?RET_HIGH load(1, XDATA, add(CFA_XSP16, literal(-4)))
          CFI (cfiCond94) ?BRET_EXT load(1, XDATA, add(CFA_XSP16, literal(-3)))
          CFI (cfiCond94) DPL0 load(1, XDATA, add(CFA_XSP16, literal(-2)))
          CFI (cfiCond94) DPH0 load(1, XDATA, add(CFA_XSP16, literal(-1)))
          CFI (cfiCond94) CFA_SP SP+-6
          CFI (cfiCond94) CFA_XSP16 add(XSP16, 23)
          CFI Block cfiCond95 Using cfiCommon0
          CFI (cfiCond95) Function MT_AfDataRetrieve
          CFI (cfiCond95) Conditional ??CrossCallReturnLabel_125, ??CrossCallReturnLabel_96, ??CrossCallReturnLabel_4
          CFI (cfiCond95) R6 load(1, XDATA, add(CFA_XSP16, literal(-20)))
          CFI (cfiCond95) VB load(1, XDATA, add(CFA_XSP16, literal(-19)))
          CFI (cfiCond95) V0 load(1, XDATA, add(CFA_XSP16, literal(-18)))
          CFI (cfiCond95) V1 load(1, XDATA, add(CFA_XSP16, literal(-17)))
          CFI (cfiCond95) V2 load(1, XDATA, add(CFA_XSP16, literal(-16)))
          CFI (cfiCond95) V3 load(1, XDATA, add(CFA_XSP16, literal(-15)))
          CFI (cfiCond95) V4 load(1, XDATA, add(CFA_XSP16, literal(-14)))
          CFI (cfiCond95) V5 load(1, XDATA, add(CFA_XSP16, literal(-13)))
          CFI (cfiCond95) V6 load(1, XDATA, add(CFA_XSP16, literal(-12)))
          CFI (cfiCond95) V7 load(1, XDATA, add(CFA_XSP16, literal(-11)))
          CFI (cfiCond95) V8 load(1, XDATA, add(CFA_XSP16, literal(-10)))
          CFI (cfiCond95) V9 load(1, XDATA, add(CFA_XSP16, literal(-9)))
          CFI (cfiCond95) V10 load(1, XDATA, add(CFA_XSP16, literal(-8)))
          CFI (cfiCond95) V11 load(1, XDATA, add(CFA_XSP16, literal(-7)))
          CFI (cfiCond95) R7 load(1, XDATA, add(CFA_XSP16, literal(-6)))
          CFI (cfiCond95) ?RET_LOW load(1, XDATA, add(CFA_XSP16, literal(-5)))
          CFI (cfiCond95) ?RET_HIGH load(1, XDATA, add(CFA_XSP16, literal(-4)))
          CFI (cfiCond95) ?BRET_EXT load(1, XDATA, add(CFA_XSP16, literal(-3)))
          CFI (cfiCond95) DPL0 load(1, XDATA, add(CFA_XSP16, literal(-2)))
          CFI (cfiCond95) DPH0 load(1, XDATA, add(CFA_XSP16, literal(-1)))
          CFI (cfiCond95) CFA_SP SP+-6
          CFI (cfiCond95) CFA_XSP16 add(XSP16, 23)
          CFI Block cfiCond96 Using cfiCommon0
          CFI (cfiCond96) Function MT_AfIncomingMsg
          CFI (cfiCond96) Conditional ??CrossCallReturnLabel_126, ??CrossCallReturnLabel_124, ??CrossCallReturnLabel_121
          CFI (cfiCond96) R6 load(1, XDATA, add(CFA_XSP16, literal(-20)))
          CFI (cfiCond96) VB load(1, XDATA, add(CFA_XSP16, literal(-19)))
          CFI (cfiCond96) V0 load(1, XDATA, add(CFA_XSP16, literal(-18)))
          CFI (cfiCond96) V1 load(1, XDATA, add(CFA_XSP16, literal(-17)))
          CFI (cfiCond96) V2 load(1, XDATA, add(CFA_XSP16, literal(-16)))
          CFI (cfiCond96) V3 load(1, XDATA, add(CFA_XSP16, literal(-15)))
          CFI (cfiCond96) V4 load(1, XDATA, add(CFA_XSP16, literal(-14)))
          CFI (cfiCond96) V5 load(1, XDATA, add(CFA_XSP16, literal(-13)))
          CFI (cfiCond96) V6 load(1, XDATA, add(CFA_XSP16, literal(-12)))
          CFI (cfiCond96) V7 load(1, XDATA, add(CFA_XSP16, literal(-11)))
          CFI (cfiCond96) V8 load(1, XDATA, add(CFA_XSP16, literal(-10)))
          CFI (cfiCond96) V9 load(1, XDATA, add(CFA_XSP16, literal(-9)))
          CFI (cfiCond96) V10 load(1, XDATA, add(CFA_XSP16, literal(-8)))
          CFI (cfiCond96) V11 load(1, XDATA, add(CFA_XSP16, literal(-7)))
          CFI (cfiCond96) R7 load(1, XDATA, add(CFA_XSP16, literal(-6)))
          CFI (cfiCond96) ?RET_LOW load(1, XDATA, add(CFA_XSP16, literal(-5)))
          CFI (cfiCond96) ?RET_HIGH load(1, XDATA, add(CFA_XSP16, literal(-4)))
          CFI (cfiCond96) ?BRET_EXT load(1, XDATA, add(CFA_XSP16, literal(-3)))
          CFI (cfiCond96) DPL0 load(1, XDATA, add(CFA_XSP16, literal(-2)))
          CFI (cfiCond96) DPH0 load(1, XDATA, add(CFA_XSP16, literal(-1)))
          CFI (cfiCond96) CFA_SP SP+-7
          CFI (cfiCond96) CFA_XSP16 add(XSP16, 23)
          CFI Block cfiCond97 Using cfiCommon0
          CFI (cfiCond97) Function MT_AfIncomingMsg
          CFI (cfiCond97) Conditional ??CrossCallReturnLabel_126, ??CrossCallReturnLabel_124, ??CrossCallReturnLabel_122
          CFI (cfiCond97) R6 load(1, XDATA, add(CFA_XSP16, literal(-20)))
          CFI (cfiCond97) VB load(1, XDATA, add(CFA_XSP16, literal(-19)))
          CFI (cfiCond97) V0 load(1, XDATA, add(CFA_XSP16, literal(-18)))
          CFI (cfiCond97) V1 load(1, XDATA, add(CFA_XSP16, literal(-17)))
          CFI (cfiCond97) V2 load(1, XDATA, add(CFA_XSP16, literal(-16)))
          CFI (cfiCond97) V3 load(1, XDATA, add(CFA_XSP16, literal(-15)))
          CFI (cfiCond97) V4 load(1, XDATA, add(CFA_XSP16, literal(-14)))
          CFI (cfiCond97) V5 load(1, XDATA, add(CFA_XSP16, literal(-13)))
          CFI (cfiCond97) V6 load(1, XDATA, add(CFA_XSP16, literal(-12)))
          CFI (cfiCond97) V7 load(1, XDATA, add(CFA_XSP16, literal(-11)))
          CFI (cfiCond97) V8 load(1, XDATA, add(CFA_XSP16, literal(-10)))
          CFI (cfiCond97) V9 load(1, XDATA, add(CFA_XSP16, literal(-9)))
          CFI (cfiCond97) V10 load(1, XDATA, add(CFA_XSP16, literal(-8)))
          CFI (cfiCond97) V11 load(1, XDATA, add(CFA_XSP16, literal(-7)))
          CFI (cfiCond97) R7 load(1, XDATA, add(CFA_XSP16, literal(-6)))
          CFI (cfiCond97) ?RET_LOW load(1, XDATA, add(CFA_XSP16, literal(-5)))
          CFI (cfiCond97) ?RET_HIGH load(1, XDATA, add(CFA_XSP16, literal(-4)))
          CFI (cfiCond97) ?BRET_EXT load(1, XDATA, add(CFA_XSP16, literal(-3)))
          CFI (cfiCond97) DPL0 load(1, XDATA, add(CFA_XSP16, literal(-2)))
          CFI (cfiCond97) DPH0 load(1, XDATA, add(CFA_XSP16, literal(-1)))
          CFI (cfiCond97) CFA_SP SP+-7
          CFI (cfiCond97) CFA_XSP16 add(XSP16, 23)
          CFI Block cfiCond98 Using cfiCommon0
          CFI (cfiCond98) Function MT_AfDataRetrieve
          CFI (cfiCond98) Conditional ??CrossCallReturnLabel_126, ??CrossCallReturnLabel_124, ??CrossCallReturnLabel_120
          CFI (cfiCond98) R6 load(1, XDATA, add(CFA_XSP16, literal(-20)))
          CFI (cfiCond98) VB load(1, XDATA, add(CFA_XSP16, literal(-19)))
          CFI (cfiCond98) V0 load(1, XDATA, add(CFA_XSP16, literal(-18)))
          CFI (cfiCond98) V1 load(1, XDATA, add(CFA_XSP16, literal(-17)))
          CFI (cfiCond98) V2 load(1, XDATA, add(CFA_XSP16, literal(-16)))
          CFI (cfiCond98) V3 load(1, XDATA, add(CFA_XSP16, literal(-15)))
          CFI (cfiCond98) V4 load(1, XDATA, add(CFA_XSP16, literal(-14)))
          CFI (cfiCond98) V5 load(1, XDATA, add(CFA_XSP16, literal(-13)))
          CFI (cfiCond98) V6 load(1, XDATA, add(CFA_XSP16, literal(-12)))
          CFI (cfiCond98) V7 load(1, XDATA, add(CFA_XSP16, literal(-11)))
          CFI (cfiCond98) V8 load(1, XDATA, add(CFA_XSP16, literal(-10)))
          CFI (cfiCond98) V9 load(1, XDATA, add(CFA_XSP16, literal(-9)))
          CFI (cfiCond98) V10 load(1, XDATA, add(CFA_XSP16, literal(-8)))
          CFI (cfiCond98) V11 load(1, XDATA, add(CFA_XSP16, literal(-7)))
          CFI (cfiCond98) R7 load(1, XDATA, add(CFA_XSP16, literal(-6)))
          CFI (cfiCond98) ?RET_LOW load(1, XDATA, add(CFA_XSP16, literal(-5)))
          CFI (cfiCond98) ?RET_HIGH load(1, XDATA, add(CFA_XSP16, literal(-4)))
          CFI (cfiCond98) ?BRET_EXT load(1, XDATA, add(CFA_XSP16, literal(-3)))
          CFI (cfiCond98) DPL0 load(1, XDATA, add(CFA_XSP16, literal(-2)))
          CFI (cfiCond98) DPH0 load(1, XDATA, add(CFA_XSP16, literal(-1)))
          CFI (cfiCond98) CFA_SP SP+-6
          CFI (cfiCond98) CFA_XSP16 add(XSP16, 23)
          CFI Block cfiCond99 Using cfiCommon0
          CFI (cfiCond99) Function MT_AfIncomingMsg
          CFI (cfiCond99) Conditional ??CrossCallReturnLabel_126, ??CrossCallReturnLabel_123, ??CrossCallReturnLabel_5
          CFI (cfiCond99) R6 load(1, XDATA, add(CFA_XSP16, literal(-20)))
          CFI (cfiCond99) VB load(1, XDATA, add(CFA_XSP16, literal(-19)))
          CFI (cfiCond99) V0 load(1, XDATA, add(CFA_XSP16, literal(-18)))
          CFI (cfiCond99) V1 load(1, XDATA, add(CFA_XSP16, literal(-17)))
          CFI (cfiCond99) V2 load(1, XDATA, add(CFA_XSP16, literal(-16)))
          CFI (cfiCond99) V3 load(1, XDATA, add(CFA_XSP16, literal(-15)))
          CFI (cfiCond99) V4 load(1, XDATA, add(CFA_XSP16, literal(-14)))
          CFI (cfiCond99) V5 load(1, XDATA, add(CFA_XSP16, literal(-13)))
          CFI (cfiCond99) V6 load(1, XDATA, add(CFA_XSP16, literal(-12)))
          CFI (cfiCond99) V7 load(1, XDATA, add(CFA_XSP16, literal(-11)))
          CFI (cfiCond99) V8 load(1, XDATA, add(CFA_XSP16, literal(-10)))
          CFI (cfiCond99) V9 load(1, XDATA, add(CFA_XSP16, literal(-9)))
          CFI (cfiCond99) V10 load(1, XDATA, add(CFA_XSP16, literal(-8)))
          CFI (cfiCond99) V11 load(1, XDATA, add(CFA_XSP16, literal(-7)))
          CFI (cfiCond99) R7 load(1, XDATA, add(CFA_XSP16, literal(-6)))
          CFI (cfiCond99) ?RET_LOW load(1, XDATA, add(CFA_XSP16, literal(-5)))
          CFI (cfiCond99) ?RET_HIGH load(1, XDATA, add(CFA_XSP16, literal(-4)))
          CFI (cfiCond99) ?BRET_EXT load(1, XDATA, add(CFA_XSP16, literal(-3)))
          CFI (cfiCond99) DPL0 load(1, XDATA, add(CFA_XSP16, literal(-2)))
          CFI (cfiCond99) DPH0 load(1, XDATA, add(CFA_XSP16, literal(-1)))
          CFI (cfiCond99) CFA_SP SP+-7
          CFI (cfiCond99) CFA_XSP16 add(XSP16, 23)
          CFI Block cfiCond100 Using cfiCommon0
          CFI (cfiCond100) Function MT_AfIncomingMsg
          CFI (cfiCond100) Conditional ??CrossCallReturnLabel_126, ??CrossCallReturnLabel_123, ??CrossCallReturnLabel_6
          CFI (cfiCond100) R6 load(1, XDATA, add(CFA_XSP16, literal(-20)))
          CFI (cfiCond100) VB load(1, XDATA, add(CFA_XSP16, literal(-19)))
          CFI (cfiCond100) V0 load(1, XDATA, add(CFA_XSP16, literal(-18)))
          CFI (cfiCond100) V1 load(1, XDATA, add(CFA_XSP16, literal(-17)))
          CFI (cfiCond100) V2 load(1, XDATA, add(CFA_XSP16, literal(-16)))
          CFI (cfiCond100) V3 load(1, XDATA, add(CFA_XSP16, literal(-15)))
          CFI (cfiCond100) V4 load(1, XDATA, add(CFA_XSP16, literal(-14)))
          CFI (cfiCond100) V5 load(1, XDATA, add(CFA_XSP16, literal(-13)))
          CFI (cfiCond100) V6 load(1, XDATA, add(CFA_XSP16, literal(-12)))
          CFI (cfiCond100) V7 load(1, XDATA, add(CFA_XSP16, literal(-11)))
          CFI (cfiCond100) V8 load(1, XDATA, add(CFA_XSP16, literal(-10)))
          CFI (cfiCond100) V9 load(1, XDATA, add(CFA_XSP16, literal(-9)))
          CFI (cfiCond100) V10 load(1, XDATA, add(CFA_XSP16, literal(-8)))
          CFI (cfiCond100) V11 load(1, XDATA, add(CFA_XSP16, literal(-7)))
          CFI (cfiCond100) R7 load(1, XDATA, add(CFA_XSP16, literal(-6)))
          CFI (cfiCond100) ?RET_LOW load(1, XDATA, add(CFA_XSP16, literal(-5)))
          CFI (cfiCond100) ?RET_HIGH load(1, XDATA, add(CFA_XSP16, literal(-4)))
          CFI (cfiCond100) ?BRET_EXT load(1, XDATA, add(CFA_XSP16, literal(-3)))
          CFI (cfiCond100) DPL0 load(1, XDATA, add(CFA_XSP16, literal(-2)))
          CFI (cfiCond100) DPH0 load(1, XDATA, add(CFA_XSP16, literal(-1)))
          CFI (cfiCond100) CFA_SP SP+-7
          CFI (cfiCond100) CFA_XSP16 add(XSP16, 23)
          CFI Block cfiCond101 Using cfiCommon0
          CFI (cfiCond101) Function MT_AfIncomingMsg
          CFI (cfiCond101) Conditional ??CrossCallReturnLabel_126, ??CrossCallReturnLabel_123, ??CrossCallReturnLabel_7
          CFI (cfiCond101) R6 load(1, XDATA, add(CFA_XSP16, literal(-20)))
          CFI (cfiCond101) VB load(1, XDATA, add(CFA_XSP16, literal(-19)))
          CFI (cfiCond101) V0 load(1, XDATA, add(CFA_XSP16, literal(-18)))
          CFI (cfiCond101) V1 load(1, XDATA, add(CFA_XSP16, literal(-17)))
          CFI (cfiCond101) V2 load(1, XDATA, add(CFA_XSP16, literal(-16)))
          CFI (cfiCond101) V3 load(1, XDATA, add(CFA_XSP16, literal(-15)))
          CFI (cfiCond101) V4 load(1, XDATA, add(CFA_XSP16, literal(-14)))
          CFI (cfiCond101) V5 load(1, XDATA, add(CFA_XSP16, literal(-13)))
          CFI (cfiCond101) V6 load(1, XDATA, add(CFA_XSP16, literal(-12)))
          CFI (cfiCond101) V7 load(1, XDATA, add(CFA_XSP16, literal(-11)))
          CFI (cfiCond101) V8 load(1, XDATA, add(CFA_XSP16, literal(-10)))
          CFI (cfiCond101) V9 load(1, XDATA, add(CFA_XSP16, literal(-9)))
          CFI (cfiCond101) V10 load(1, XDATA, add(CFA_XSP16, literal(-8)))
          CFI (cfiCond101) V11 load(1, XDATA, add(CFA_XSP16, literal(-7)))
          CFI (cfiCond101) R7 load(1, XDATA, add(CFA_XSP16, literal(-6)))
          CFI (cfiCond101) ?RET_LOW load(1, XDATA, add(CFA_XSP16, literal(-5)))
          CFI (cfiCond101) ?RET_HIGH load(1, XDATA, add(CFA_XSP16, literal(-4)))
          CFI (cfiCond101) ?BRET_EXT load(1, XDATA, add(CFA_XSP16, literal(-3)))
          CFI (cfiCond101) DPL0 load(1, XDATA, add(CFA_XSP16, literal(-2)))
          CFI (cfiCond101) DPH0 load(1, XDATA, add(CFA_XSP16, literal(-1)))
          CFI (cfiCond101) CFA_SP SP+-7
          CFI (cfiCond101) CFA_XSP16 add(XSP16, 23)
          CFI Block cfiPicker102 Using cfiCommon1
          CFI (cfiPicker102) NoFunction
          CFI (cfiPicker102) Picker
        LCALL     ?Subroutine50 & 0xFFFF
??CrossCallReturnLabel_144:
        MOV       DPH,A
        MOV       DPL,R0
        RET
          CFI EndBlock cfiCond88
          CFI EndBlock cfiCond89
          CFI EndBlock cfiCond90
          CFI EndBlock cfiCond91
          CFI EndBlock cfiCond92
          CFI EndBlock cfiCond93
          CFI EndBlock cfiCond94
          CFI EndBlock cfiCond95
          CFI EndBlock cfiCond96
          CFI EndBlock cfiCond97
          CFI EndBlock cfiCond98
          CFI EndBlock cfiCond99
          CFI EndBlock cfiCond100
          CFI EndBlock cfiCond101
          CFI EndBlock cfiPicker102

        RSEG BANKED_CODE:HUGECODE:NOROOT(0)
?Subroutine1:
          CFI Block cfiBlock103 Using cfiCommon0
          CFI NoFunction
          CFI CFA_SP SP+0
          CFI CFA_XSP16 add(XSP16, 23)
          CFI VB load(1, XDATA, add(CFA_XSP16, literal(-19)))
          CFI DPL0 load(1, XDATA, add(CFA_XSP16, literal(-2)))
          CFI DPH0 load(1, XDATA, add(CFA_XSP16, literal(-1)))
          CFI R6 load(1, XDATA, add(CFA_XSP16, literal(-20)))
          CFI R7 load(1, XDATA, add(CFA_XSP16, literal(-6)))
          CFI V0 load(1, XDATA, add(CFA_XSP16, literal(-18)))
          CFI V1 load(1, XDATA, add(CFA_XSP16, literal(-17)))
          CFI V2 load(1, XDATA, add(CFA_XSP16, literal(-16)))
          CFI V3 load(1, XDATA, add(CFA_XSP16, literal(-15)))
          CFI V4 load(1, XDATA, add(CFA_XSP16, literal(-14)))
          CFI V5 load(1, XDATA, add(CFA_XSP16, literal(-13)))
          CFI V6 load(1, XDATA, add(CFA_XSP16, literal(-12)))
          CFI V7 load(1, XDATA, add(CFA_XSP16, literal(-11)))
          CFI V8 load(1, XDATA, add(CFA_XSP16, literal(-10)))
          CFI V9 load(1, XDATA, add(CFA_XSP16, literal(-9)))
          CFI V10 load(1, XDATA, add(CFA_XSP16, literal(-8)))
          CFI V11 load(1, XDATA, add(CFA_XSP16, literal(-7)))
          CFI ?BRET_EXT load(1, XDATA, add(CFA_XSP16, literal(-3)))
          CFI ?RET_HIGH load(1, XDATA, add(CFA_XSP16, literal(-4)))
          CFI ?RET_LOW load(1, XDATA, add(CFA_XSP16, literal(-5)))
        MOV       A,#0x3
          CFI EndBlock cfiBlock103
        REQUIRE ??Subroutine55_0
        ; // Fall through to label ??Subroutine55_0

        RSEG BANKED_CODE:HUGECODE:NOROOT(0)
??Subroutine55_0:
          CFI Block cfiBlock104 Using cfiCommon0
          CFI NoFunction
          CFI CFA_SP SP+0
          CFI CFA_XSP16 add(XSP16, 35)
          CFI VB load(1, XDATA, add(CFA_XSP16, literal(-19)))
          CFI DPL0 load(1, XDATA, add(CFA_XSP16, literal(-2)))
          CFI DPH0 load(1, XDATA, add(CFA_XSP16, literal(-1)))
          CFI R6 load(1, XDATA, add(CFA_XSP16, literal(-20)))
          CFI R7 load(1, XDATA, add(CFA_XSP16, literal(-6)))
          CFI V0 load(1, XDATA, add(CFA_XSP16, literal(-18)))
          CFI V1 load(1, XDATA, add(CFA_XSP16, literal(-17)))
          CFI V2 load(1, XDATA, add(CFA_XSP16, literal(-16)))
          CFI V3 load(1, XDATA, add(CFA_XSP16, literal(-15)))
          CFI V4 load(1, XDATA, add(CFA_XSP16, literal(-14)))
          CFI V5 load(1, XDATA, add(CFA_XSP16, literal(-13)))
          CFI V6 load(1, XDATA, add(CFA_XSP16, literal(-12)))
          CFI V7 load(1, XDATA, add(CFA_XSP16, literal(-11)))
          CFI V8 load(1, XDATA, add(CFA_XSP16, literal(-10)))
          CFI V9 load(1, XDATA, add(CFA_XSP16, literal(-9)))
          CFI V10 load(1, XDATA, add(CFA_XSP16, literal(-8)))
          CFI V11 load(1, XDATA, add(CFA_XSP16, literal(-7)))
          CFI ?BRET_EXT load(1, XDATA, add(CFA_XSP16, literal(-3)))
          CFI ?RET_HIGH load(1, XDATA, add(CFA_XSP16, literal(-4)))
          CFI ?RET_LOW load(1, XDATA, add(CFA_XSP16, literal(-5)))
          CFI Invalid
        LCALL     ?DEALLOC_XSTACK8
          CFI CFA_XSP16 add(XSP16, 20)
          CFI Valid
        MOV       R7,#0xc
        LJMP      ?BANKED_LEAVE_XDATA
          CFI EndBlock cfiBlock104
//  423 
//  424 #if defined ( ZIGBEE_SOURCE_ROUTING )
//  425 
//  426 /***************************************************************************************************
//  427  * @fn      MT_AfDataRequestSrcRtg
//  428  *
//  429  * @brief   Process AF Register command
//  430  *
//  431  * @param   pBuf - pointer to the received buffer
//  432  *
//  433  * @return  none
//  434  ***************************************************************************************************/

        RSEG BANKED_CODE:HUGECODE:NOROOT(0)
//  435 void MT_AfDataRequestSrcRtg(uint8 *pBuf)
MT_AfDataRequestSrcRtg:
          CFI Block cfiBlock105 Using cfiCommon0
          CFI Function MT_AfDataRequestSrcRtg
        CODE
//  436 {
        FUNCALL MT_AfDataRequestSrcRtg, osal_memset
        LOCFRAME ISTACK, 0, STACK
        LOCFRAME PSTACK, 0, STACK
        LOCFRAME XSTACK, 34, STACK
        LOCFRAME IOVERLAY, 0, STATIC
        LOCFRAME DOVERLAY, 0, STATIC
        ARGFRAME ISTACK, 0, STACK
        ARGFRAME PSTACK, 0, STACK
        ARGFRAME XSTACK, 34, STACK
        ARGFRAME IOVERLAY, 0, STATIC
        ARGFRAME DOVERLAY, 0, STATIC
        FUNCALL MT_AfDataRequestSrcRtg, afFindEndPointDesc
        LOCFRAME ISTACK, 0, STACK
        LOCFRAME PSTACK, 0, STACK
        LOCFRAME XSTACK, 34, STACK
        LOCFRAME IOVERLAY, 0, STATIC
        LOCFRAME DOVERLAY, 0, STATIC
        ARGFRAME ISTACK, 0, STACK
        ARGFRAME PSTACK, 0, STACK
        ARGFRAME XSTACK, 34, STACK
        ARGFRAME IOVERLAY, 0, STATIC
        ARGFRAME DOVERLAY, 0, STATIC
        FUNCALL MT_AfDataRequestSrcRtg, osal_mem_alloc
        LOCFRAME ISTACK, 0, STACK
        LOCFRAME PSTACK, 0, STACK
        LOCFRAME XSTACK, 34, STACK
        LOCFRAME IOVERLAY, 0, STATIC
        LOCFRAME DOVERLAY, 0, STATIC
        ARGFRAME ISTACK, 0, STACK
        ARGFRAME PSTACK, 0, STACK
        ARGFRAME XSTACK, 34, STACK
        ARGFRAME IOVERLAY, 0, STATIC
        ARGFRAME DOVERLAY, 0, STATIC
        FUNCALL MT_AfDataRequestSrcRtg, AF_DataRequestSrcRtg
        LOCFRAME ISTACK, 0, STACK
        LOCFRAME PSTACK, 0, STACK
        LOCFRAME XSTACK, 46, STACK
        LOCFRAME IOVERLAY, 0, STATIC
        LOCFRAME DOVERLAY, 0, STATIC
        ARGFRAME ISTACK, 0, STACK
        ARGFRAME PSTACK, 0, STACK
        ARGFRAME XSTACK, 46, STACK
        ARGFRAME IOVERLAY, 0, STATIC
        ARGFRAME DOVERLAY, 0, STATIC
        FUNCALL MT_AfDataRequestSrcRtg, osal_mem_free
        LOCFRAME ISTACK, 0, STACK
        LOCFRAME PSTACK, 0, STACK
        LOCFRAME XSTACK, 34, STACK
        LOCFRAME IOVERLAY, 0, STATIC
        LOCFRAME DOVERLAY, 0, STATIC
        ARGFRAME ISTACK, 0, STACK
        ARGFRAME PSTACK, 0, STACK
        ARGFRAME XSTACK, 34, STACK
        ARGFRAME IOVERLAY, 0, STATIC
        ARGFRAME DOVERLAY, 0, STATIC
        FUNCALL MT_AfDataRequestSrcRtg, MT_BuildAndSendZToolResponse
        LOCFRAME ISTACK, 0, STACK
        LOCFRAME PSTACK, 0, STACK
        LOCFRAME XSTACK, 34, STACK
        LOCFRAME IOVERLAY, 0, STATIC
        LOCFRAME DOVERLAY, 0, STATIC
        ARGFRAME ISTACK, 0, STACK
        ARGFRAME PSTACK, 0, STACK
        ARGFRAME XSTACK, 34, STACK
        ARGFRAME IOVERLAY, 0, STATIC
        ARGFRAME DOVERLAY, 0, STATIC
        REQUIRE ?V0
        REQUIRE ?V1
        REQUIRE ?V2
        REQUIRE ?V3
        REQUIRE ?V4
        REQUIRE ?V5
        REQUIRE ?V6
        REQUIRE ?V7
        REQUIRE ?V8
        REQUIRE ?V9
        REQUIRE ?V10
        REQUIRE ?V11
        MOV       A,#-0x14
        LCALL     ?BANKED_ENTER_XDATA
          CFI DPH0 load(1, XDATA, add(CFA_XSP16, literal(-1)))
          CFI DPL0 load(1, XDATA, add(CFA_XSP16, literal(-2)))
          CFI ?BRET_EXT load(1, XDATA, add(CFA_XSP16, literal(-3)))
          CFI ?RET_HIGH load(1, XDATA, add(CFA_XSP16, literal(-4)))
          CFI ?RET_LOW load(1, XDATA, add(CFA_XSP16, literal(-5)))
          CFI R7 load(1, XDATA, add(CFA_XSP16, literal(-6)))
          CFI V11 load(1, XDATA, add(CFA_XSP16, literal(-7)))
          CFI V10 load(1, XDATA, add(CFA_XSP16, literal(-8)))
          CFI V9 load(1, XDATA, add(CFA_XSP16, literal(-9)))
          CFI V8 load(1, XDATA, add(CFA_XSP16, literal(-10)))
          CFI V7 load(1, XDATA, add(CFA_XSP16, literal(-11)))
          CFI V6 load(1, XDATA, add(CFA_XSP16, literal(-12)))
          CFI V5 load(1, XDATA, add(CFA_XSP16, literal(-13)))
          CFI V4 load(1, XDATA, add(CFA_XSP16, literal(-14)))
          CFI V3 load(1, XDATA, add(CFA_XSP16, literal(-15)))
          CFI V2 load(1, XDATA, add(CFA_XSP16, literal(-16)))
          CFI V1 load(1, XDATA, add(CFA_XSP16, literal(-17)))
          CFI V0 load(1, XDATA, add(CFA_XSP16, literal(-18)))
          CFI VB load(1, XDATA, add(CFA_XSP16, literal(-19)))
          CFI R6 load(1, XDATA, add(CFA_XSP16, literal(-20)))
          CFI CFA_SP SP+0
          CFI CFA_XSP16 add(XSP16, 20)
        ; Saved register size: 20
        ; Auto size: 14
        MOV       A,#-0xe
        LCALL     ?ALLOC_XSTACK8
          CFI CFA_XSP16 add(XSP16, 34)
        MOV       A,R3
        MOV       R7,A
//  437   uint8 cmdId, dataLen = 0;
//  438   uint8 retValue = ZFailure;
        MOV       DPL,?XSP + 0
        MOV       DPH,?XSP + 1
        MOV       A,#0x1
        LCALL     ?Subroutine25 & 0xFFFF
//  439   endPointDesc_t *epDesc;
//  440   byte transId;
//  441   afAddrType_t dstAddr;
//  442   cId_t cId;
//  443   byte txOpts, radius, srcEP, relayCnt;
//  444   uint16 *pRelayList;
//  445   uint8 i;
//  446 
//  447   /* parse header */
//  448   cmdId = pBuf[MT_RPC_POS_CMD1];
//  449   pBuf += MT_RPC_FRAME_HDR_SZ;
??CrossCallReturnLabel_37:
        MOV       R6,A
        JNC       ??MT_AfDataRequestSrcRtg_0
        INC       R7
//  450 
//  451   /* Destination address */
//  452   /* Initialize the panID field to zero to avoid inter-pan */
//  453   osal_memset( &dstAddr, 0, sizeof(afAddrType_t) );
??MT_AfDataRequestSrcRtg_0:
        ; Setup parameters for call to function osal_memset
        MOV       R4,#0xc
        MOV       R5,#0x0
        MOV       R1,#0x0
        MOV       A,#0x2
        LCALL     ?XSTACK_DISP101_8
        LCALL     `??osal_memset::?relay`; Banked call to: osal_memset
//  454   dstAddr.addrMode = afAddr16Bit;
        MOV       A,#0xa
        LCALL     ?XSTACK_DISP0_8
        MOV       A,#0x2
        MOVX      @DPTR,A
//  455   dstAddr.addr.shortAddr = BUILD_UINT16(pBuf[0], pBuf[1]);
        MOV       DPL,R6
        MOV       DPH,R7
        LCALL     ??Subroutine56_0 & 0xFFFF
??CrossCallReturnLabel_99:
        MOV       A,#0x2
        LCALL     ?XSTACK_DISP0_8
        MOV       A,R2
        LCALL     ??Subroutine57_0 & 0xFFFF
//  456   pBuf += 2;
//  457 
//  458   /* Destination endpoint */
//  459   dstAddr.endPoint = *pBuf++;
??CrossCallReturnLabel_104:
        MOV       DPL,R6
        MOV       DPH,R7
        INC       DPTR
        INC       DPTR
        MOVX      A,@DPTR
        PUSH      A
          CFI CFA_SP SP+-1
        MOV       A,#0xb
        LCALL     ?XSTACK_DISP0_8
        POP       A
          CFI CFA_SP SP+0
        LCALL     ?Subroutine29 & 0xFFFF
//  460 
//  461   /* Source endpoint */
//  462   srcEP = *pBuf++;
??CrossCallReturnLabel_43:
        MOV       R1,A
        MOV       A,R6
        ADD       A,#0x4
        MOV       R6,A
        JNC       ??MT_AfDataRequestSrcRtg_1
        INC       R7
//  463   epDesc = afFindEndPointDesc( srcEP );
??MT_AfDataRequestSrcRtg_1:
        ; Setup parameters for call to function afFindEndPointDesc
        LCALL     `??afFindEndPointDesc::?relay`; Banked call to: afFindEndPointDesc
        MOV       ?V10,R2
        MOV       ?V11,R3
//  464 
//  465   /* ClusterId */
//  466   cId = BUILD_UINT16(pBuf[0], pBuf[1]);
        MOV       DPL,R6
        MOV       DPH,R7
        LCALL     ?Subroutine8 & 0xFFFF
//  467   pBuf +=2;
//  468 
//  469   /* TransId */
//  470   transId = *pBuf++;
??CrossCallReturnLabel_8:
        MOV       DPL,R6
        MOV       DPH,R7
        INC       DPTR
        INC       DPTR
        MOVX      A,@DPTR
        PUSH      A
          CFI CFA_SP SP+-1
        MOV       A,#0x1
        LCALL     ?XSTACK_DISP0_8
        POP       A
          CFI CFA_SP SP+0
        LCALL     ?Subroutine29 & 0xFFFF
//  471 
//  472   /* TxOption */
//  473   txOpts = *pBuf++;
??CrossCallReturnLabel_44:
        MOV       ?V4,A
//  474 
//  475   /* Radius */
//  476   radius = *pBuf++;
        MOV       DPL,R6
        MOV       DPH,R7
        INC       DPTR
        INC       DPTR
        INC       DPTR
        INC       DPTR
        MOVX      A,@DPTR
        MOV       ?V5,A
//  477 
//  478   /* Source route relay count */
//  479   relayCnt = *pBuf++;
        MOV       DPL,R6
        MOV       DPH,R7
        INC       DPTR
        INC       DPTR
        INC       DPTR
        INC       DPTR
        INC       DPTR
        MOVX      A,@DPTR
        MOV       ?V8,A
        MOV       A,R6
        ADD       A,#0x6
        MOV       R6,A
        JNC       ??MT_AfDataRequestSrcRtg_2
        INC       R7
//  480 
//  481   /* Convert the source route relay list */
//  482   if( (pRelayList = osal_mem_alloc( relayCnt * sizeof( uint16 ))) != NULL )
??MT_AfDataRequestSrcRtg_2:
        ; Setup parameters for call to function osal_mem_alloc
        MOV       R2,?V8
        MOV       A,R2
        ADD       A,R2
        MOV       R2,A
        CLR       A
        RLC       A
        MOV       R3,A
        LCALL     ?Subroutine35 & 0xFFFF
??CrossCallReturnLabel_53:
        JNZ       $+5
        LJMP      ??MT_AfDataRequestSrcRtg_3 & 0xFFFF
//  483   {
//  484     for( i = 0; i < relayCnt; i++ )
        MOV       R4,#0x0
        SJMP      ??MT_AfDataRequestSrcRtg_4
//  485     {
//  486       pRelayList[i]  = BUILD_UINT16( pBuf[0], pBuf[1] );
??MT_AfDataRequestSrcRtg_5:
        MOVX      A,@DPTR
        MOV       R1,A
        MOV       A,R2
        MOV       R0,A
        MOV       A,R4
        ADD       A,0xE0 /* A   */
        MOV       R2,A
        CLR       A
        RLC       A
        MOV       R3,A
        MOV       A,?V0
        ADD       A,R2
        MOV       DPL,A
        MOV       A,?V1
        ADDC      A,R3
        MOV       DPH,A
        LCALL     ?Subroutine31 & 0xFFFF
//  487       pBuf += 2;
??CrossCallReturnLabel_105:
        MOV       A,R6
        ADD       A,#0x2
        MOV       R6,A
        JNC       ??MT_AfDataRequestSrcRtg_6
        INC       R7
//  488     }
??MT_AfDataRequestSrcRtg_6:
        INC       R4
??MT_AfDataRequestSrcRtg_4:
        MOV       A,R4
        CLR       C
        SUBB      A,?V8
        MOV       DPL,R6
        MOV       DPH,R7
        MOVX      A,@DPTR
        MOV       R2,A
        INC       DPTR
        JC        ??MT_AfDataRequestSrcRtg_5
//  489 
//  490     /* Data payload Length */
//  491     dataLen = *pBuf++;
        MOV       R6,DPL
        MOV       R7,DPH
//  492 
//  493     if ( epDesc == NULL )
        MOV       A,?V10
        ORL       A,?V11
        JNZ       ??MT_AfDataRequestSrcRtg_7
//  494     {
//  495       retValue = afStatus_INVALID_PARAMETER;
        MOV       DPL,?XSP + 0
        MOV       DPH,?XSP + 1
        MOV       A,#0x2
        SJMP      ??MT_AfDataRequestSrcRtg_8
//  496     }
//  497     else
//  498     {
//  499       retValue = AF_DataRequestSrcRtg( &dstAddr, epDesc, cId, dataLen, pBuf,
//  500                                      &transId, txOpts, radius, relayCnt, pRelayList );
??MT_AfDataRequestSrcRtg_7:
        ; Setup parameters for call to function AF_DataRequestSrcRtg
        MOV       R0,#?V0
        LCALL     ?PUSH_XSTACK_I_TWO
          CFI CFA_XSP16 add(XSP16, 36)
        MOV       A,?V8
        MOV       ?V6,A
        MOV       R0,#?V6
        LCALL     ?PUSH_XSTACK_I_ONE
          CFI CFA_XSP16 add(XSP16, 37)
        MOV       R0,#?V5
        LCALL     ?PUSH_XSTACK_I_ONE
          CFI CFA_XSP16 add(XSP16, 38)
        MOV       A,#0x5
        LCALL     ?XSTACK_DISP100_8
        MOV       ?V6,R0
        MOV       ?V7,R1
        MOV       R0,#?V6
        LCALL     ?PUSH_XSTACK_I_TWO
          CFI CFA_XSP16 add(XSP16, 40)
        MOV       ?V6,R6
        MOV       ?V7,R7
        MOV       R0,#?V6
        LCALL     ?PUSH_XSTACK_I_TWO
          CFI CFA_XSP16 add(XSP16, 42)
        MOV       A,R2
        MOV       ?V6,A
        MOV       ?V7,#0x0
        MOV       R0,#?V6
        LCALL     ?PUSH_XSTACK_I_TWO
          CFI CFA_XSP16 add(XSP16, 44)
        MOV       R0,#?V2
        LCALL     ?PUSH_XSTACK_I_TWO
          CFI CFA_XSP16 add(XSP16, 46)
        MOV       R1,?V4
        MOV       R4,?V10
        MOV       R5,?V11
        MOV       A,#0xe
        LCALL     ?XSTACK_DISP101_8
        LCALL     `??AF_DataRequestSrcRtg::?relay`; Banked call to: AF_DataRequestSrcRtg
        MOV       A,#0xc
        LCALL     ?DEALLOC_XSTACK8
          CFI CFA_XSP16 add(XSP16, 34)
        MOV       A,R1
        MOV       DPL,?XSP + 0
        MOV       DPH,?XSP + 1
??MT_AfDataRequestSrcRtg_8:
        MOVX      @DPTR,A
//  501     }
//  502 
//  503     /* Free the memory allocated */
//  504     osal_mem_free( pRelayList );
        ; Setup parameters for call to function osal_mem_free
        MOV       R2,?V0
        MOV       R3,?V1
        LCALL     `??osal_mem_free::?relay`; Banked call to: osal_mem_free
        SJMP      ??MT_AfDataRequestSrcRtg_9
//  505   }
//  506   else
//  507   {
//  508     retValue = afStatus_MEM_FAIL;
??MT_AfDataRequestSrcRtg_3:
        MOV       DPL,?XSP + 0
        MOV       DPH,?XSP + 1
        MOV       A,#0x10
        MOVX      @DPTR,A
//  509   }
//  510 
//  511 
//  512   /* Build and send back the response */
//  513   MT_BuildAndSendZToolResponse(((uint8)MT_RPC_CMD_SRSP | (uint8)MT_RPC_SYS_AF), cmdId, 1, &retValue);
??MT_AfDataRequestSrcRtg_9:
        ; Setup parameters for call to function MT_BuildAndSendZToolResponse
        MOV       R4,?XSP + 0
        MOV       R5,?XSP + 1
        MOV       R3,#0x1
        MOV       R2,?V9
        MOV       R1,#0x64
        LCALL     `??MT_BuildAndSendZToolResponse::?relay`; Banked call to: MT_BuildAndSendZToolResponse
//  514 }
        MOV       A,#0xe
        LJMP      ??Subroutine55_0 & 0xFFFF
          CFI EndBlock cfiBlock105

        RSEG BANKED_CODE:HUGECODE:NOROOT(0)
?Subroutine35:
          CFI Block cfiCond106 Using cfiCommon0
          CFI Function MT_AfRegister
          CFI Conditional ??CrossCallReturnLabel_52
          CFI R6 load(1, XDATA, add(CFA_XSP16, literal(-14)))
          CFI VB load(1, XDATA, add(CFA_XSP16, literal(-13)))
          CFI V0 load(1, XDATA, add(CFA_XSP16, literal(-12)))
          CFI V1 load(1, XDATA, add(CFA_XSP16, literal(-11)))
          CFI V2 load(1, XDATA, add(CFA_XSP16, literal(-10)))
          CFI V3 load(1, XDATA, add(CFA_XSP16, literal(-9)))
          CFI V4 load(1, XDATA, add(CFA_XSP16, literal(-8)))
          CFI V5 load(1, XDATA, add(CFA_XSP16, literal(-7)))
          CFI R7 load(1, XDATA, add(CFA_XSP16, literal(-6)))
          CFI ?RET_LOW load(1, XDATA, add(CFA_XSP16, literal(-5)))
          CFI ?RET_HIGH load(1, XDATA, add(CFA_XSP16, literal(-4)))
          CFI ?BRET_EXT load(1, XDATA, add(CFA_XSP16, literal(-3)))
          CFI DPL0 load(1, XDATA, add(CFA_XSP16, literal(-2)))
          CFI DPH0 load(1, XDATA, add(CFA_XSP16, literal(-1)))
          CFI CFA_SP SP+-2
          CFI CFA_XSP16 add(XSP16, 15)
          CFI Block cfiCond107 Using cfiCommon0
          CFI (cfiCond107) Function MT_AfDataRequestSrcRtg
          CFI (cfiCond107) Conditional ??CrossCallReturnLabel_53
          CFI (cfiCond107) R6 load(1, XDATA, add(CFA_XSP16, literal(-20)))
          CFI (cfiCond107) VB load(1, XDATA, add(CFA_XSP16, literal(-19)))
          CFI (cfiCond107) V0 load(1, XDATA, add(CFA_XSP16, literal(-18)))
          CFI (cfiCond107) V1 load(1, XDATA, add(CFA_XSP16, literal(-17)))
          CFI (cfiCond107) V2 load(1, XDATA, add(CFA_XSP16, literal(-16)))
          CFI (cfiCond107) V3 load(1, XDATA, add(CFA_XSP16, literal(-15)))
          CFI (cfiCond107) V4 load(1, XDATA, add(CFA_XSP16, literal(-14)))
          CFI (cfiCond107) V5 load(1, XDATA, add(CFA_XSP16, literal(-13)))
          CFI (cfiCond107) V6 load(1, XDATA, add(CFA_XSP16, literal(-12)))
          CFI (cfiCond107) V7 load(1, XDATA, add(CFA_XSP16, literal(-11)))
          CFI (cfiCond107) V8 load(1, XDATA, add(CFA_XSP16, literal(-10)))
          CFI (cfiCond107) V9 load(1, XDATA, add(CFA_XSP16, literal(-9)))
          CFI (cfiCond107) V10 load(1, XDATA, add(CFA_XSP16, literal(-8)))
          CFI (cfiCond107) V11 load(1, XDATA, add(CFA_XSP16, literal(-7)))
          CFI (cfiCond107) R7 load(1, XDATA, add(CFA_XSP16, literal(-6)))
          CFI (cfiCond107) ?RET_LOW load(1, XDATA, add(CFA_XSP16, literal(-5)))
          CFI (cfiCond107) ?RET_HIGH load(1, XDATA, add(CFA_XSP16, literal(-4)))
          CFI (cfiCond107) ?BRET_EXT load(1, XDATA, add(CFA_XSP16, literal(-3)))
          CFI (cfiCond107) DPL0 load(1, XDATA, add(CFA_XSP16, literal(-2)))
          CFI (cfiCond107) DPH0 load(1, XDATA, add(CFA_XSP16, literal(-1)))
          CFI (cfiCond107) CFA_SP SP+-2
          CFI (cfiCond107) CFA_XSP16 add(XSP16, 34)
          CFI Block cfiPicker108 Using cfiCommon1
          CFI (cfiPicker108) NoFunction
          CFI (cfiPicker108) Picker
        LCALL     `??osal_mem_alloc::?relay`; Banked call to: osal_mem_alloc
        MOV       ?V0,R2
        MOV       ?V1,R3
        MOV       A,R2
        ORL       A,R3
        RET
          CFI EndBlock cfiCond106
          CFI EndBlock cfiCond107
          CFI EndBlock cfiPicker108

        RSEG BANKED_CODE:HUGECODE:NOROOT(0)
?Subroutine29:
          CFI Block cfiCond109 Using cfiCommon0
          CFI Function MT_AfDataRequestSrcRtg
          CFI Conditional ??CrossCallReturnLabel_43
          CFI R6 load(1, XDATA, add(CFA_XSP16, literal(-20)))
          CFI VB load(1, XDATA, add(CFA_XSP16, literal(-19)))
          CFI V0 load(1, XDATA, add(CFA_XSP16, literal(-18)))
          CFI V1 load(1, XDATA, add(CFA_XSP16, literal(-17)))
          CFI V2 load(1, XDATA, add(CFA_XSP16, literal(-16)))
          CFI V3 load(1, XDATA, add(CFA_XSP16, literal(-15)))
          CFI V4 load(1, XDATA, add(CFA_XSP16, literal(-14)))
          CFI V5 load(1, XDATA, add(CFA_XSP16, literal(-13)))
          CFI V6 load(1, XDATA, add(CFA_XSP16, literal(-12)))
          CFI V7 load(1, XDATA, add(CFA_XSP16, literal(-11)))
          CFI V8 load(1, XDATA, add(CFA_XSP16, literal(-10)))
          CFI V9 load(1, XDATA, add(CFA_XSP16, literal(-9)))
          CFI V10 load(1, XDATA, add(CFA_XSP16, literal(-8)))
          CFI V11 load(1, XDATA, add(CFA_XSP16, literal(-7)))
          CFI R7 load(1, XDATA, add(CFA_XSP16, literal(-6)))
          CFI ?RET_LOW load(1, XDATA, add(CFA_XSP16, literal(-5)))
          CFI ?RET_HIGH load(1, XDATA, add(CFA_XSP16, literal(-4)))
          CFI ?BRET_EXT load(1, XDATA, add(CFA_XSP16, literal(-3)))
          CFI DPL0 load(1, XDATA, add(CFA_XSP16, literal(-2)))
          CFI DPH0 load(1, XDATA, add(CFA_XSP16, literal(-1)))
          CFI CFA_SP SP+-2
          CFI CFA_XSP16 add(XSP16, 34)
          CFI Block cfiCond110 Using cfiCommon0
          CFI (cfiCond110) Function MT_AfDataRequestSrcRtg
          CFI (cfiCond110) Conditional ??CrossCallReturnLabel_44
          CFI (cfiCond110) R6 load(1, XDATA, add(CFA_XSP16, literal(-20)))
          CFI (cfiCond110) VB load(1, XDATA, add(CFA_XSP16, literal(-19)))
          CFI (cfiCond110) V0 load(1, XDATA, add(CFA_XSP16, literal(-18)))
          CFI (cfiCond110) V1 load(1, XDATA, add(CFA_XSP16, literal(-17)))
          CFI (cfiCond110) V2 load(1, XDATA, add(CFA_XSP16, literal(-16)))
          CFI (cfiCond110) V3 load(1, XDATA, add(CFA_XSP16, literal(-15)))
          CFI (cfiCond110) V4 load(1, XDATA, add(CFA_XSP16, literal(-14)))
          CFI (cfiCond110) V5 load(1, XDATA, add(CFA_XSP16, literal(-13)))
          CFI (cfiCond110) V6 load(1, XDATA, add(CFA_XSP16, literal(-12)))
          CFI (cfiCond110) V7 load(1, XDATA, add(CFA_XSP16, literal(-11)))
          CFI (cfiCond110) V8 load(1, XDATA, add(CFA_XSP16, literal(-10)))
          CFI (cfiCond110) V9 load(1, XDATA, add(CFA_XSP16, literal(-9)))
          CFI (cfiCond110) V10 load(1, XDATA, add(CFA_XSP16, literal(-8)))
          CFI (cfiCond110) V11 load(1, XDATA, add(CFA_XSP16, literal(-7)))
          CFI (cfiCond110) R7 load(1, XDATA, add(CFA_XSP16, literal(-6)))
          CFI (cfiCond110) ?RET_LOW load(1, XDATA, add(CFA_XSP16, literal(-5)))
          CFI (cfiCond110) ?RET_HIGH load(1, XDATA, add(CFA_XSP16, literal(-4)))
          CFI (cfiCond110) ?BRET_EXT load(1, XDATA, add(CFA_XSP16, literal(-3)))
          CFI (cfiCond110) DPL0 load(1, XDATA, add(CFA_XSP16, literal(-2)))
          CFI (cfiCond110) DPH0 load(1, XDATA, add(CFA_XSP16, literal(-1)))
          CFI (cfiCond110) CFA_SP SP+-2
          CFI (cfiCond110) CFA_XSP16 add(XSP16, 34)
          CFI Block cfiPicker111 Using cfiCommon1
          CFI (cfiPicker111) NoFunction
          CFI (cfiPicker111) Picker
        MOVX      @DPTR,A
        MOV       DPL,R6
        MOV       DPH,R7
        INC       DPTR
        INC       DPTR
        INC       DPTR
        MOVX      A,@DPTR
        RET
          CFI EndBlock cfiCond109
          CFI EndBlock cfiCond110
          CFI EndBlock cfiPicker111

        RSEG BANKED_CODE:HUGECODE:NOROOT(0)
?Subroutine25:
          CFI Block cfiCond112 Using cfiCommon0
          CFI Function MT_AfDataRequest
          CFI Conditional ??CrossCallReturnLabel_36
          CFI R6 load(1, XDATA, add(CFA_XSP16, literal(-20)))
          CFI VB load(1, XDATA, add(CFA_XSP16, literal(-19)))
          CFI V0 load(1, XDATA, add(CFA_XSP16, literal(-18)))
          CFI V1 load(1, XDATA, add(CFA_XSP16, literal(-17)))
          CFI V2 load(1, XDATA, add(CFA_XSP16, literal(-16)))
          CFI V3 load(1, XDATA, add(CFA_XSP16, literal(-15)))
          CFI V4 load(1, XDATA, add(CFA_XSP16, literal(-14)))
          CFI V5 load(1, XDATA, add(CFA_XSP16, literal(-13)))
          CFI V6 load(1, XDATA, add(CFA_XSP16, literal(-12)))
          CFI V7 load(1, XDATA, add(CFA_XSP16, literal(-11)))
          CFI V8 load(1, XDATA, add(CFA_XSP16, literal(-10)))
          CFI V9 load(1, XDATA, add(CFA_XSP16, literal(-9)))
          CFI V10 load(1, XDATA, add(CFA_XSP16, literal(-8)))
          CFI V11 load(1, XDATA, add(CFA_XSP16, literal(-7)))
          CFI R7 load(1, XDATA, add(CFA_XSP16, literal(-6)))
          CFI ?RET_LOW load(1, XDATA, add(CFA_XSP16, literal(-5)))
          CFI ?RET_HIGH load(1, XDATA, add(CFA_XSP16, literal(-4)))
          CFI ?BRET_EXT load(1, XDATA, add(CFA_XSP16, literal(-3)))
          CFI DPL0 load(1, XDATA, add(CFA_XSP16, literal(-2)))
          CFI DPH0 load(1, XDATA, add(CFA_XSP16, literal(-1)))
          CFI CFA_SP SP+-2
          CFI CFA_XSP16 add(XSP16, 35)
          CFI Block cfiCond113 Using cfiCommon0
          CFI (cfiCond113) Function MT_AfDataRequestSrcRtg
          CFI (cfiCond113) Conditional ??CrossCallReturnLabel_37
          CFI (cfiCond113) R6 load(1, XDATA, add(CFA_XSP16, literal(-20)))
          CFI (cfiCond113) VB load(1, XDATA, add(CFA_XSP16, literal(-19)))
          CFI (cfiCond113) V0 load(1, XDATA, add(CFA_XSP16, literal(-18)))
          CFI (cfiCond113) V1 load(1, XDATA, add(CFA_XSP16, literal(-17)))
          CFI (cfiCond113) V2 load(1, XDATA, add(CFA_XSP16, literal(-16)))
          CFI (cfiCond113) V3 load(1, XDATA, add(CFA_XSP16, literal(-15)))
          CFI (cfiCond113) V4 load(1, XDATA, add(CFA_XSP16, literal(-14)))
          CFI (cfiCond113) V5 load(1, XDATA, add(CFA_XSP16, literal(-13)))
          CFI (cfiCond113) V6 load(1, XDATA, add(CFA_XSP16, literal(-12)))
          CFI (cfiCond113) V7 load(1, XDATA, add(CFA_XSP16, literal(-11)))
          CFI (cfiCond113) V8 load(1, XDATA, add(CFA_XSP16, literal(-10)))
          CFI (cfiCond113) V9 load(1, XDATA, add(CFA_XSP16, literal(-9)))
          CFI (cfiCond113) V10 load(1, XDATA, add(CFA_XSP16, literal(-8)))
          CFI (cfiCond113) V11 load(1, XDATA, add(CFA_XSP16, literal(-7)))
          CFI (cfiCond113) R7 load(1, XDATA, add(CFA_XSP16, literal(-6)))
          CFI (cfiCond113) ?RET_LOW load(1, XDATA, add(CFA_XSP16, literal(-5)))
          CFI (cfiCond113) ?RET_HIGH load(1, XDATA, add(CFA_XSP16, literal(-4)))
          CFI (cfiCond113) ?BRET_EXT load(1, XDATA, add(CFA_XSP16, literal(-3)))
          CFI (cfiCond113) DPL0 load(1, XDATA, add(CFA_XSP16, literal(-2)))
          CFI (cfiCond113) DPH0 load(1, XDATA, add(CFA_XSP16, literal(-1)))
          CFI (cfiCond113) CFA_SP SP+-2
          CFI (cfiCond113) CFA_XSP16 add(XSP16, 34)
          CFI Block cfiPicker114 Using cfiCommon1
          CFI (cfiPicker114) NoFunction
          CFI (cfiPicker114) Picker
        LCALL     ?Subroutine45 & 0xFFFF
??CrossCallReturnLabel_71:
        INC       DPTR
        MOVX      A,@DPTR
        MOV       ?V9,A
        MOV       A,R2
        ADD       A,#0x3
        RET
          CFI EndBlock cfiCond112
          CFI EndBlock cfiCond113
          CFI EndBlock cfiPicker114

        RSEG BANKED_CODE:HUGECODE:NOROOT(0)
?Subroutine16:
          CFI Block cfiCond115 Using cfiCommon0
          CFI Function MT_AfDataRequest
          CFI Conditional ??CrossCallReturnLabel_100
          CFI R6 load(1, XDATA, add(CFA_XSP16, literal(-20)))
          CFI VB load(1, XDATA, add(CFA_XSP16, literal(-19)))
          CFI V0 load(1, XDATA, add(CFA_XSP16, literal(-18)))
          CFI V1 load(1, XDATA, add(CFA_XSP16, literal(-17)))
          CFI V2 load(1, XDATA, add(CFA_XSP16, literal(-16)))
          CFI V3 load(1, XDATA, add(CFA_XSP16, literal(-15)))
          CFI V4 load(1, XDATA, add(CFA_XSP16, literal(-14)))
          CFI V5 load(1, XDATA, add(CFA_XSP16, literal(-13)))
          CFI V6 load(1, XDATA, add(CFA_XSP16, literal(-12)))
          CFI V7 load(1, XDATA, add(CFA_XSP16, literal(-11)))
          CFI V8 load(1, XDATA, add(CFA_XSP16, literal(-10)))
          CFI V9 load(1, XDATA, add(CFA_XSP16, literal(-9)))
          CFI V10 load(1, XDATA, add(CFA_XSP16, literal(-8)))
          CFI V11 load(1, XDATA, add(CFA_XSP16, literal(-7)))
          CFI R7 load(1, XDATA, add(CFA_XSP16, literal(-6)))
          CFI ?RET_LOW load(1, XDATA, add(CFA_XSP16, literal(-5)))
          CFI ?RET_HIGH load(1, XDATA, add(CFA_XSP16, literal(-4)))
          CFI ?BRET_EXT load(1, XDATA, add(CFA_XSP16, literal(-3)))
          CFI DPL0 load(1, XDATA, add(CFA_XSP16, literal(-2)))
          CFI DPH0 load(1, XDATA, add(CFA_XSP16, literal(-1)))
          CFI CFA_SP SP+-2
          CFI CFA_XSP16 add(XSP16, 35)
          CFI Block cfiCond116 Using cfiCommon0
          CFI (cfiCond116) Function MT_AfDataRequest
          CFI (cfiCond116) Conditional ??CrossCallReturnLabel_101
          CFI (cfiCond116) R6 load(1, XDATA, add(CFA_XSP16, literal(-20)))
          CFI (cfiCond116) VB load(1, XDATA, add(CFA_XSP16, literal(-19)))
          CFI (cfiCond116) V0 load(1, XDATA, add(CFA_XSP16, literal(-18)))
          CFI (cfiCond116) V1 load(1, XDATA, add(CFA_XSP16, literal(-17)))
          CFI (cfiCond116) V2 load(1, XDATA, add(CFA_XSP16, literal(-16)))
          CFI (cfiCond116) V3 load(1, XDATA, add(CFA_XSP16, literal(-15)))
          CFI (cfiCond116) V4 load(1, XDATA, add(CFA_XSP16, literal(-14)))
          CFI (cfiCond116) V5 load(1, XDATA, add(CFA_XSP16, literal(-13)))
          CFI (cfiCond116) V6 load(1, XDATA, add(CFA_XSP16, literal(-12)))
          CFI (cfiCond116) V7 load(1, XDATA, add(CFA_XSP16, literal(-11)))
          CFI (cfiCond116) V8 load(1, XDATA, add(CFA_XSP16, literal(-10)))
          CFI (cfiCond116) V9 load(1, XDATA, add(CFA_XSP16, literal(-9)))
          CFI (cfiCond116) V10 load(1, XDATA, add(CFA_XSP16, literal(-8)))
          CFI (cfiCond116) V11 load(1, XDATA, add(CFA_XSP16, literal(-7)))
          CFI (cfiCond116) R7 load(1, XDATA, add(CFA_XSP16, literal(-6)))
          CFI (cfiCond116) ?RET_LOW load(1, XDATA, add(CFA_XSP16, literal(-5)))
          CFI (cfiCond116) ?RET_HIGH load(1, XDATA, add(CFA_XSP16, literal(-4)))
          CFI (cfiCond116) ?BRET_EXT load(1, XDATA, add(CFA_XSP16, literal(-3)))
          CFI (cfiCond116) DPL0 load(1, XDATA, add(CFA_XSP16, literal(-2)))
          CFI (cfiCond116) DPH0 load(1, XDATA, add(CFA_XSP16, literal(-1)))
          CFI (cfiCond116) CFA_SP SP+-2
          CFI (cfiCond116) CFA_XSP16 add(XSP16, 35)
          CFI Block cfiPicker117 Using cfiCommon1
          CFI (cfiPicker117) NoFunction
          CFI (cfiPicker117) Picker
        MOV       DPH,?V3
          CFI EndBlock cfiCond115
          CFI EndBlock cfiCond116
          CFI EndBlock cfiPicker117
        REQUIRE ??Subroutine56_0
        ; // Fall through to label ??Subroutine56_0

        RSEG BANKED_CODE:HUGECODE:NOROOT(0)
??Subroutine56_0:
          CFI Block cfiCond118 Using cfiCommon0
          CFI Function MT_AfDataRequest
          CFI Conditional ??CrossCallReturnLabel_98
          CFI R6 load(1, XDATA, add(CFA_XSP16, literal(-20)))
          CFI VB load(1, XDATA, add(CFA_XSP16, literal(-19)))
          CFI V0 load(1, XDATA, add(CFA_XSP16, literal(-18)))
          CFI V1 load(1, XDATA, add(CFA_XSP16, literal(-17)))
          CFI V2 load(1, XDATA, add(CFA_XSP16, literal(-16)))
          CFI V3 load(1, XDATA, add(CFA_XSP16, literal(-15)))
          CFI V4 load(1, XDATA, add(CFA_XSP16, literal(-14)))
          CFI V5 load(1, XDATA, add(CFA_XSP16, literal(-13)))
          CFI V6 load(1, XDATA, add(CFA_XSP16, literal(-12)))
          CFI V7 load(1, XDATA, add(CFA_XSP16, literal(-11)))
          CFI V8 load(1, XDATA, add(CFA_XSP16, literal(-10)))
          CFI V9 load(1, XDATA, add(CFA_XSP16, literal(-9)))
          CFI V10 load(1, XDATA, add(CFA_XSP16, literal(-8)))
          CFI V11 load(1, XDATA, add(CFA_XSP16, literal(-7)))
          CFI R7 load(1, XDATA, add(CFA_XSP16, literal(-6)))
          CFI ?RET_LOW load(1, XDATA, add(CFA_XSP16, literal(-5)))
          CFI ?RET_HIGH load(1, XDATA, add(CFA_XSP16, literal(-4)))
          CFI ?BRET_EXT load(1, XDATA, add(CFA_XSP16, literal(-3)))
          CFI DPL0 load(1, XDATA, add(CFA_XSP16, literal(-2)))
          CFI DPH0 load(1, XDATA, add(CFA_XSP16, literal(-1)))
          CFI CFA_SP SP+-2
          CFI CFA_XSP16 add(XSP16, 35)
          CFI Block cfiCond119 Using cfiCommon0
          CFI (cfiCond119) Function MT_AfDataRequestSrcRtg
          CFI (cfiCond119) Conditional ??CrossCallReturnLabel_99
          CFI (cfiCond119) R6 load(1, XDATA, add(CFA_XSP16, literal(-20)))
          CFI (cfiCond119) VB load(1, XDATA, add(CFA_XSP16, literal(-19)))
          CFI (cfiCond119) V0 load(1, XDATA, add(CFA_XSP16, literal(-18)))
          CFI (cfiCond119) V1 load(1, XDATA, add(CFA_XSP16, literal(-17)))
          CFI (cfiCond119) V2 load(1, XDATA, add(CFA_XSP16, literal(-16)))
          CFI (cfiCond119) V3 load(1, XDATA, add(CFA_XSP16, literal(-15)))
          CFI (cfiCond119) V4 load(1, XDATA, add(CFA_XSP16, literal(-14)))
          CFI (cfiCond119) V5 load(1, XDATA, add(CFA_XSP16, literal(-13)))
          CFI (cfiCond119) V6 load(1, XDATA, add(CFA_XSP16, literal(-12)))
          CFI (cfiCond119) V7 load(1, XDATA, add(CFA_XSP16, literal(-11)))
          CFI (cfiCond119) V8 load(1, XDATA, add(CFA_XSP16, literal(-10)))
          CFI (cfiCond119) V9 load(1, XDATA, add(CFA_XSP16, literal(-9)))
          CFI (cfiCond119) V10 load(1, XDATA, add(CFA_XSP16, literal(-8)))
          CFI (cfiCond119) V11 load(1, XDATA, add(CFA_XSP16, literal(-7)))
          CFI (cfiCond119) R7 load(1, XDATA, add(CFA_XSP16, literal(-6)))
          CFI (cfiCond119) ?RET_LOW load(1, XDATA, add(CFA_XSP16, literal(-5)))
          CFI (cfiCond119) ?RET_HIGH load(1, XDATA, add(CFA_XSP16, literal(-4)))
          CFI (cfiCond119) ?BRET_EXT load(1, XDATA, add(CFA_XSP16, literal(-3)))
          CFI (cfiCond119) DPL0 load(1, XDATA, add(CFA_XSP16, literal(-2)))
          CFI (cfiCond119) DPH0 load(1, XDATA, add(CFA_XSP16, literal(-1)))
          CFI (cfiCond119) CFA_SP SP+-2
          CFI (cfiCond119) CFA_XSP16 add(XSP16, 34)
          CFI Block cfiCond120 Using cfiCommon0
          CFI (cfiCond120) Function MT_AfDataRequest
          CFI (cfiCond120) Conditional ??CrossCallReturnLabel_100
          CFI (cfiCond120) R6 load(1, XDATA, add(CFA_XSP16, literal(-20)))
          CFI (cfiCond120) VB load(1, XDATA, add(CFA_XSP16, literal(-19)))
          CFI (cfiCond120) V0 load(1, XDATA, add(CFA_XSP16, literal(-18)))
          CFI (cfiCond120) V1 load(1, XDATA, add(CFA_XSP16, literal(-17)))
          CFI (cfiCond120) V2 load(1, XDATA, add(CFA_XSP16, literal(-16)))
          CFI (cfiCond120) V3 load(1, XDATA, add(CFA_XSP16, literal(-15)))
          CFI (cfiCond120) V4 load(1, XDATA, add(CFA_XSP16, literal(-14)))
          CFI (cfiCond120) V5 load(1, XDATA, add(CFA_XSP16, literal(-13)))
          CFI (cfiCond120) V6 load(1, XDATA, add(CFA_XSP16, literal(-12)))
          CFI (cfiCond120) V7 load(1, XDATA, add(CFA_XSP16, literal(-11)))
          CFI (cfiCond120) V8 load(1, XDATA, add(CFA_XSP16, literal(-10)))
          CFI (cfiCond120) V9 load(1, XDATA, add(CFA_XSP16, literal(-9)))
          CFI (cfiCond120) V10 load(1, XDATA, add(CFA_XSP16, literal(-8)))
          CFI (cfiCond120) V11 load(1, XDATA, add(CFA_XSP16, literal(-7)))
          CFI (cfiCond120) R7 load(1, XDATA, add(CFA_XSP16, literal(-6)))
          CFI (cfiCond120) ?RET_LOW load(1, XDATA, add(CFA_XSP16, literal(-5)))
          CFI (cfiCond120) ?RET_HIGH load(1, XDATA, add(CFA_XSP16, literal(-4)))
          CFI (cfiCond120) ?BRET_EXT load(1, XDATA, add(CFA_XSP16, literal(-3)))
          CFI (cfiCond120) DPL0 load(1, XDATA, add(CFA_XSP16, literal(-2)))
          CFI (cfiCond120) DPH0 load(1, XDATA, add(CFA_XSP16, literal(-1)))
          CFI (cfiCond120) CFA_SP SP+-2
          CFI (cfiCond120) CFA_XSP16 add(XSP16, 35)
          CFI Block cfiCond121 Using cfiCommon0
          CFI (cfiCond121) Function MT_AfDataRequest
          CFI (cfiCond121) Conditional ??CrossCallReturnLabel_101
          CFI (cfiCond121) R6 load(1, XDATA, add(CFA_XSP16, literal(-20)))
          CFI (cfiCond121) VB load(1, XDATA, add(CFA_XSP16, literal(-19)))
          CFI (cfiCond121) V0 load(1, XDATA, add(CFA_XSP16, literal(-18)))
          CFI (cfiCond121) V1 load(1, XDATA, add(CFA_XSP16, literal(-17)))
          CFI (cfiCond121) V2 load(1, XDATA, add(CFA_XSP16, literal(-16)))
          CFI (cfiCond121) V3 load(1, XDATA, add(CFA_XSP16, literal(-15)))
          CFI (cfiCond121) V4 load(1, XDATA, add(CFA_XSP16, literal(-14)))
          CFI (cfiCond121) V5 load(1, XDATA, add(CFA_XSP16, literal(-13)))
          CFI (cfiCond121) V6 load(1, XDATA, add(CFA_XSP16, literal(-12)))
          CFI (cfiCond121) V7 load(1, XDATA, add(CFA_XSP16, literal(-11)))
          CFI (cfiCond121) V8 load(1, XDATA, add(CFA_XSP16, literal(-10)))
          CFI (cfiCond121) V9 load(1, XDATA, add(CFA_XSP16, literal(-9)))
          CFI (cfiCond121) V10 load(1, XDATA, add(CFA_XSP16, literal(-8)))
          CFI (cfiCond121) V11 load(1, XDATA, add(CFA_XSP16, literal(-7)))
          CFI (cfiCond121) R7 load(1, XDATA, add(CFA_XSP16, literal(-6)))
          CFI (cfiCond121) ?RET_LOW load(1, XDATA, add(CFA_XSP16, literal(-5)))
          CFI (cfiCond121) ?RET_HIGH load(1, XDATA, add(CFA_XSP16, literal(-4)))
          CFI (cfiCond121) ?BRET_EXT load(1, XDATA, add(CFA_XSP16, literal(-3)))
          CFI (cfiCond121) DPL0 load(1, XDATA, add(CFA_XSP16, literal(-2)))
          CFI (cfiCond121) DPH0 load(1, XDATA, add(CFA_XSP16, literal(-1)))
          CFI (cfiCond121) CFA_SP SP+-2
          CFI (cfiCond121) CFA_XSP16 add(XSP16, 35)
          CFI Block cfiPicker122 Using cfiCommon1
          CFI (cfiPicker122) NoFunction
          CFI (cfiPicker122) Picker
        MOVX      A,@DPTR
        MOV       R2,A
        INC       DPTR
        MOVX      A,@DPTR
        MOV       R1,A
        RET
          CFI EndBlock cfiCond118
          CFI EndBlock cfiCond119
          CFI EndBlock cfiCond120
          CFI EndBlock cfiCond121
          CFI EndBlock cfiPicker122
//  515 #endif
//  516 
//  517 #if defined INTER_PAN
//  518 /***************************************************************************************************
//  519  * @fn      MT_AfInterPanCtl
//  520  *
//  521  * @brief   Process the AF Inter Pan control command.
//  522  *
//  523  * @param   pBuf - pointer to the received buffer
//  524  *
//  525  * @return  none
//  526  ***************************************************************************************************/
//  527 static void MT_AfInterPanCtl(uint8 *pBuf)
//  528 {
//  529   uint8 cmd, rtrn;
//  530   uint16 panId;
//  531   endPointDesc_t *pEP;
//  532 
//  533   cmd = pBuf[MT_RPC_POS_CMD1];
//  534   pBuf += MT_RPC_FRAME_HDR_SZ;
//  535 
//  536   switch (*pBuf++)  // Inter-pan request parameter.
//  537   {
//  538   case InterPanClr:
//  539     rtrn = StubAPS_SetIntraPanChannel();           // Switch channel back to the NIB channel.
//  540     break;
//  541 
//  542   case InterPanSet:
//  543     rtrn = StubAPS_SetInterPanChannel(*pBuf);      // Set channel for inter-pan communication.
//  544     break;
//  545 
//  546   case InterPanReg:
//  547     if ((pEP = afFindEndPointDesc(*pBuf)))
//  548     {
//  549       StubAPS_RegisterApp(pEP);
//  550       rtrn = SUCCESS;
//  551     }
//  552     else
//  553     {
//  554       rtrn = FAILURE;
//  555     }
//  556     break;
//  557 
//  558   case InterPanChk:
//  559     panId = BUILD_UINT16(pBuf[0], pBuf[1]);
//  560     rtrn = (StubAPS_InterPan(panId, pBuf[2])) ? ZSuccess : ZFailure;
//  561     break;
//  562 
//  563   default:
//  564     rtrn = afStatus_INVALID_PARAMETER;
//  565     break;
//  566   }
//  567 
//  568   MT_BuildAndSendZToolResponse(((uint8)MT_RPC_CMD_SRSP | (uint8)MT_RPC_SYS_AF), cmd, 1, &rtrn);
//  569 }
//  570 #endif
//  571 
//  572 /***************************************************************************************************
//  573  * @fn      MT_AfDataConfirm
//  574  *
//  575  * @brief   Process
//  576  *
//  577  * @param   pBuf - pointer to the received buffer
//  578  *
//  579  * @return  none
//  580  ***************************************************************************************************/

        RSEG BANKED_CODE:HUGECODE:NOROOT(0)
//  581 void MT_AfDataConfirm(afDataConfirm_t *pMsg)
MT_AfDataConfirm:
          CFI Block cfiBlock123 Using cfiCommon0
          CFI Function MT_AfDataConfirm
        CODE
//  582 {
        FUNCALL MT_AfDataConfirm, MT_BuildAndSendZToolResponse
        LOCFRAME ISTACK, 2, STACK
        LOCFRAME PSTACK, 0, STACK
        LOCFRAME XSTACK, 3, STACK
        LOCFRAME IOVERLAY, 0, STATIC
        LOCFRAME DOVERLAY, 0, STATIC
        ARGFRAME ISTACK, 2, STACK
        ARGFRAME PSTACK, 0, STACK
        ARGFRAME XSTACK, 3, STACK
        ARGFRAME IOVERLAY, 0, STATIC
        ARGFRAME DOVERLAY, 0, STATIC
        PUSH      DPL
          CFI DPL0 Frame(CFA_SP, 4)
          CFI CFA_SP SP+-4
        PUSH      DPH
          CFI DPH0 Frame(CFA_SP, 5)
          CFI CFA_SP SP+-5
        ; Saved register size: 2
        ; Auto size: 3
        MOV       A,#-0x3
        LCALL     ?ALLOC_XSTACK8
          CFI CFA_XSP16 add(XSP16, 3)
//  583   uint8 retArray[3];
//  584 
//  585   retArray[0] = pMsg->hdr.status;
        MOV       DPL,R2
        MOV       DPH,R3
        LCALL     ?Subroutine22 & 0xFFFF
//  586   retArray[1] = pMsg->endpoint;
??CrossCallReturnLabel_30:
        MOV       DPL,R2
        MOV       DPH,R3
        INC       DPTR
        INC       DPTR
        MOVX      A,@DPTR
        PUSH      A
          CFI CFA_SP SP+-6
        MOV       A,#0x1
        LCALL     ?XSTACK_DISP0_8
        POP       A
          CFI CFA_SP SP+-5
        LCALL     ?Subroutine32 & 0xFFFF
//  587   retArray[2] = pMsg->transID;
??CrossCallReturnLabel_48:
        MOVX      A,@DPTR
        PUSH      A
          CFI CFA_SP SP+-6
        MOV       A,#0x2
        LCALL     ?XSTACK_DISP0_8
        POP       A
          CFI CFA_SP SP+-5
        MOVX      @DPTR,A
//  588 
//  589   /* Build and send back the response */
//  590   MT_BuildAndSendZToolResponse(((uint8)MT_RPC_CMD_AREQ | (uint8)MT_RPC_SYS_AF), MT_AF_DATA_CONFIRM, 3, retArray);
        ; Setup parameters for call to function MT_BuildAndSendZToolResponse
        MOV       R4,?XSP + 0
        MOV       R5,?XSP + 1
        MOV       R3,#0x3
        MOV       R2,#-0x80
        MOV       R1,#0x44
        LCALL     `??MT_BuildAndSendZToolResponse::?relay`; Banked call to: MT_BuildAndSendZToolResponse
//  591 }
        MOV       A,#0x3
        LCALL     ?DEALLOC_XSTACK8
          CFI CFA_XSP16 XSP16+0
        POP       DPH
          CFI DPH0 SameValue
          CFI CFA_SP SP+-4
        POP       DPL
          CFI DPL0 SameValue
          CFI CFA_SP SP+-3
        LJMP      ?BRET
          CFI EndBlock cfiBlock123

        RSEG BANKED_CODE:HUGECODE:NOROOT(0)
?Subroutine32:
          CFI Block cfiCond124 Using cfiCommon0
          CFI Function MT_AfCommandProcessing
          CFI Conditional ??CrossCallReturnLabel_47
          CFI R6 load(1, XDATA, add(CFA_XSP16, literal(-9)))
          CFI VB load(1, XDATA, add(CFA_XSP16, literal(-8)))
          CFI V0 load(1, XDATA, add(CFA_XSP16, literal(-7)))
          CFI R7 load(1, XDATA, add(CFA_XSP16, literal(-6)))
          CFI ?RET_LOW load(1, XDATA, add(CFA_XSP16, literal(-5)))
          CFI ?RET_HIGH load(1, XDATA, add(CFA_XSP16, literal(-4)))
          CFI ?BRET_EXT load(1, XDATA, add(CFA_XSP16, literal(-3)))
          CFI DPL0 load(1, XDATA, add(CFA_XSP16, literal(-2)))
          CFI DPH0 load(1, XDATA, add(CFA_XSP16, literal(-1)))
          CFI CFA_SP SP+-2
          CFI CFA_XSP16 add(XSP16, 12)
          CFI Block cfiCond125 Using cfiCommon0
          CFI (cfiCond125) Function MT_AfDataConfirm
          CFI (cfiCond125) Conditional ??CrossCallReturnLabel_48
          CFI (cfiCond125) DPL0 Frame(CFA_SP, 4)
          CFI (cfiCond125) DPH0 Frame(CFA_SP, 5)
          CFI (cfiCond125) CFA_SP SP+-7
          CFI (cfiCond125) CFA_XSP16 add(XSP16, 3)
          CFI Block cfiPicker126 Using cfiCommon1
          CFI (cfiPicker126) NoFunction
          CFI (cfiPicker126) Picker
        LCALL     ?Subroutine45 & 0xFFFF
??CrossCallReturnLabel_72:
        INC       DPTR
        INC       DPTR
        RET
          CFI EndBlock cfiCond124
          CFI EndBlock cfiCond125
          CFI EndBlock cfiPicker126
//  592 
//  593 /***************************************************************************************************
//  594  * @fn          MT_AfIncomingMsg
//  595  *
//  596  * @brief       Process the callback subscription for AF Incoming data.
//  597  *
//  598  * @param       pkt - Incoming AF data.
//  599  *
//  600  * @return      none
//  601  ***************************************************************************************************/

        RSEG BANKED_CODE:HUGECODE:NOROOT(0)
//  602 void MT_AfIncomingMsg(afIncomingMSGPacket_t *pMsg)
MT_AfIncomingMsg:
          CFI Block cfiBlock127 Using cfiCommon0
          CFI Function MT_AfIncomingMsg
        CODE
//  603 {
        FUNCALL MT_AfIncomingMsg, osal_mem_alloc
        LOCFRAME ISTACK, 0, STACK
        LOCFRAME PSTACK, 0, STACK
        LOCFRAME XSTACK, 23, STACK
        LOCFRAME IOVERLAY, 0, STATIC
        LOCFRAME DOVERLAY, 0, STATIC
        ARGFRAME ISTACK, 0, STACK
        ARGFRAME PSTACK, 0, STACK
        ARGFRAME XSTACK, 23, STACK
        ARGFRAME IOVERLAY, 0, STATIC
        ARGFRAME DOVERLAY, 0, STATIC
        FUNCALL MT_AfIncomingMsg, osal_mem_alloc
        LOCFRAME ISTACK, 0, STACK
        LOCFRAME PSTACK, 0, STACK
        LOCFRAME XSTACK, 23, STACK
        LOCFRAME IOVERLAY, 0, STATIC
        LOCFRAME DOVERLAY, 0, STATIC
        ARGFRAME ISTACK, 0, STACK
        ARGFRAME PSTACK, 0, STACK
        ARGFRAME XSTACK, 23, STACK
        ARGFRAME IOVERLAY, 0, STATIC
        ARGFRAME DOVERLAY, 0, STATIC
        FUNCALL MT_AfIncomingMsg, osal_mem_free
        LOCFRAME ISTACK, 0, STACK
        LOCFRAME PSTACK, 0, STACK
        LOCFRAME XSTACK, 23, STACK
        LOCFRAME IOVERLAY, 0, STATIC
        LOCFRAME DOVERLAY, 0, STATIC
        ARGFRAME ISTACK, 0, STACK
        ARGFRAME PSTACK, 0, STACK
        ARGFRAME XSTACK, 23, STACK
        ARGFRAME IOVERLAY, 0, STATIC
        ARGFRAME DOVERLAY, 0, STATIC
        FUNCALL MT_AfIncomingMsg, osal_memcpy
        LOCFRAME ISTACK, 0, STACK
        LOCFRAME PSTACK, 0, STACK
        LOCFRAME XSTACK, 26, STACK
        LOCFRAME IOVERLAY, 0, STATIC
        LOCFRAME DOVERLAY, 0, STATIC
        ARGFRAME ISTACK, 0, STACK
        ARGFRAME PSTACK, 0, STACK
        ARGFRAME XSTACK, 26, STACK
        ARGFRAME IOVERLAY, 0, STATIC
        ARGFRAME DOVERLAY, 0, STATIC
        FUNCALL MT_AfIncomingMsg, osal_start_timerEx
        LOCFRAME ISTACK, 0, STACK
        LOCFRAME PSTACK, 0, STACK
        LOCFRAME XSTACK, 23, STACK
        LOCFRAME IOVERLAY, 0, STATIC
        LOCFRAME DOVERLAY, 0, STATIC
        ARGFRAME ISTACK, 0, STACK
        ARGFRAME PSTACK, 0, STACK
        ARGFRAME XSTACK, 23, STACK
        ARGFRAME IOVERLAY, 0, STATIC
        ARGFRAME DOVERLAY, 0, STATIC
        FUNCALL MT_AfIncomingMsg, osal_set_event
        LOCFRAME ISTACK, 0, STACK
        LOCFRAME PSTACK, 0, STACK
        LOCFRAME XSTACK, 23, STACK
        LOCFRAME IOVERLAY, 0, STATIC
        LOCFRAME DOVERLAY, 0, STATIC
        ARGFRAME ISTACK, 0, STACK
        ARGFRAME PSTACK, 0, STACK
        ARGFRAME XSTACK, 23, STACK
        ARGFRAME IOVERLAY, 0, STATIC
        ARGFRAME DOVERLAY, 0, STATIC
        FUNCALL MT_AfIncomingMsg, osal_memcpy
        LOCFRAME ISTACK, 0, STACK
        LOCFRAME PSTACK, 0, STACK
        LOCFRAME XSTACK, 26, STACK
        LOCFRAME IOVERLAY, 0, STATIC
        LOCFRAME DOVERLAY, 0, STATIC
        ARGFRAME ISTACK, 0, STACK
        ARGFRAME PSTACK, 0, STACK
        ARGFRAME XSTACK, 26, STACK
        ARGFRAME IOVERLAY, 0, STATIC
        ARGFRAME DOVERLAY, 0, STATIC
        FUNCALL MT_AfIncomingMsg, osal_memcpy
        LOCFRAME ISTACK, 0, STACK
        LOCFRAME PSTACK, 0, STACK
        LOCFRAME XSTACK, 26, STACK
        LOCFRAME IOVERLAY, 0, STATIC
        LOCFRAME DOVERLAY, 0, STATIC
        ARGFRAME ISTACK, 0, STACK
        ARGFRAME PSTACK, 0, STACK
        ARGFRAME XSTACK, 26, STACK
        ARGFRAME IOVERLAY, 0, STATIC
        ARGFRAME DOVERLAY, 0, STATIC
        FUNCALL MT_AfIncomingMsg, MT_BuildAndSendZToolResponse
        LOCFRAME ISTACK, 0, STACK
        LOCFRAME PSTACK, 0, STACK
        LOCFRAME XSTACK, 23, STACK
        LOCFRAME IOVERLAY, 0, STATIC
        LOCFRAME DOVERLAY, 0, STATIC
        ARGFRAME ISTACK, 0, STACK
        ARGFRAME PSTACK, 0, STACK
        ARGFRAME XSTACK, 23, STACK
        ARGFRAME IOVERLAY, 0, STATIC
        ARGFRAME DOVERLAY, 0, STATIC
        FUNCALL MT_AfIncomingMsg, osal_mem_free
        LOCFRAME ISTACK, 0, STACK
        LOCFRAME PSTACK, 0, STACK
        LOCFRAME XSTACK, 23, STACK
        LOCFRAME IOVERLAY, 0, STATIC
        LOCFRAME DOVERLAY, 0, STATIC
        ARGFRAME ISTACK, 0, STACK
        ARGFRAME PSTACK, 0, STACK
        ARGFRAME XSTACK, 23, STACK
        ARGFRAME IOVERLAY, 0, STATIC
        ARGFRAME DOVERLAY, 0, STATIC
        REQUIRE ?V0
        REQUIRE ?V1
        REQUIRE ?V2
        REQUIRE ?V3
        REQUIRE ?V4
        REQUIRE ?V5
        REQUIRE ?V6
        REQUIRE ?V7
        REQUIRE ?V8
        REQUIRE ?V9
        REQUIRE ?V10
        REQUIRE ?V11
        MOV       A,#-0x14
        LCALL     ?BANKED_ENTER_XDATA
          CFI DPH0 load(1, XDATA, add(CFA_XSP16, literal(-1)))
          CFI DPL0 load(1, XDATA, add(CFA_XSP16, literal(-2)))
          CFI ?BRET_EXT load(1, XDATA, add(CFA_XSP16, literal(-3)))
          CFI ?RET_HIGH load(1, XDATA, add(CFA_XSP16, literal(-4)))
          CFI ?RET_LOW load(1, XDATA, add(CFA_XSP16, literal(-5)))
          CFI R7 load(1, XDATA, add(CFA_XSP16, literal(-6)))
          CFI V11 load(1, XDATA, add(CFA_XSP16, literal(-7)))
          CFI V10 load(1, XDATA, add(CFA_XSP16, literal(-8)))
          CFI V9 load(1, XDATA, add(CFA_XSP16, literal(-9)))
          CFI V8 load(1, XDATA, add(CFA_XSP16, literal(-10)))
          CFI V7 load(1, XDATA, add(CFA_XSP16, literal(-11)))
          CFI V6 load(1, XDATA, add(CFA_XSP16, literal(-12)))
          CFI V5 load(1, XDATA, add(CFA_XSP16, literal(-13)))
          CFI V4 load(1, XDATA, add(CFA_XSP16, literal(-14)))
          CFI V3 load(1, XDATA, add(CFA_XSP16, literal(-15)))
          CFI V2 load(1, XDATA, add(CFA_XSP16, literal(-16)))
          CFI V1 load(1, XDATA, add(CFA_XSP16, literal(-17)))
          CFI V0 load(1, XDATA, add(CFA_XSP16, literal(-18)))
          CFI VB load(1, XDATA, add(CFA_XSP16, literal(-19)))
          CFI R6 load(1, XDATA, add(CFA_XSP16, literal(-20)))
          CFI CFA_SP SP+0
          CFI CFA_XSP16 add(XSP16, 20)
        ; Saved register size: 20
        ; Auto size: 3
        MOV       A,#-0x3
        LCALL     ?ALLOC_XSTACK8
          CFI CFA_XSP16 add(XSP16, 23)
        MOV       ?V8,R2
        MOV       ?V9,R3
//  604   #define MT_AF_INC_MSG_LEN  17
//  605   #define MT_AF_INC_MSG_EXT  10
//  606 
//  607   uint16 dataLen = pMsg->cmd.DataLength;  // Length of the data section in the response packet.
        MOV       A,R2
        ADD       A,#0x20
        LCALL     ?Subroutine47 & 0xFFFF
??CrossCallReturnLabel_75:
        MOV       ?V2,A
        INC       DPTR
        MOVX      A,@DPTR
        MOV       ?V3,A
//  608   uint16 respLen = MT_AF_INC_MSG_LEN + dataLen;
        MOV       A,?V2
        ADD       A,#0x11
        MOV       R6,A
        CLR       A
        ADDC      A,?V3
        MOV       R7,A
//  609   uint8 cmd = MT_AF_INCOMING_MSG;
        MOV       A,#0x2
        LCALL     ?XSTACK_DISP0_8
        MOV       A,#-0x7f
        MOVX      @DPTR,A
//  610   uint8 *pRsp, *pTmp;
//  611   mtAfInMsgList_t *pItem = NULL;
        MOV       ?V10,#0x0
        MOV       ?V11,#0x0
//  612 
//  613 #if defined INTER_PAN
//  614   if (StubAPS_InterPan(pMsg->srcAddr.panId, pMsg->srcAddr.endPoint))
//  615   {
//  616     cmd = MT_AF_INCOMING_MSG_EXT;
//  617   }
//  618   else
//  619 #endif
//  620   if ((pMsg->srcAddr.addrMode == afAddr64Bit) ||
//  621       (respLen > (uint16)(MT_RPC_DATA_MAX - MT_AF_INC_MSG_EXT)))
        MOV       A,R2
        ADD       A,#0xe
        LCALL     ?Subroutine47 & 0xFFFF
??CrossCallReturnLabel_76:
        XRL       A,#0x3
        JZ        ??MT_AfIncomingMsg_0
        CLR       C
        MOV       A,R6
        SUBB      A,#-0xf
        MOV       A,R7
        SUBB      A,#0x0
        JC        ??MT_AfIncomingMsg_1
//  622   {
//  623     cmd = MT_AF_INCOMING_MSG_EXT;
??MT_AfIncomingMsg_0:
        MOV       A,#0x2
        LCALL     ?XSTACK_DISP0_8
        MOV       A,#-0x7e
        MOVX      @DPTR,A
//  624   }
//  625 
//  626   if (cmd == MT_AF_INCOMING_MSG_EXT)
//  627   {
//  628     respLen += MT_AF_INC_MSG_EXT;
        MOV       A,R6
        ADD       A,#0xa
        MOV       R6,A
        CLR       A
        ADDC      A,R7
        MOV       R7,A
//  629   }
//  630 
//  631   if (respLen > (uint16)MT_RPC_DATA_MAX)
??MT_AfIncomingMsg_1:
        CLR       C
        MOV       A,R6
        SUBB      A,#-0x5
        MOV       A,R7
        SUBB      A,#0x0
        JC        ??MT_AfIncomingMsg_2
//  632   {
//  633     if ((pItem = (mtAfInMsgList_t *)osal_mem_alloc(sizeof(mtAfInMsgList_t) + dataLen)) == NULL)
        ; Setup parameters for call to function osal_mem_alloc
        MOV       A,?V2
        ADD       A,#0x9
        MOV       R2,A
        CLR       A
        ADDC      A,?V3
        MOV       R3,A
        LCALL     `??osal_mem_alloc::?relay`; Banked call to: osal_mem_alloc
        MOV       ?V10,R2
        MOV       ?V11,R3
        MOV       A,R2
        ORL       A,R3
        JNZ       $+5
        LJMP      ??CrossCallReturnLabel_19 & 0xFFFF
//  634     {
//  635       return;  // If cannot hold a huge message, cannot give indication at all.
//  636     }
//  637 
//  638     pItem->data = (uint8 *)(pItem+1);
        MOV       A,R2
        ADD       A,#0x9
        MOV       R0,A
        CLR       A
        ADDC      A,?V11
        MOV       R1,A
        MOV       DPL,R2
        MOV       DPH,R3
        INC       DPTR
        INC       DPTR
        LCALL     ?Subroutine31 & 0xFFFF
//  639     respLen -= dataLen;  // Zero data bytes are sent with an over-sized incoming indication.
??CrossCallReturnLabel_106:
        CLR       C
        MOV       A,R6
        SUBB      A,?V2
        MOV       R6,A
        MOV       A,R7
        SUBB      A,?V3
        MOV       R7,A
//  640   }
//  641 
//  642   // Attempt to allocate memory for the response packet.
//  643   if ((pRsp = osal_mem_alloc(respLen)) == NULL)
??MT_AfIncomingMsg_2:
        ; Setup parameters for call to function osal_mem_alloc
        MOV       A,R6
        MOV       R2,A
        MOV       A,R7
        MOV       R3,A
        LCALL     `??osal_mem_alloc::?relay`; Banked call to: osal_mem_alloc
        MOV       DPL,?XSP + 0
        MOV       DPH,?XSP + 1
        MOV       A,R2
        MOVX      @DPTR,A
        INC       DPTR
        MOV       A,R3
        LCALL     ?Subroutine44 & 0xFFFF
??CrossCallReturnLabel_69:
        LCALL     ??Subroutine62_0 & 0xFFFF
??CrossCallReturnLabel_134:
        JNZ       ??MT_AfIncomingMsg_3
//  644   {
//  645     if (pItem != NULL)
        MOV       A,?V10
        ORL       A,?V11
        JZ        ??MT_AfIncomingMsg_4
//  646     {
//  647       (void)osal_mem_free(pItem);
        ; Setup parameters for call to function osal_mem_free
        MOV       R2,?V10
        MOV       R3,?V11
        LCALL     `??osal_mem_free::?relay`; Banked call to: osal_mem_free
//  648     }
//  649     return;
??MT_AfIncomingMsg_4:
        LJMP      ??CrossCallReturnLabel_19 & 0xFFFF
//  650   }
//  651   pTmp = pRsp;
//  652 
//  653   /* Group ID */
//  654   *pTmp++ = LO_UINT16(pMsg->groupId);
??MT_AfIncomingMsg_3:
        MOV       A,?V8
        ADD       A,#0x2
        LCALL     ?Subroutine36 & 0xFFFF
??CrossCallReturnLabel_54:
        PUSH      A
          CFI CFA_SP SP+-1
        MOV       DPL,?XSP + 0
        MOV       DPH,?XSP + 1
        LCALL     ??Subroutine54_0 & 0xFFFF
??CrossCallReturnLabel_91:
        POP       A
          CFI CFA_SP SP+0
        MOVX      @DPTR,A
//  655   *pTmp++ = HI_UINT16(pMsg->groupId);
        MOV       DPL,R2
        MOV       DPH,R1
        INC       DPTR
        MOVX      A,@DPTR
        PUSH      A
          CFI CFA_SP SP+-1
        MOV       DPL,?XSP + 0
        MOV       DPH,?XSP + 1
        LCALL     ??Subroutine54_0 & 0xFFFF
??CrossCallReturnLabel_92:
        INC       DPTR
        POP       A
          CFI CFA_SP SP+0
        MOVX      @DPTR,A
//  656 
//  657   /* Cluster ID */
//  658   *pTmp++ = LO_UINT16(pMsg->clusterId);
        MOV       A,?V8
        ADD       A,#0x4
        CLR       A
        ADDC      A,?V9
        MOV       R1,A
        INC       R2
        INC       R2
        MOV       DPL,R2
        MOV       DPH,A
        MOVX      A,@DPTR
        PUSH      A
          CFI CFA_SP SP+-1
        LCALL     ?Subroutine6 & 0xFFFF
??CrossCallReturnLabel_121:
        POP       A
          CFI CFA_SP SP+0
        MOVX      @DPTR,A
//  659   *pTmp++ = HI_UINT16(pMsg->clusterId);
        MOV       DPL,R2
        MOV       DPH,R1
        INC       DPTR
        MOVX      A,@DPTR
        PUSH      A
          CFI CFA_SP SP+-1
        LCALL     ?Subroutine6 & 0xFFFF
??CrossCallReturnLabel_122:
        INC       DPTR
        POP       A
          CFI CFA_SP SP+0
        MOVX      @DPTR,A
//  660 
//  661   if (cmd == MT_AF_INCOMING_MSG_EXT)
        MOV       A,#0x2
        LCALL     ?XSTACK_DISP0_8
        MOVX      A,@DPTR
        XRL       A,#0x82
        JNZ       ??MT_AfIncomingMsg_5
//  662   {
//  663     *pTmp++ = pMsg->srcAddr.addrMode;
        MOV       A,?V8
        ADD       A,#0xe
        LCALL     ?Subroutine36 & 0xFFFF
??CrossCallReturnLabel_55:
        PUSH      A
          CFI CFA_SP SP+-1
        LCALL     ?Subroutine5 & 0xFFFF
??CrossCallReturnLabel_5:
        POP       A
          CFI CFA_SP SP+0
        LCALL     ?Subroutine26 & 0xFFFF
??CrossCallReturnLabel_39:
        ADD       A,#0x5
        MOV       ?V0,A
        INC       DPTR
        MOVX      A,@DPTR
        ADDC      A,#0x0
        MOV       ?V1,A
//  664 
//  665     if (pMsg->srcAddr.addrMode == afAddr64Bit)
        MOV       DPL,R2
        MOV       DPH,R1
        MOVX      A,@DPTR
        XRL       A,#0x3
        JNZ       ??MT_AfIncomingMsg_6
//  666     {
//  667       (void)osal_memcpy(pTmp, pMsg->srcAddr.addr.extAddr, Z_EXTADDR_LEN);
        ; Setup parameters for call to function osal_memcpy
        MOV       A,?V8
        ADD       A,#0x6
        MOV       ?V4,A
        CLR       A
        ADDC      A,?V9
        MOV       ?V5,A
        MOV       ?V6,#0x0
        MOV       R0,#?V4
        LCALL     ?PUSH_XSTACK_I_THREE
          CFI CFA_XSP16 add(XSP16, 26)
        MOV       R4,#0x8
        MOV       R5,#0x0
        MOV       R2,?V0
        MOV       R3,?V1
        LCALL     ??Subroutine61_0 & 0xFFFF
//  668     }
??CrossCallReturnLabel_131:
        LCALL     ?DEALLOC_XSTACK8
          CFI CFA_XSP16 add(XSP16, 23)
        SJMP      ??CrossCallReturnLabel_10
//  669     else
//  670     {
//  671       pTmp[0] = LO_UINT16(pMsg->srcAddr.addr.shortAddr);
??MT_AfIncomingMsg_6:
        MOV       A,?V8
        ADD       A,#0x6
        MOV       R0,A
        CLR       A
        ADDC      A,?V9
        MOV       R1,A
        MOV       DPL,R0
        LCALL     ?Subroutine23 & 0xFFFF
//  672       pTmp[1] = HI_UINT16(pMsg->srcAddr.addr.shortAddr);
??CrossCallReturnLabel_32:
        MOV       DPL,R0
        MOV       DPH,R1
        INC       DPTR
        LCALL     ?Subroutine9 & 0xFFFF
//  673     }
//  674     pTmp += Z_EXTADDR_LEN;
//  675 
//  676     *pTmp++ = pMsg->srcAddr.endPoint;
??CrossCallReturnLabel_10:
        MOV       A,?V8
        ADD       A,#0xf
        LCALL     ?Subroutine2 & 0xFFFF
//  677 #if defined INTER_PAN
//  678     *pTmp++ = LO_UINT16(pMsg->srcAddr.panId);
//  679     *pTmp++ = HI_UINT16(pMsg->srcAddr.panId);
//  680 #else
//  681     *pTmp++ = 0;
//  682     *pTmp++ = 0;
//  683 #endif
//  684   }
??CrossCallReturnLabel_0:
        CLR       A
        LCALL     ?Subroutine24 & 0xFFFF
??CrossCallReturnLabel_34:
        MOVX      @DPTR,A
        MOV       A,?V0
        ADD       A,#0xb
        MOV       ?V0,A
        JNC       ??MT_AfIncomingMsg_7
        INC       ?V1
        SJMP      ??MT_AfIncomingMsg_7
//  685   else
//  686   {
//  687     /* Source Address */
//  688     *pTmp++ = LO_UINT16(pMsg->srcAddr.addr.shortAddr);
??MT_AfIncomingMsg_5:
        MOV       A,?V8
        ADD       A,#0x6
        MOV       R2,A
        CLR       A
        ADDC      A,?V9
        MOV       R3,A
        MOV       DPL,R2
        MOV       DPH,A
        MOVX      A,@DPTR
        PUSH      A
          CFI CFA_SP SP+-1
        LCALL     ?Subroutine5 & 0xFFFF
??CrossCallReturnLabel_6:
        POP       A
          CFI CFA_SP SP+0
        LCALL     ?Subroutine33 & 0xFFFF
//  689     *pTmp++ = HI_UINT16(pMsg->srcAddr.addr.shortAddr);
??CrossCallReturnLabel_51:
        MOVX      A,@DPTR
        PUSH      A
          CFI CFA_SP SP+-1
        LCALL     ?Subroutine5 & 0xFFFF
??CrossCallReturnLabel_7:
        INC       DPTR
        POP       A
          CFI CFA_SP SP+0
        MOVX      @DPTR,A
//  690 
//  691     /* Source EP */
//  692     *pTmp++ = pMsg->srcAddr.endPoint;
        MOV       A,?V8
        ADD       A,#0xf
        LCALL     ?Subroutine47 & 0xFFFF
//  693   }
??CrossCallReturnLabel_77:
        PUSH      A
          CFI CFA_SP SP+-1
        MOV       DPL,?XSP + 0
        MOV       DPH,?XSP + 1
        LCALL     ??Subroutine53_0 & 0xFFFF
??CrossCallReturnLabel_88:
        ADD       A,#0x6
        MOV       DPL,A
        CLR       A
        ADDC      A,R0
        MOV       DPH,A
        POP       A
          CFI CFA_SP SP+0
        LCALL     ?Subroutine26 & 0xFFFF
??CrossCallReturnLabel_40:
        ADD       A,#0x7
        MOV       ?V0,A
        INC       DPTR
        MOVX      A,@DPTR
        ADDC      A,#0x0
        MOV       ?V1,A
//  694 
//  695   /* Destination EP */
//  696   *pTmp++ = pMsg->endPoint;
??MT_AfIncomingMsg_7:
        MOV       A,?V8
        ADD       A,#0x14
        MOV       DPL,A
        CLR       A
        ADDC      A,?V9
        LCALL     ?Subroutine23 & 0xFFFF
//  697 
//  698   /* WasBroadCast */
//  699   *pTmp++ = pMsg->wasBroadcast;
??CrossCallReturnLabel_33:
        MOV       A,?V8
        ADD       A,#0x15
        MOV       DPL,A
        CLR       A
        ADDC      A,?V9
        MOV       DPH,A
        LCALL     ?Subroutine9 & 0xFFFF
//  700 
//  701   /* LinkQuality */
//  702   *pTmp++ = pMsg->LinkQuality;
??CrossCallReturnLabel_11:
        MOV       A,?V8
        ADD       A,#0x16
        LCALL     ?Subroutine20 & 0xFFFF
??CrossCallReturnLabel_25:
        MOVX      @DPTR,A
//  703 
//  704   /* SecurityUse */
//  705   *pTmp++ = pMsg->SecurityUse;
        MOV       A,?V8
        ADD       A,#0x19
        LCALL     ?Subroutine20 & 0xFFFF
??CrossCallReturnLabel_26:
        INC       DPTR
        MOVX      @DPTR,A
//  706 
//  707   /* Timestamp */
//  708   *pTmp++ = BREAK_UINT32(pMsg->timestamp, 0);
        MOV       A,?V8
        ADD       A,#0x1a
        MOV       R2,A
        CLR       A
        ADDC      A,?V9
        MOV       R3,A
        MOV       DPL,R2
        MOV       DPH,A
        MOV       R0,#?V4
        LCALL     ?L_MOV_X
        MOV       DPL,?V0
        MOV       DPH,?V1
        LCALL     ?Subroutine27 & 0xFFFF
//  709   *pTmp++ = BREAK_UINT32(pMsg->timestamp, 1);
??CrossCallReturnLabel_111:
        LCALL     ?L_MOV_X
        MOV       A,?V5
        MOV       DPL,?V0
        MOV       DPH,?V1
        INC       DPTR
        INC       DPTR
        INC       DPTR
        INC       DPTR
        INC       DPTR
        LCALL     ??Subroutine58_0 & 0xFFFF
//  710   *pTmp++ = BREAK_UINT32(pMsg->timestamp, 2);
??CrossCallReturnLabel_113:
        LCALL     ?L_MOV_X
        MOV       A,#0x10
        MOV       R0,#?V4
        LCALL     ?UL_SHR
        MOV       DPL,?V0
        MOV       DPH,?V1
        INC       DPTR
        INC       DPTR
        LCALL     ?Subroutine27 & 0xFFFF
//  711   *pTmp++ = BREAK_UINT32(pMsg->timestamp, 3);
??CrossCallReturnLabel_112:
        LCALL     ?L_MOV_X
        MOV       A,#0x18
        MOV       R0,#?V4
        LCALL     ?UL_SHR
        MOV       DPL,?V0
        MOV       DPH,?V1
        INC       DPTR
        INC       DPTR
        INC       DPTR
        INC       DPTR
        INC       DPTR
        INC       DPTR
        INC       DPTR
        MOV       A,?V4
        MOVX      @DPTR,A
//  712 
//  713 
//  714   /* Data Length */
//  715   if (cmd == MT_AF_INCOMING_MSG_EXT)
        MOV       A,#0x2
        LCALL     ?XSTACK_DISP0_8
        MOVX      A,@DPTR
        XRL       A,#0x82
        JNZ       ??MT_AfIncomingMsg_8
//  716   {
//  717     /* Z-Tool apparently takes the last Byte before the data buffer as the dynamic length and
//  718      * ignores the bigger UInt16 length of an EXT incoming message. But no data bytes will be sent
//  719      * with a huge message, so it's necessary to work-around and fake-out Z-Tool with a zero here.
//  720      */
//  721     *pTmp++ = 0;  // TODO - workaround Z-Tool shortcoming; should be: = pMsg->cmd.TransSeqNumber;
        MOV       DPL,?V0
        MOV       DPH,?V1
        INC       DPTR
        INC       DPTR
        INC       DPTR
        INC       DPTR
        INC       DPTR
        INC       DPTR
        INC       DPTR
        INC       DPTR
        CLR       A
        LCALL     ?Subroutine43 & 0xFFFF
//  722     *pTmp++ = LO_UINT16(dataLen);
//  723     *pTmp++ = HI_UINT16(dataLen);
//  724   }
??CrossCallReturnLabel_64:
        MOV       A,?V2
        LCALL     ?Subroutine24 & 0xFFFF
??CrossCallReturnLabel_35:
        MOV       A,?V3
        MOVX      @DPTR,A
        MOV       A,?V0
        ADD       A,#0xb
        SJMP      ??MT_AfIncomingMsg_9
//  725   else
//  726   {
//  727     *pTmp++ = pMsg->cmd.TransSeqNumber;
??MT_AfIncomingMsg_8:
        MOV       A,?V8
        ADD       A,#0x1f
        LCALL     ?Subroutine2 & 0xFFFF
//  728     *pTmp++ = dataLen;
//  729   }
??CrossCallReturnLabel_1:
        MOV       A,?V2
        MOVX      @DPTR,A
        MOV       A,?V0
        ADD       A,#0xa
??MT_AfIncomingMsg_9:
        MOV       ?V0,A
        JNC       ??MT_AfIncomingMsg_10
        INC       ?V1
//  730 
//  731   /* Data */
//  732   if (pItem != NULL)
??MT_AfIncomingMsg_10:
        MOV       A,?V10
        ORL       A,?V11
        JZ        ??MT_AfIncomingMsg_11
//  733   {
//  734     // Enqueue the new huge incoming item.
//  735     pItem->next = pMtAfInMsgList;
        LCALL     ?Subroutine11 & 0xFFFF
??CrossCallReturnLabel_117:
        MOV       DPL,?V10
        MOV       DPH,?V11
        LCALL     ?Subroutine31 & 0xFFFF
//  736     pMtAfInMsgList = pItem;
??CrossCallReturnLabel_107:
        MOV       DPTR,#pMtAfInMsgList
        MOV       A,?V10
        MOVX      @DPTR,A
        INC       DPTR
        MOV       A,?V11
        MOVX      @DPTR,A
//  737 
//  738     // Setup to time-out the huge incoming item if host does not MT_AF_DATA_RETRIEVE it.
//  739     pItem->tick = MT_AF_EXEC_CNT;
        MOV       DPL,?V10
        MOV       DPH,A
        INC       DPTR
        INC       DPTR
        INC       DPTR
        INC       DPTR
        INC       DPTR
        INC       DPTR
        INC       DPTR
        INC       DPTR
        LCALL     ?Subroutine17 & 0xFFFF
//  740     if (ZSuccess != osal_start_timerEx(MT_TaskID, MT_AF_EXEC_EVT, MT_AF_EXEC_DLY))
??CrossCallReturnLabel_82:
        JZ        ??CrossCallReturnLabel_29
//  741     {
//  742       (void)osal_set_event(MT_TaskID, MT_AF_EXEC_EVT);
        ; Setup parameters for call to function osal_set_event
        LCALL     ?Subroutine21 & 0xFFFF
//  743     }
//  744 
//  745     pItem->timestamp = pMsg->timestamp;
??CrossCallReturnLabel_29:
        MOV       A,?V8
        ADD       A,#0x1a
        MOV       DPL,A
        CLR       A
        ADDC      A,?V9
        MOV       DPH,A
        LCALL     ?XLOAD_R0123
        MOV       DPL,?V10
        MOV       DPH,?V11
        INC       DPTR
        INC       DPTR
        INC       DPTR
        INC       DPTR
        LCALL     ?XSTORE_R0123
//  746     (void)osal_memcpy(pItem->data, pMsg->cmd.Data, dataLen);
        ; Setup parameters for call to function osal_memcpy
        LCALL     ?Subroutine19 & 0xFFFF
//  747   }
??CrossCallReturnLabel_23:
        LCALL     ?PUSH_XSTACK_I_THREE
          CFI CFA_XSP16 add(XSP16, 26)
        MOV       R4,?V2
        MOV       R5,?V3
        MOV       DPL,?V10
        MOV       DPH,?V11
        INC       DPTR
        INC       DPTR
        MOVX      A,@DPTR
        MOV       R2,A
        INC       DPTR
        MOVX      A,@DPTR
        MOV       R3,A
        SJMP      ??MT_AfIncomingMsg_12
          CFI CFA_XSP16 add(XSP16, 23)
//  748   else
//  749   {
//  750     (void)osal_memcpy(pTmp, pMsg->cmd.Data, dataLen);
??MT_AfIncomingMsg_11:
        ; Setup parameters for call to function osal_memcpy
        LCALL     ?Subroutine19 & 0xFFFF
//  751   }
??CrossCallReturnLabel_24:
        LCALL     ?PUSH_XSTACK_I_THREE
          CFI CFA_XSP16 add(XSP16, 26)
        MOV       R4,?V2
        MOV       R5,?V3
        MOV       R2,?V0
        MOV       R3,?V1
??MT_AfIncomingMsg_12:
        LCALL     ??Subroutine61_0 & 0xFFFF
??CrossCallReturnLabel_132:
        LCALL     ?DEALLOC_XSTACK8
          CFI CFA_XSP16 add(XSP16, 23)
//  752 
//  753   /* Build and send back the response */
//  754   MT_BuildAndSendZToolResponse(((uint8)MT_RPC_CMD_AREQ|(uint8)MT_RPC_SYS_AF), cmd, respLen, pRsp);
        ; Setup parameters for call to function MT_BuildAndSendZToolResponse
        MOV       DPL,?XSP + 0
        MOV       DPH,?XSP + 1
        MOVX      A,@DPTR
        MOV       R4,A
        INC       DPTR
        MOVX      A,@DPTR
        MOV       R5,A
        MOV       A,R6
        MOV       R3,A
        MOV       A,#0x2
        LCALL     ?XSTACK_DISP0_8
        MOVX      A,@DPTR
        MOV       R2,A
        MOV       R1,#0x44
        LCALL     `??MT_BuildAndSendZToolResponse::?relay`; Banked call to: MT_BuildAndSendZToolResponse
//  755 
//  756   (void)osal_mem_free(pRsp);
        ; Setup parameters for call to function osal_mem_free
        MOV       DPL,?XSP + 0
        MOV       DPH,?XSP + 1
        LCALL     ?Subroutine15 & 0xFFFF
//  757 }
??CrossCallReturnLabel_19:
        LJMP      ?Subroutine1 & 0xFFFF
          CFI EndBlock cfiBlock127

        RSEG BANKED_CODE:HUGECODE:NOROOT(0)
?Subroutine36:
          CFI Block cfiCond128 Using cfiCommon0
          CFI Function MT_AfIncomingMsg
          CFI Conditional ??CrossCallReturnLabel_54
          CFI R6 load(1, XDATA, add(CFA_XSP16, literal(-20)))
          CFI VB load(1, XDATA, add(CFA_XSP16, literal(-19)))
          CFI V0 load(1, XDATA, add(CFA_XSP16, literal(-18)))
          CFI V1 load(1, XDATA, add(CFA_XSP16, literal(-17)))
          CFI V2 load(1, XDATA, add(CFA_XSP16, literal(-16)))
          CFI V3 load(1, XDATA, add(CFA_XSP16, literal(-15)))
          CFI V4 load(1, XDATA, add(CFA_XSP16, literal(-14)))
          CFI V5 load(1, XDATA, add(CFA_XSP16, literal(-13)))
          CFI V6 load(1, XDATA, add(CFA_XSP16, literal(-12)))
          CFI V7 load(1, XDATA, add(CFA_XSP16, literal(-11)))
          CFI V8 load(1, XDATA, add(CFA_XSP16, literal(-10)))
          CFI V9 load(1, XDATA, add(CFA_XSP16, literal(-9)))
          CFI V10 load(1, XDATA, add(CFA_XSP16, literal(-8)))
          CFI V11 load(1, XDATA, add(CFA_XSP16, literal(-7)))
          CFI R7 load(1, XDATA, add(CFA_XSP16, literal(-6)))
          CFI ?RET_LOW load(1, XDATA, add(CFA_XSP16, literal(-5)))
          CFI ?RET_HIGH load(1, XDATA, add(CFA_XSP16, literal(-4)))
          CFI ?BRET_EXT load(1, XDATA, add(CFA_XSP16, literal(-3)))
          CFI DPL0 load(1, XDATA, add(CFA_XSP16, literal(-2)))
          CFI DPH0 load(1, XDATA, add(CFA_XSP16, literal(-1)))
          CFI CFA_SP SP+-2
          CFI CFA_XSP16 add(XSP16, 23)
          CFI Block cfiCond129 Using cfiCommon0
          CFI (cfiCond129) Function MT_AfIncomingMsg
          CFI (cfiCond129) Conditional ??CrossCallReturnLabel_55
          CFI (cfiCond129) R6 load(1, XDATA, add(CFA_XSP16, literal(-20)))
          CFI (cfiCond129) VB load(1, XDATA, add(CFA_XSP16, literal(-19)))
          CFI (cfiCond129) V0 load(1, XDATA, add(CFA_XSP16, literal(-18)))
          CFI (cfiCond129) V1 load(1, XDATA, add(CFA_XSP16, literal(-17)))
          CFI (cfiCond129) V2 load(1, XDATA, add(CFA_XSP16, literal(-16)))
          CFI (cfiCond129) V3 load(1, XDATA, add(CFA_XSP16, literal(-15)))
          CFI (cfiCond129) V4 load(1, XDATA, add(CFA_XSP16, literal(-14)))
          CFI (cfiCond129) V5 load(1, XDATA, add(CFA_XSP16, literal(-13)))
          CFI (cfiCond129) V6 load(1, XDATA, add(CFA_XSP16, literal(-12)))
          CFI (cfiCond129) V7 load(1, XDATA, add(CFA_XSP16, literal(-11)))
          CFI (cfiCond129) V8 load(1, XDATA, add(CFA_XSP16, literal(-10)))
          CFI (cfiCond129) V9 load(1, XDATA, add(CFA_XSP16, literal(-9)))
          CFI (cfiCond129) V10 load(1, XDATA, add(CFA_XSP16, literal(-8)))
          CFI (cfiCond129) V11 load(1, XDATA, add(CFA_XSP16, literal(-7)))
          CFI (cfiCond129) R7 load(1, XDATA, add(CFA_XSP16, literal(-6)))
          CFI (cfiCond129) ?RET_LOW load(1, XDATA, add(CFA_XSP16, literal(-5)))
          CFI (cfiCond129) ?RET_HIGH load(1, XDATA, add(CFA_XSP16, literal(-4)))
          CFI (cfiCond129) ?BRET_EXT load(1, XDATA, add(CFA_XSP16, literal(-3)))
          CFI (cfiCond129) DPL0 load(1, XDATA, add(CFA_XSP16, literal(-2)))
          CFI (cfiCond129) DPH0 load(1, XDATA, add(CFA_XSP16, literal(-1)))
          CFI (cfiCond129) CFA_SP SP+-2
          CFI (cfiCond129) CFA_XSP16 add(XSP16, 23)
          CFI Block cfiPicker130 Using cfiCommon1
          CFI (cfiPicker130) NoFunction
          CFI (cfiPicker130) Picker
        MOV       R0,A
        CLR       A
        ADDC      A,?V9
        MOV       R1,A
        MOV       A,R0
        MOV       R2,A
        MOV       A,R1
        MOV       DPL,R0
        MOV       DPH,A
        MOVX      A,@DPTR
        RET
          CFI EndBlock cfiCond128
          CFI EndBlock cfiCond129
          CFI EndBlock cfiPicker130

        RSEG BANKED_CODE:HUGECODE:NOROOT(0)
?Subroutine31:
          CFI Block cfiCond131 Using cfiCommon0
          CFI Function MT_AfDataRequestSrcRtg
          CFI Conditional ??CrossCallReturnLabel_105
          CFI R6 load(1, XDATA, add(CFA_XSP16, literal(-20)))
          CFI VB load(1, XDATA, add(CFA_XSP16, literal(-19)))
          CFI V0 load(1, XDATA, add(CFA_XSP16, literal(-18)))
          CFI V1 load(1, XDATA, add(CFA_XSP16, literal(-17)))
          CFI V2 load(1, XDATA, add(CFA_XSP16, literal(-16)))
          CFI V3 load(1, XDATA, add(CFA_XSP16, literal(-15)))
          CFI V4 load(1, XDATA, add(CFA_XSP16, literal(-14)))
          CFI V5 load(1, XDATA, add(CFA_XSP16, literal(-13)))
          CFI V6 load(1, XDATA, add(CFA_XSP16, literal(-12)))
          CFI V7 load(1, XDATA, add(CFA_XSP16, literal(-11)))
          CFI V8 load(1, XDATA, add(CFA_XSP16, literal(-10)))
          CFI V9 load(1, XDATA, add(CFA_XSP16, literal(-9)))
          CFI V10 load(1, XDATA, add(CFA_XSP16, literal(-8)))
          CFI V11 load(1, XDATA, add(CFA_XSP16, literal(-7)))
          CFI R7 load(1, XDATA, add(CFA_XSP16, literal(-6)))
          CFI ?RET_LOW load(1, XDATA, add(CFA_XSP16, literal(-5)))
          CFI ?RET_HIGH load(1, XDATA, add(CFA_XSP16, literal(-4)))
          CFI ?BRET_EXT load(1, XDATA, add(CFA_XSP16, literal(-3)))
          CFI DPL0 load(1, XDATA, add(CFA_XSP16, literal(-2)))
          CFI DPH0 load(1, XDATA, add(CFA_XSP16, literal(-1)))
          CFI CFA_SP SP+-2
          CFI CFA_XSP16 add(XSP16, 34)
          CFI Block cfiCond132 Using cfiCommon0
          CFI (cfiCond132) Function MT_AfIncomingMsg
          CFI (cfiCond132) Conditional ??CrossCallReturnLabel_106
          CFI (cfiCond132) R6 load(1, XDATA, add(CFA_XSP16, literal(-20)))
          CFI (cfiCond132) VB load(1, XDATA, add(CFA_XSP16, literal(-19)))
          CFI (cfiCond132) V0 load(1, XDATA, add(CFA_XSP16, literal(-18)))
          CFI (cfiCond132) V1 load(1, XDATA, add(CFA_XSP16, literal(-17)))
          CFI (cfiCond132) V2 load(1, XDATA, add(CFA_XSP16, literal(-16)))
          CFI (cfiCond132) V3 load(1, XDATA, add(CFA_XSP16, literal(-15)))
          CFI (cfiCond132) V4 load(1, XDATA, add(CFA_XSP16, literal(-14)))
          CFI (cfiCond132) V5 load(1, XDATA, add(CFA_XSP16, literal(-13)))
          CFI (cfiCond132) V6 load(1, XDATA, add(CFA_XSP16, literal(-12)))
          CFI (cfiCond132) V7 load(1, XDATA, add(CFA_XSP16, literal(-11)))
          CFI (cfiCond132) V8 load(1, XDATA, add(CFA_XSP16, literal(-10)))
          CFI (cfiCond132) V9 load(1, XDATA, add(CFA_XSP16, literal(-9)))
          CFI (cfiCond132) V10 load(1, XDATA, add(CFA_XSP16, literal(-8)))
          CFI (cfiCond132) V11 load(1, XDATA, add(CFA_XSP16, literal(-7)))
          CFI (cfiCond132) R7 load(1, XDATA, add(CFA_XSP16, literal(-6)))
          CFI (cfiCond132) ?RET_LOW load(1, XDATA, add(CFA_XSP16, literal(-5)))
          CFI (cfiCond132) ?RET_HIGH load(1, XDATA, add(CFA_XSP16, literal(-4)))
          CFI (cfiCond132) ?BRET_EXT load(1, XDATA, add(CFA_XSP16, literal(-3)))
          CFI (cfiCond132) DPL0 load(1, XDATA, add(CFA_XSP16, literal(-2)))
          CFI (cfiCond132) DPH0 load(1, XDATA, add(CFA_XSP16, literal(-1)))
          CFI (cfiCond132) CFA_SP SP+-2
          CFI (cfiCond132) CFA_XSP16 add(XSP16, 23)
          CFI Block cfiCond133 Using cfiCommon0
          CFI (cfiCond133) Function MT_AfIncomingMsg
          CFI (cfiCond133) Conditional ??CrossCallReturnLabel_107
          CFI (cfiCond133) R6 load(1, XDATA, add(CFA_XSP16, literal(-20)))
          CFI (cfiCond133) VB load(1, XDATA, add(CFA_XSP16, literal(-19)))
          CFI (cfiCond133) V0 load(1, XDATA, add(CFA_XSP16, literal(-18)))
          CFI (cfiCond133) V1 load(1, XDATA, add(CFA_XSP16, literal(-17)))
          CFI (cfiCond133) V2 load(1, XDATA, add(CFA_XSP16, literal(-16)))
          CFI (cfiCond133) V3 load(1, XDATA, add(CFA_XSP16, literal(-15)))
          CFI (cfiCond133) V4 load(1, XDATA, add(CFA_XSP16, literal(-14)))
          CFI (cfiCond133) V5 load(1, XDATA, add(CFA_XSP16, literal(-13)))
          CFI (cfiCond133) V6 load(1, XDATA, add(CFA_XSP16, literal(-12)))
          CFI (cfiCond133) V7 load(1, XDATA, add(CFA_XSP16, literal(-11)))
          CFI (cfiCond133) V8 load(1, XDATA, add(CFA_XSP16, literal(-10)))
          CFI (cfiCond133) V9 load(1, XDATA, add(CFA_XSP16, literal(-9)))
          CFI (cfiCond133) V10 load(1, XDATA, add(CFA_XSP16, literal(-8)))
          CFI (cfiCond133) V11 load(1, XDATA, add(CFA_XSP16, literal(-7)))
          CFI (cfiCond133) R7 load(1, XDATA, add(CFA_XSP16, literal(-6)))
          CFI (cfiCond133) ?RET_LOW load(1, XDATA, add(CFA_XSP16, literal(-5)))
          CFI (cfiCond133) ?RET_HIGH load(1, XDATA, add(CFA_XSP16, literal(-4)))
          CFI (cfiCond133) ?BRET_EXT load(1, XDATA, add(CFA_XSP16, literal(-3)))
          CFI (cfiCond133) DPL0 load(1, XDATA, add(CFA_XSP16, literal(-2)))
          CFI (cfiCond133) DPH0 load(1, XDATA, add(CFA_XSP16, literal(-1)))
          CFI (cfiCond133) CFA_SP SP+-2
          CFI (cfiCond133) CFA_XSP16 add(XSP16, 23)
          CFI Block cfiCond134 Using cfiCommon0
          CFI (cfiCond134) Function MT_AfDataRetrieve
          CFI (cfiCond134) Conditional ??CrossCallReturnLabel_108
          CFI (cfiCond134) R6 load(1, XDATA, add(CFA_XSP16, literal(-20)))
          CFI (cfiCond134) VB load(1, XDATA, add(CFA_XSP16, literal(-19)))
          CFI (cfiCond134) V0 load(1, XDATA, add(CFA_XSP16, literal(-18)))
          CFI (cfiCond134) V1 load(1, XDATA, add(CFA_XSP16, literal(-17)))
          CFI (cfiCond134) V2 load(1, XDATA, add(CFA_XSP16, literal(-16)))
          CFI (cfiCond134) V3 load(1, XDATA, add(CFA_XSP16, literal(-15)))
          CFI (cfiCond134) V4 load(1, XDATA, add(CFA_XSP16, literal(-14)))
          CFI (cfiCond134) V5 load(1, XDATA, add(CFA_XSP16, literal(-13)))
          CFI (cfiCond134) V6 load(1, XDATA, add(CFA_XSP16, literal(-12)))
          CFI (cfiCond134) V7 load(1, XDATA, add(CFA_XSP16, literal(-11)))
          CFI (cfiCond134) V8 load(1, XDATA, add(CFA_XSP16, literal(-10)))
          CFI (cfiCond134) V9 load(1, XDATA, add(CFA_XSP16, literal(-9)))
          CFI (cfiCond134) V10 load(1, XDATA, add(CFA_XSP16, literal(-8)))
          CFI (cfiCond134) V11 load(1, XDATA, add(CFA_XSP16, literal(-7)))
          CFI (cfiCond134) R7 load(1, XDATA, add(CFA_XSP16, literal(-6)))
          CFI (cfiCond134) ?RET_LOW load(1, XDATA, add(CFA_XSP16, literal(-5)))
          CFI (cfiCond134) ?RET_HIGH load(1, XDATA, add(CFA_XSP16, literal(-4)))
          CFI (cfiCond134) ?BRET_EXT load(1, XDATA, add(CFA_XSP16, literal(-3)))
          CFI (cfiCond134) DPL0 load(1, XDATA, add(CFA_XSP16, literal(-2)))
          CFI (cfiCond134) DPH0 load(1, XDATA, add(CFA_XSP16, literal(-1)))
          CFI (cfiCond134) CFA_SP SP+-2
          CFI (cfiCond134) CFA_XSP16 add(XSP16, 23)
          CFI Block cfiCond135 Using cfiCommon0
          CFI (cfiCond135) Function MT_AfDataRetrieve
          CFI (cfiCond135) Conditional ??CrossCallReturnLabel_109
          CFI (cfiCond135) R6 load(1, XDATA, add(CFA_XSP16, literal(-20)))
          CFI (cfiCond135) VB load(1, XDATA, add(CFA_XSP16, literal(-19)))
          CFI (cfiCond135) V0 load(1, XDATA, add(CFA_XSP16, literal(-18)))
          CFI (cfiCond135) V1 load(1, XDATA, add(CFA_XSP16, literal(-17)))
          CFI (cfiCond135) V2 load(1, XDATA, add(CFA_XSP16, literal(-16)))
          CFI (cfiCond135) V3 load(1, XDATA, add(CFA_XSP16, literal(-15)))
          CFI (cfiCond135) V4 load(1, XDATA, add(CFA_XSP16, literal(-14)))
          CFI (cfiCond135) V5 load(1, XDATA, add(CFA_XSP16, literal(-13)))
          CFI (cfiCond135) V6 load(1, XDATA, add(CFA_XSP16, literal(-12)))
          CFI (cfiCond135) V7 load(1, XDATA, add(CFA_XSP16, literal(-11)))
          CFI (cfiCond135) V8 load(1, XDATA, add(CFA_XSP16, literal(-10)))
          CFI (cfiCond135) V9 load(1, XDATA, add(CFA_XSP16, literal(-9)))
          CFI (cfiCond135) V10 load(1, XDATA, add(CFA_XSP16, literal(-8)))
          CFI (cfiCond135) V11 load(1, XDATA, add(CFA_XSP16, literal(-7)))
          CFI (cfiCond135) R7 load(1, XDATA, add(CFA_XSP16, literal(-6)))
          CFI (cfiCond135) ?RET_LOW load(1, XDATA, add(CFA_XSP16, literal(-5)))
          CFI (cfiCond135) ?RET_HIGH load(1, XDATA, add(CFA_XSP16, literal(-4)))
          CFI (cfiCond135) ?BRET_EXT load(1, XDATA, add(CFA_XSP16, literal(-3)))
          CFI (cfiCond135) DPL0 load(1, XDATA, add(CFA_XSP16, literal(-2)))
          CFI (cfiCond135) DPH0 load(1, XDATA, add(CFA_XSP16, literal(-1)))
          CFI (cfiCond135) CFA_SP SP+-2
          CFI (cfiCond135) CFA_XSP16 add(XSP16, 23)
          CFI Block cfiCond136 Using cfiCommon0
          CFI (cfiCond136) Function MT_AfDataRetrieve
          CFI (cfiCond136) Conditional ??CrossCallReturnLabel_110
          CFI (cfiCond136) R6 load(1, XDATA, add(CFA_XSP16, literal(-20)))
          CFI (cfiCond136) VB load(1, XDATA, add(CFA_XSP16, literal(-19)))
          CFI (cfiCond136) V0 load(1, XDATA, add(CFA_XSP16, literal(-18)))
          CFI (cfiCond136) V1 load(1, XDATA, add(CFA_XSP16, literal(-17)))
          CFI (cfiCond136) V2 load(1, XDATA, add(CFA_XSP16, literal(-16)))
          CFI (cfiCond136) V3 load(1, XDATA, add(CFA_XSP16, literal(-15)))
          CFI (cfiCond136) V4 load(1, XDATA, add(CFA_XSP16, literal(-14)))
          CFI (cfiCond136) V5 load(1, XDATA, add(CFA_XSP16, literal(-13)))
          CFI (cfiCond136) V6 load(1, XDATA, add(CFA_XSP16, literal(-12)))
          CFI (cfiCond136) V7 load(1, XDATA, add(CFA_XSP16, literal(-11)))
          CFI (cfiCond136) V8 load(1, XDATA, add(CFA_XSP16, literal(-10)))
          CFI (cfiCond136) V9 load(1, XDATA, add(CFA_XSP16, literal(-9)))
          CFI (cfiCond136) V10 load(1, XDATA, add(CFA_XSP16, literal(-8)))
          CFI (cfiCond136) V11 load(1, XDATA, add(CFA_XSP16, literal(-7)))
          CFI (cfiCond136) R7 load(1, XDATA, add(CFA_XSP16, literal(-6)))
          CFI (cfiCond136) ?RET_LOW load(1, XDATA, add(CFA_XSP16, literal(-5)))
          CFI (cfiCond136) ?RET_HIGH load(1, XDATA, add(CFA_XSP16, literal(-4)))
          CFI (cfiCond136) ?BRET_EXT load(1, XDATA, add(CFA_XSP16, literal(-3)))
          CFI (cfiCond136) DPL0 load(1, XDATA, add(CFA_XSP16, literal(-2)))
          CFI (cfiCond136) DPH0 load(1, XDATA, add(CFA_XSP16, literal(-1)))
          CFI (cfiCond136) CFA_SP SP+-2
          CFI (cfiCond136) CFA_XSP16 add(XSP16, 23)
          CFI Block cfiPicker137 Using cfiCommon1
          CFI (cfiPicker137) NoFunction
          CFI (cfiPicker137) Picker
        MOV       A,R0
          CFI EndBlock cfiCond131
          CFI EndBlock cfiCond132
          CFI EndBlock cfiCond133
          CFI EndBlock cfiCond134
          CFI EndBlock cfiCond135
          CFI EndBlock cfiCond136
          CFI EndBlock cfiPicker137
        REQUIRE ??Subroutine57_0
        ; // Fall through to label ??Subroutine57_0

        RSEG BANKED_CODE:HUGECODE:NOROOT(0)
??Subroutine57_0:
          CFI Block cfiCond138 Using cfiCommon0
          CFI Function MT_AfDataRequest
          CFI Conditional ??CrossCallReturnLabel_102
          CFI R6 load(1, XDATA, add(CFA_XSP16, literal(-20)))
          CFI VB load(1, XDATA, add(CFA_XSP16, literal(-19)))
          CFI V0 load(1, XDATA, add(CFA_XSP16, literal(-18)))
          CFI V1 load(1, XDATA, add(CFA_XSP16, literal(-17)))
          CFI V2 load(1, XDATA, add(CFA_XSP16, literal(-16)))
          CFI V3 load(1, XDATA, add(CFA_XSP16, literal(-15)))
          CFI V4 load(1, XDATA, add(CFA_XSP16, literal(-14)))
          CFI V5 load(1, XDATA, add(CFA_XSP16, literal(-13)))
          CFI V6 load(1, XDATA, add(CFA_XSP16, literal(-12)))
          CFI V7 load(1, XDATA, add(CFA_XSP16, literal(-11)))
          CFI V8 load(1, XDATA, add(CFA_XSP16, literal(-10)))
          CFI V9 load(1, XDATA, add(CFA_XSP16, literal(-9)))
          CFI V10 load(1, XDATA, add(CFA_XSP16, literal(-8)))
          CFI V11 load(1, XDATA, add(CFA_XSP16, literal(-7)))
          CFI R7 load(1, XDATA, add(CFA_XSP16, literal(-6)))
          CFI ?RET_LOW load(1, XDATA, add(CFA_XSP16, literal(-5)))
          CFI ?RET_HIGH load(1, XDATA, add(CFA_XSP16, literal(-4)))
          CFI ?BRET_EXT load(1, XDATA, add(CFA_XSP16, literal(-3)))
          CFI DPL0 load(1, XDATA, add(CFA_XSP16, literal(-2)))
          CFI DPH0 load(1, XDATA, add(CFA_XSP16, literal(-1)))
          CFI CFA_SP SP+-2
          CFI CFA_XSP16 add(XSP16, 35)
          CFI Block cfiCond139 Using cfiCommon0
          CFI (cfiCond139) Function MT_AfDataRequest
          CFI (cfiCond139) Conditional ??CrossCallReturnLabel_103
          CFI (cfiCond139) R6 load(1, XDATA, add(CFA_XSP16, literal(-20)))
          CFI (cfiCond139) VB load(1, XDATA, add(CFA_XSP16, literal(-19)))
          CFI (cfiCond139) V0 load(1, XDATA, add(CFA_XSP16, literal(-18)))
          CFI (cfiCond139) V1 load(1, XDATA, add(CFA_XSP16, literal(-17)))
          CFI (cfiCond139) V2 load(1, XDATA, add(CFA_XSP16, literal(-16)))
          CFI (cfiCond139) V3 load(1, XDATA, add(CFA_XSP16, literal(-15)))
          CFI (cfiCond139) V4 load(1, XDATA, add(CFA_XSP16, literal(-14)))
          CFI (cfiCond139) V5 load(1, XDATA, add(CFA_XSP16, literal(-13)))
          CFI (cfiCond139) V6 load(1, XDATA, add(CFA_XSP16, literal(-12)))
          CFI (cfiCond139) V7 load(1, XDATA, add(CFA_XSP16, literal(-11)))
          CFI (cfiCond139) V8 load(1, XDATA, add(CFA_XSP16, literal(-10)))
          CFI (cfiCond139) V9 load(1, XDATA, add(CFA_XSP16, literal(-9)))
          CFI (cfiCond139) V10 load(1, XDATA, add(CFA_XSP16, literal(-8)))
          CFI (cfiCond139) V11 load(1, XDATA, add(CFA_XSP16, literal(-7)))
          CFI (cfiCond139) R7 load(1, XDATA, add(CFA_XSP16, literal(-6)))
          CFI (cfiCond139) ?RET_LOW load(1, XDATA, add(CFA_XSP16, literal(-5)))
          CFI (cfiCond139) ?RET_HIGH load(1, XDATA, add(CFA_XSP16, literal(-4)))
          CFI (cfiCond139) ?BRET_EXT load(1, XDATA, add(CFA_XSP16, literal(-3)))
          CFI (cfiCond139) DPL0 load(1, XDATA, add(CFA_XSP16, literal(-2)))
          CFI (cfiCond139) DPH0 load(1, XDATA, add(CFA_XSP16, literal(-1)))
          CFI (cfiCond139) CFA_SP SP+-2
          CFI (cfiCond139) CFA_XSP16 add(XSP16, 35)
          CFI Block cfiCond140 Using cfiCommon0
          CFI (cfiCond140) Function MT_AfDataRequestSrcRtg
          CFI (cfiCond140) Conditional ??CrossCallReturnLabel_104
          CFI (cfiCond140) R6 load(1, XDATA, add(CFA_XSP16, literal(-20)))
          CFI (cfiCond140) VB load(1, XDATA, add(CFA_XSP16, literal(-19)))
          CFI (cfiCond140) V0 load(1, XDATA, add(CFA_XSP16, literal(-18)))
          CFI (cfiCond140) V1 load(1, XDATA, add(CFA_XSP16, literal(-17)))
          CFI (cfiCond140) V2 load(1, XDATA, add(CFA_XSP16, literal(-16)))
          CFI (cfiCond140) V3 load(1, XDATA, add(CFA_XSP16, literal(-15)))
          CFI (cfiCond140) V4 load(1, XDATA, add(CFA_XSP16, literal(-14)))
          CFI (cfiCond140) V5 load(1, XDATA, add(CFA_XSP16, literal(-13)))
          CFI (cfiCond140) V6 load(1, XDATA, add(CFA_XSP16, literal(-12)))
          CFI (cfiCond140) V7 load(1, XDATA, add(CFA_XSP16, literal(-11)))
          CFI (cfiCond140) V8 load(1, XDATA, add(CFA_XSP16, literal(-10)))
          CFI (cfiCond140) V9 load(1, XDATA, add(CFA_XSP16, literal(-9)))
          CFI (cfiCond140) V10 load(1, XDATA, add(CFA_XSP16, literal(-8)))
          CFI (cfiCond140) V11 load(1, XDATA, add(CFA_XSP16, literal(-7)))
          CFI (cfiCond140) R7 load(1, XDATA, add(CFA_XSP16, literal(-6)))
          CFI (cfiCond140) ?RET_LOW load(1, XDATA, add(CFA_XSP16, literal(-5)))
          CFI (cfiCond140) ?RET_HIGH load(1, XDATA, add(CFA_XSP16, literal(-4)))
          CFI (cfiCond140) ?BRET_EXT load(1, XDATA, add(CFA_XSP16, literal(-3)))
          CFI (cfiCond140) DPL0 load(1, XDATA, add(CFA_XSP16, literal(-2)))
          CFI (cfiCond140) DPH0 load(1, XDATA, add(CFA_XSP16, literal(-1)))
          CFI (cfiCond140) CFA_SP SP+-2
          CFI (cfiCond140) CFA_XSP16 add(XSP16, 34)
          CFI Block cfiCond141 Using cfiCommon0
          CFI (cfiCond141) Function MT_AfDataRequestSrcRtg
          CFI (cfiCond141) Conditional ??CrossCallReturnLabel_105
          CFI (cfiCond141) R6 load(1, XDATA, add(CFA_XSP16, literal(-20)))
          CFI (cfiCond141) VB load(1, XDATA, add(CFA_XSP16, literal(-19)))
          CFI (cfiCond141) V0 load(1, XDATA, add(CFA_XSP16, literal(-18)))
          CFI (cfiCond141) V1 load(1, XDATA, add(CFA_XSP16, literal(-17)))
          CFI (cfiCond141) V2 load(1, XDATA, add(CFA_XSP16, literal(-16)))
          CFI (cfiCond141) V3 load(1, XDATA, add(CFA_XSP16, literal(-15)))
          CFI (cfiCond141) V4 load(1, XDATA, add(CFA_XSP16, literal(-14)))
          CFI (cfiCond141) V5 load(1, XDATA, add(CFA_XSP16, literal(-13)))
          CFI (cfiCond141) V6 load(1, XDATA, add(CFA_XSP16, literal(-12)))
          CFI (cfiCond141) V7 load(1, XDATA, add(CFA_XSP16, literal(-11)))
          CFI (cfiCond141) V8 load(1, XDATA, add(CFA_XSP16, literal(-10)))
          CFI (cfiCond141) V9 load(1, XDATA, add(CFA_XSP16, literal(-9)))
          CFI (cfiCond141) V10 load(1, XDATA, add(CFA_XSP16, literal(-8)))
          CFI (cfiCond141) V11 load(1, XDATA, add(CFA_XSP16, literal(-7)))
          CFI (cfiCond141) R7 load(1, XDATA, add(CFA_XSP16, literal(-6)))
          CFI (cfiCond141) ?RET_LOW load(1, XDATA, add(CFA_XSP16, literal(-5)))
          CFI (cfiCond141) ?RET_HIGH load(1, XDATA, add(CFA_XSP16, literal(-4)))
          CFI (cfiCond141) ?BRET_EXT load(1, XDATA, add(CFA_XSP16, literal(-3)))
          CFI (cfiCond141) DPL0 load(1, XDATA, add(CFA_XSP16, literal(-2)))
          CFI (cfiCond141) DPH0 load(1, XDATA, add(CFA_XSP16, literal(-1)))
          CFI (cfiCond141) CFA_SP SP+-2
          CFI (cfiCond141) CFA_XSP16 add(XSP16, 34)
          CFI Block cfiCond142 Using cfiCommon0
          CFI (cfiCond142) Function MT_AfIncomingMsg
          CFI (cfiCond142) Conditional ??CrossCallReturnLabel_106
          CFI (cfiCond142) R6 load(1, XDATA, add(CFA_XSP16, literal(-20)))
          CFI (cfiCond142) VB load(1, XDATA, add(CFA_XSP16, literal(-19)))
          CFI (cfiCond142) V0 load(1, XDATA, add(CFA_XSP16, literal(-18)))
          CFI (cfiCond142) V1 load(1, XDATA, add(CFA_XSP16, literal(-17)))
          CFI (cfiCond142) V2 load(1, XDATA, add(CFA_XSP16, literal(-16)))
          CFI (cfiCond142) V3 load(1, XDATA, add(CFA_XSP16, literal(-15)))
          CFI (cfiCond142) V4 load(1, XDATA, add(CFA_XSP16, literal(-14)))
          CFI (cfiCond142) V5 load(1, XDATA, add(CFA_XSP16, literal(-13)))
          CFI (cfiCond142) V6 load(1, XDATA, add(CFA_XSP16, literal(-12)))
          CFI (cfiCond142) V7 load(1, XDATA, add(CFA_XSP16, literal(-11)))
          CFI (cfiCond142) V8 load(1, XDATA, add(CFA_XSP16, literal(-10)))
          CFI (cfiCond142) V9 load(1, XDATA, add(CFA_XSP16, literal(-9)))
          CFI (cfiCond142) V10 load(1, XDATA, add(CFA_XSP16, literal(-8)))
          CFI (cfiCond142) V11 load(1, XDATA, add(CFA_XSP16, literal(-7)))
          CFI (cfiCond142) R7 load(1, XDATA, add(CFA_XSP16, literal(-6)))
          CFI (cfiCond142) ?RET_LOW load(1, XDATA, add(CFA_XSP16, literal(-5)))
          CFI (cfiCond142) ?RET_HIGH load(1, XDATA, add(CFA_XSP16, literal(-4)))
          CFI (cfiCond142) ?BRET_EXT load(1, XDATA, add(CFA_XSP16, literal(-3)))
          CFI (cfiCond142) DPL0 load(1, XDATA, add(CFA_XSP16, literal(-2)))
          CFI (cfiCond142) DPH0 load(1, XDATA, add(CFA_XSP16, literal(-1)))
          CFI (cfiCond142) CFA_SP SP+-2
          CFI (cfiCond142) CFA_XSP16 add(XSP16, 23)
          CFI Block cfiCond143 Using cfiCommon0
          CFI (cfiCond143) Function MT_AfIncomingMsg
          CFI (cfiCond143) Conditional ??CrossCallReturnLabel_107
          CFI (cfiCond143) R6 load(1, XDATA, add(CFA_XSP16, literal(-20)))
          CFI (cfiCond143) VB load(1, XDATA, add(CFA_XSP16, literal(-19)))
          CFI (cfiCond143) V0 load(1, XDATA, add(CFA_XSP16, literal(-18)))
          CFI (cfiCond143) V1 load(1, XDATA, add(CFA_XSP16, literal(-17)))
          CFI (cfiCond143) V2 load(1, XDATA, add(CFA_XSP16, literal(-16)))
          CFI (cfiCond143) V3 load(1, XDATA, add(CFA_XSP16, literal(-15)))
          CFI (cfiCond143) V4 load(1, XDATA, add(CFA_XSP16, literal(-14)))
          CFI (cfiCond143) V5 load(1, XDATA, add(CFA_XSP16, literal(-13)))
          CFI (cfiCond143) V6 load(1, XDATA, add(CFA_XSP16, literal(-12)))
          CFI (cfiCond143) V7 load(1, XDATA, add(CFA_XSP16, literal(-11)))
          CFI (cfiCond143) V8 load(1, XDATA, add(CFA_XSP16, literal(-10)))
          CFI (cfiCond143) V9 load(1, XDATA, add(CFA_XSP16, literal(-9)))
          CFI (cfiCond143) V10 load(1, XDATA, add(CFA_XSP16, literal(-8)))
          CFI (cfiCond143) V11 load(1, XDATA, add(CFA_XSP16, literal(-7)))
          CFI (cfiCond143) R7 load(1, XDATA, add(CFA_XSP16, literal(-6)))
          CFI (cfiCond143) ?RET_LOW load(1, XDATA, add(CFA_XSP16, literal(-5)))
          CFI (cfiCond143) ?RET_HIGH load(1, XDATA, add(CFA_XSP16, literal(-4)))
          CFI (cfiCond143) ?BRET_EXT load(1, XDATA, add(CFA_XSP16, literal(-3)))
          CFI (cfiCond143) DPL0 load(1, XDATA, add(CFA_XSP16, literal(-2)))
          CFI (cfiCond143) DPH0 load(1, XDATA, add(CFA_XSP16, literal(-1)))
          CFI (cfiCond143) CFA_SP SP+-2
          CFI (cfiCond143) CFA_XSP16 add(XSP16, 23)
          CFI Block cfiCond144 Using cfiCommon0
          CFI (cfiCond144) Function MT_AfDataRetrieve
          CFI (cfiCond144) Conditional ??CrossCallReturnLabel_108
          CFI (cfiCond144) R6 load(1, XDATA, add(CFA_XSP16, literal(-20)))
          CFI (cfiCond144) VB load(1, XDATA, add(CFA_XSP16, literal(-19)))
          CFI (cfiCond144) V0 load(1, XDATA, add(CFA_XSP16, literal(-18)))
          CFI (cfiCond144) V1 load(1, XDATA, add(CFA_XSP16, literal(-17)))
          CFI (cfiCond144) V2 load(1, XDATA, add(CFA_XSP16, literal(-16)))
          CFI (cfiCond144) V3 load(1, XDATA, add(CFA_XSP16, literal(-15)))
          CFI (cfiCond144) V4 load(1, XDATA, add(CFA_XSP16, literal(-14)))
          CFI (cfiCond144) V5 load(1, XDATA, add(CFA_XSP16, literal(-13)))
          CFI (cfiCond144) V6 load(1, XDATA, add(CFA_XSP16, literal(-12)))
          CFI (cfiCond144) V7 load(1, XDATA, add(CFA_XSP16, literal(-11)))
          CFI (cfiCond144) V8 load(1, XDATA, add(CFA_XSP16, literal(-10)))
          CFI (cfiCond144) V9 load(1, XDATA, add(CFA_XSP16, literal(-9)))
          CFI (cfiCond144) V10 load(1, XDATA, add(CFA_XSP16, literal(-8)))
          CFI (cfiCond144) V11 load(1, XDATA, add(CFA_XSP16, literal(-7)))
          CFI (cfiCond144) R7 load(1, XDATA, add(CFA_XSP16, literal(-6)))
          CFI (cfiCond144) ?RET_LOW load(1, XDATA, add(CFA_XSP16, literal(-5)))
          CFI (cfiCond144) ?RET_HIGH load(1, XDATA, add(CFA_XSP16, literal(-4)))
          CFI (cfiCond144) ?BRET_EXT load(1, XDATA, add(CFA_XSP16, literal(-3)))
          CFI (cfiCond144) DPL0 load(1, XDATA, add(CFA_XSP16, literal(-2)))
          CFI (cfiCond144) DPH0 load(1, XDATA, add(CFA_XSP16, literal(-1)))
          CFI (cfiCond144) CFA_SP SP+-2
          CFI (cfiCond144) CFA_XSP16 add(XSP16, 23)
          CFI Block cfiCond145 Using cfiCommon0
          CFI (cfiCond145) Function MT_AfDataRetrieve
          CFI (cfiCond145) Conditional ??CrossCallReturnLabel_109
          CFI (cfiCond145) R6 load(1, XDATA, add(CFA_XSP16, literal(-20)))
          CFI (cfiCond145) VB load(1, XDATA, add(CFA_XSP16, literal(-19)))
          CFI (cfiCond145) V0 load(1, XDATA, add(CFA_XSP16, literal(-18)))
          CFI (cfiCond145) V1 load(1, XDATA, add(CFA_XSP16, literal(-17)))
          CFI (cfiCond145) V2 load(1, XDATA, add(CFA_XSP16, literal(-16)))
          CFI (cfiCond145) V3 load(1, XDATA, add(CFA_XSP16, literal(-15)))
          CFI (cfiCond145) V4 load(1, XDATA, add(CFA_XSP16, literal(-14)))
          CFI (cfiCond145) V5 load(1, XDATA, add(CFA_XSP16, literal(-13)))
          CFI (cfiCond145) V6 load(1, XDATA, add(CFA_XSP16, literal(-12)))
          CFI (cfiCond145) V7 load(1, XDATA, add(CFA_XSP16, literal(-11)))
          CFI (cfiCond145) V8 load(1, XDATA, add(CFA_XSP16, literal(-10)))
          CFI (cfiCond145) V9 load(1, XDATA, add(CFA_XSP16, literal(-9)))
          CFI (cfiCond145) V10 load(1, XDATA, add(CFA_XSP16, literal(-8)))
          CFI (cfiCond145) V11 load(1, XDATA, add(CFA_XSP16, literal(-7)))
          CFI (cfiCond145) R7 load(1, XDATA, add(CFA_XSP16, literal(-6)))
          CFI (cfiCond145) ?RET_LOW load(1, XDATA, add(CFA_XSP16, literal(-5)))
          CFI (cfiCond145) ?RET_HIGH load(1, XDATA, add(CFA_XSP16, literal(-4)))
          CFI (cfiCond145) ?BRET_EXT load(1, XDATA, add(CFA_XSP16, literal(-3)))
          CFI (cfiCond145) DPL0 load(1, XDATA, add(CFA_XSP16, literal(-2)))
          CFI (cfiCond145) DPH0 load(1, XDATA, add(CFA_XSP16, literal(-1)))
          CFI (cfiCond145) CFA_SP SP+-2
          CFI (cfiCond145) CFA_XSP16 add(XSP16, 23)
          CFI Block cfiCond146 Using cfiCommon0
          CFI (cfiCond146) Function MT_AfDataRetrieve
          CFI (cfiCond146) Conditional ??CrossCallReturnLabel_110
          CFI (cfiCond146) R6 load(1, XDATA, add(CFA_XSP16, literal(-20)))
          CFI (cfiCond146) VB load(1, XDATA, add(CFA_XSP16, literal(-19)))
          CFI (cfiCond146) V0 load(1, XDATA, add(CFA_XSP16, literal(-18)))
          CFI (cfiCond146) V1 load(1, XDATA, add(CFA_XSP16, literal(-17)))
          CFI (cfiCond146) V2 load(1, XDATA, add(CFA_XSP16, literal(-16)))
          CFI (cfiCond146) V3 load(1, XDATA, add(CFA_XSP16, literal(-15)))
          CFI (cfiCond146) V4 load(1, XDATA, add(CFA_XSP16, literal(-14)))
          CFI (cfiCond146) V5 load(1, XDATA, add(CFA_XSP16, literal(-13)))
          CFI (cfiCond146) V6 load(1, XDATA, add(CFA_XSP16, literal(-12)))
          CFI (cfiCond146) V7 load(1, XDATA, add(CFA_XSP16, literal(-11)))
          CFI (cfiCond146) V8 load(1, XDATA, add(CFA_XSP16, literal(-10)))
          CFI (cfiCond146) V9 load(1, XDATA, add(CFA_XSP16, literal(-9)))
          CFI (cfiCond146) V10 load(1, XDATA, add(CFA_XSP16, literal(-8)))
          CFI (cfiCond146) V11 load(1, XDATA, add(CFA_XSP16, literal(-7)))
          CFI (cfiCond146) R7 load(1, XDATA, add(CFA_XSP16, literal(-6)))
          CFI (cfiCond146) ?RET_LOW load(1, XDATA, add(CFA_XSP16, literal(-5)))
          CFI (cfiCond146) ?RET_HIGH load(1, XDATA, add(CFA_XSP16, literal(-4)))
          CFI (cfiCond146) ?BRET_EXT load(1, XDATA, add(CFA_XSP16, literal(-3)))
          CFI (cfiCond146) DPL0 load(1, XDATA, add(CFA_XSP16, literal(-2)))
          CFI (cfiCond146) DPH0 load(1, XDATA, add(CFA_XSP16, literal(-1)))
          CFI (cfiCond146) CFA_SP SP+-2
          CFI (cfiCond146) CFA_XSP16 add(XSP16, 23)
          CFI Block cfiPicker147 Using cfiCommon1
          CFI (cfiPicker147) NoFunction
          CFI (cfiPicker147) Picker
        MOVX      @DPTR,A
        INC       DPTR
        MOV       A,R1
        MOVX      @DPTR,A
        RET
          CFI EndBlock cfiCond138
          CFI EndBlock cfiCond139
          CFI EndBlock cfiCond140
          CFI EndBlock cfiCond141
          CFI EndBlock cfiCond142
          CFI EndBlock cfiCond143
          CFI EndBlock cfiCond144
          CFI EndBlock cfiCond145
          CFI EndBlock cfiCond146
          CFI EndBlock cfiPicker147

        RSEG BANKED_CODE:HUGECODE:NOROOT(0)
?Subroutine27:
          CFI Block cfiCond148 Using cfiCommon0
          CFI Function MT_AfIncomingMsg
          CFI Conditional ??CrossCallReturnLabel_111
          CFI R6 load(1, XDATA, add(CFA_XSP16, literal(-20)))
          CFI VB load(1, XDATA, add(CFA_XSP16, literal(-19)))
          CFI V0 load(1, XDATA, add(CFA_XSP16, literal(-18)))
          CFI V1 load(1, XDATA, add(CFA_XSP16, literal(-17)))
          CFI V2 load(1, XDATA, add(CFA_XSP16, literal(-16)))
          CFI V3 load(1, XDATA, add(CFA_XSP16, literal(-15)))
          CFI V4 load(1, XDATA, add(CFA_XSP16, literal(-14)))
          CFI V5 load(1, XDATA, add(CFA_XSP16, literal(-13)))
          CFI V6 load(1, XDATA, add(CFA_XSP16, literal(-12)))
          CFI V7 load(1, XDATA, add(CFA_XSP16, literal(-11)))
          CFI V8 load(1, XDATA, add(CFA_XSP16, literal(-10)))
          CFI V9 load(1, XDATA, add(CFA_XSP16, literal(-9)))
          CFI V10 load(1, XDATA, add(CFA_XSP16, literal(-8)))
          CFI V11 load(1, XDATA, add(CFA_XSP16, literal(-7)))
          CFI R7 load(1, XDATA, add(CFA_XSP16, literal(-6)))
          CFI ?RET_LOW load(1, XDATA, add(CFA_XSP16, literal(-5)))
          CFI ?RET_HIGH load(1, XDATA, add(CFA_XSP16, literal(-4)))
          CFI ?BRET_EXT load(1, XDATA, add(CFA_XSP16, literal(-3)))
          CFI DPL0 load(1, XDATA, add(CFA_XSP16, literal(-2)))
          CFI DPH0 load(1, XDATA, add(CFA_XSP16, literal(-1)))
          CFI CFA_SP SP+-2
          CFI CFA_XSP16 add(XSP16, 23)
          CFI Block cfiCond149 Using cfiCommon0
          CFI (cfiCond149) Function MT_AfIncomingMsg
          CFI (cfiCond149) Conditional ??CrossCallReturnLabel_112
          CFI (cfiCond149) R6 load(1, XDATA, add(CFA_XSP16, literal(-20)))
          CFI (cfiCond149) VB load(1, XDATA, add(CFA_XSP16, literal(-19)))
          CFI (cfiCond149) V0 load(1, XDATA, add(CFA_XSP16, literal(-18)))
          CFI (cfiCond149) V1 load(1, XDATA, add(CFA_XSP16, literal(-17)))
          CFI (cfiCond149) V2 load(1, XDATA, add(CFA_XSP16, literal(-16)))
          CFI (cfiCond149) V3 load(1, XDATA, add(CFA_XSP16, literal(-15)))
          CFI (cfiCond149) V4 load(1, XDATA, add(CFA_XSP16, literal(-14)))
          CFI (cfiCond149) V5 load(1, XDATA, add(CFA_XSP16, literal(-13)))
          CFI (cfiCond149) V6 load(1, XDATA, add(CFA_XSP16, literal(-12)))
          CFI (cfiCond149) V7 load(1, XDATA, add(CFA_XSP16, literal(-11)))
          CFI (cfiCond149) V8 load(1, XDATA, add(CFA_XSP16, literal(-10)))
          CFI (cfiCond149) V9 load(1, XDATA, add(CFA_XSP16, literal(-9)))
          CFI (cfiCond149) V10 load(1, XDATA, add(CFA_XSP16, literal(-8)))
          CFI (cfiCond149) V11 load(1, XDATA, add(CFA_XSP16, literal(-7)))
          CFI (cfiCond149) R7 load(1, XDATA, add(CFA_XSP16, literal(-6)))
          CFI (cfiCond149) ?RET_LOW load(1, XDATA, add(CFA_XSP16, literal(-5)))
          CFI (cfiCond149) ?RET_HIGH load(1, XDATA, add(CFA_XSP16, literal(-4)))
          CFI (cfiCond149) ?BRET_EXT load(1, XDATA, add(CFA_XSP16, literal(-3)))
          CFI (cfiCond149) DPL0 load(1, XDATA, add(CFA_XSP16, literal(-2)))
          CFI (cfiCond149) DPH0 load(1, XDATA, add(CFA_XSP16, literal(-1)))
          CFI (cfiCond149) CFA_SP SP+-2
          CFI (cfiCond149) CFA_XSP16 add(XSP16, 23)
          CFI Block cfiPicker150 Using cfiCommon1
          CFI (cfiPicker150) NoFunction
          CFI (cfiPicker150) Picker
        INC       DPTR
        INC       DPTR
        INC       DPTR
        INC       DPTR
        MOV       A,?V4
          CFI EndBlock cfiCond148
          CFI EndBlock cfiCond149
          CFI EndBlock cfiPicker150
        REQUIRE ??Subroutine58_0
        ; // Fall through to label ??Subroutine58_0

        RSEG BANKED_CODE:HUGECODE:NOROOT(0)
??Subroutine58_0:
          CFI Block cfiCond151 Using cfiCommon0
          CFI Function MT_AfIncomingMsg
          CFI Conditional ??CrossCallReturnLabel_113
          CFI R6 load(1, XDATA, add(CFA_XSP16, literal(-20)))
          CFI VB load(1, XDATA, add(CFA_XSP16, literal(-19)))
          CFI V0 load(1, XDATA, add(CFA_XSP16, literal(-18)))
          CFI V1 load(1, XDATA, add(CFA_XSP16, literal(-17)))
          CFI V2 load(1, XDATA, add(CFA_XSP16, literal(-16)))
          CFI V3 load(1, XDATA, add(CFA_XSP16, literal(-15)))
          CFI V4 load(1, XDATA, add(CFA_XSP16, literal(-14)))
          CFI V5 load(1, XDATA, add(CFA_XSP16, literal(-13)))
          CFI V6 load(1, XDATA, add(CFA_XSP16, literal(-12)))
          CFI V7 load(1, XDATA, add(CFA_XSP16, literal(-11)))
          CFI V8 load(1, XDATA, add(CFA_XSP16, literal(-10)))
          CFI V9 load(1, XDATA, add(CFA_XSP16, literal(-9)))
          CFI V10 load(1, XDATA, add(CFA_XSP16, literal(-8)))
          CFI V11 load(1, XDATA, add(CFA_XSP16, literal(-7)))
          CFI R7 load(1, XDATA, add(CFA_XSP16, literal(-6)))
          CFI ?RET_LOW load(1, XDATA, add(CFA_XSP16, literal(-5)))
          CFI ?RET_HIGH load(1, XDATA, add(CFA_XSP16, literal(-4)))
          CFI ?BRET_EXT load(1, XDATA, add(CFA_XSP16, literal(-3)))
          CFI DPL0 load(1, XDATA, add(CFA_XSP16, literal(-2)))
          CFI DPH0 load(1, XDATA, add(CFA_XSP16, literal(-1)))
          CFI CFA_SP SP+-2
          CFI CFA_XSP16 add(XSP16, 23)
          CFI Block cfiCond152 Using cfiCommon0
          CFI (cfiCond152) Function MT_AfIncomingMsg
          CFI (cfiCond152) Conditional ??CrossCallReturnLabel_111
          CFI (cfiCond152) R6 load(1, XDATA, add(CFA_XSP16, literal(-20)))
          CFI (cfiCond152) VB load(1, XDATA, add(CFA_XSP16, literal(-19)))
          CFI (cfiCond152) V0 load(1, XDATA, add(CFA_XSP16, literal(-18)))
          CFI (cfiCond152) V1 load(1, XDATA, add(CFA_XSP16, literal(-17)))
          CFI (cfiCond152) V2 load(1, XDATA, add(CFA_XSP16, literal(-16)))
          CFI (cfiCond152) V3 load(1, XDATA, add(CFA_XSP16, literal(-15)))
          CFI (cfiCond152) V4 load(1, XDATA, add(CFA_XSP16, literal(-14)))
          CFI (cfiCond152) V5 load(1, XDATA, add(CFA_XSP16, literal(-13)))
          CFI (cfiCond152) V6 load(1, XDATA, add(CFA_XSP16, literal(-12)))
          CFI (cfiCond152) V7 load(1, XDATA, add(CFA_XSP16, literal(-11)))
          CFI (cfiCond152) V8 load(1, XDATA, add(CFA_XSP16, literal(-10)))
          CFI (cfiCond152) V9 load(1, XDATA, add(CFA_XSP16, literal(-9)))
          CFI (cfiCond152) V10 load(1, XDATA, add(CFA_XSP16, literal(-8)))
          CFI (cfiCond152) V11 load(1, XDATA, add(CFA_XSP16, literal(-7)))
          CFI (cfiCond152) R7 load(1, XDATA, add(CFA_XSP16, literal(-6)))
          CFI (cfiCond152) ?RET_LOW load(1, XDATA, add(CFA_XSP16, literal(-5)))
          CFI (cfiCond152) ?RET_HIGH load(1, XDATA, add(CFA_XSP16, literal(-4)))
          CFI (cfiCond152) ?BRET_EXT load(1, XDATA, add(CFA_XSP16, literal(-3)))
          CFI (cfiCond152) DPL0 load(1, XDATA, add(CFA_XSP16, literal(-2)))
          CFI (cfiCond152) DPH0 load(1, XDATA, add(CFA_XSP16, literal(-1)))
          CFI (cfiCond152) CFA_SP SP+-2
          CFI (cfiCond152) CFA_XSP16 add(XSP16, 23)
          CFI Block cfiCond153 Using cfiCommon0
          CFI (cfiCond153) Function MT_AfIncomingMsg
          CFI (cfiCond153) Conditional ??CrossCallReturnLabel_112
          CFI (cfiCond153) R6 load(1, XDATA, add(CFA_XSP16, literal(-20)))
          CFI (cfiCond153) VB load(1, XDATA, add(CFA_XSP16, literal(-19)))
          CFI (cfiCond153) V0 load(1, XDATA, add(CFA_XSP16, literal(-18)))
          CFI (cfiCond153) V1 load(1, XDATA, add(CFA_XSP16, literal(-17)))
          CFI (cfiCond153) V2 load(1, XDATA, add(CFA_XSP16, literal(-16)))
          CFI (cfiCond153) V3 load(1, XDATA, add(CFA_XSP16, literal(-15)))
          CFI (cfiCond153) V4 load(1, XDATA, add(CFA_XSP16, literal(-14)))
          CFI (cfiCond153) V5 load(1, XDATA, add(CFA_XSP16, literal(-13)))
          CFI (cfiCond153) V6 load(1, XDATA, add(CFA_XSP16, literal(-12)))
          CFI (cfiCond153) V7 load(1, XDATA, add(CFA_XSP16, literal(-11)))
          CFI (cfiCond153) V8 load(1, XDATA, add(CFA_XSP16, literal(-10)))
          CFI (cfiCond153) V9 load(1, XDATA, add(CFA_XSP16, literal(-9)))
          CFI (cfiCond153) V10 load(1, XDATA, add(CFA_XSP16, literal(-8)))
          CFI (cfiCond153) V11 load(1, XDATA, add(CFA_XSP16, literal(-7)))
          CFI (cfiCond153) R7 load(1, XDATA, add(CFA_XSP16, literal(-6)))
          CFI (cfiCond153) ?RET_LOW load(1, XDATA, add(CFA_XSP16, literal(-5)))
          CFI (cfiCond153) ?RET_HIGH load(1, XDATA, add(CFA_XSP16, literal(-4)))
          CFI (cfiCond153) ?BRET_EXT load(1, XDATA, add(CFA_XSP16, literal(-3)))
          CFI (cfiCond153) DPL0 load(1, XDATA, add(CFA_XSP16, literal(-2)))
          CFI (cfiCond153) DPH0 load(1, XDATA, add(CFA_XSP16, literal(-1)))
          CFI (cfiCond153) CFA_SP SP+-2
          CFI (cfiCond153) CFA_XSP16 add(XSP16, 23)
          CFI Block cfiPicker154 Using cfiCommon1
          CFI (cfiPicker154) NoFunction
          CFI (cfiPicker154) Picker
        MOVX      @DPTR,A
        MOV       DPL,R2
        MOV       DPH,R3
        MOV       R0,#?V4
        RET
          CFI EndBlock cfiCond151
          CFI EndBlock cfiCond152
          CFI EndBlock cfiCond153
          CFI EndBlock cfiPicker154

        RSEG BANKED_CODE:HUGECODE:NOROOT(0)
?Subroutine24:
          CFI Block cfiCond155 Using cfiCommon0
          CFI Function MT_AfIncomingMsg
          CFI Conditional ??CrossCallReturnLabel_34
          CFI R6 load(1, XDATA, add(CFA_XSP16, literal(-20)))
          CFI VB load(1, XDATA, add(CFA_XSP16, literal(-19)))
          CFI V0 load(1, XDATA, add(CFA_XSP16, literal(-18)))
          CFI V1 load(1, XDATA, add(CFA_XSP16, literal(-17)))
          CFI V2 load(1, XDATA, add(CFA_XSP16, literal(-16)))
          CFI V3 load(1, XDATA, add(CFA_XSP16, literal(-15)))
          CFI V4 load(1, XDATA, add(CFA_XSP16, literal(-14)))
          CFI V5 load(1, XDATA, add(CFA_XSP16, literal(-13)))
          CFI V6 load(1, XDATA, add(CFA_XSP16, literal(-12)))
          CFI V7 load(1, XDATA, add(CFA_XSP16, literal(-11)))
          CFI V8 load(1, XDATA, add(CFA_XSP16, literal(-10)))
          CFI V9 load(1, XDATA, add(CFA_XSP16, literal(-9)))
          CFI V10 load(1, XDATA, add(CFA_XSP16, literal(-8)))
          CFI V11 load(1, XDATA, add(CFA_XSP16, literal(-7)))
          CFI R7 load(1, XDATA, add(CFA_XSP16, literal(-6)))
          CFI ?RET_LOW load(1, XDATA, add(CFA_XSP16, literal(-5)))
          CFI ?RET_HIGH load(1, XDATA, add(CFA_XSP16, literal(-4)))
          CFI ?BRET_EXT load(1, XDATA, add(CFA_XSP16, literal(-3)))
          CFI DPL0 load(1, XDATA, add(CFA_XSP16, literal(-2)))
          CFI DPH0 load(1, XDATA, add(CFA_XSP16, literal(-1)))
          CFI CFA_SP SP+-2
          CFI CFA_XSP16 add(XSP16, 23)
          CFI Block cfiCond156 Using cfiCommon0
          CFI (cfiCond156) Function MT_AfIncomingMsg
          CFI (cfiCond156) Conditional ??CrossCallReturnLabel_35
          CFI (cfiCond156) R6 load(1, XDATA, add(CFA_XSP16, literal(-20)))
          CFI (cfiCond156) VB load(1, XDATA, add(CFA_XSP16, literal(-19)))
          CFI (cfiCond156) V0 load(1, XDATA, add(CFA_XSP16, literal(-18)))
          CFI (cfiCond156) V1 load(1, XDATA, add(CFA_XSP16, literal(-17)))
          CFI (cfiCond156) V2 load(1, XDATA, add(CFA_XSP16, literal(-16)))
          CFI (cfiCond156) V3 load(1, XDATA, add(CFA_XSP16, literal(-15)))
          CFI (cfiCond156) V4 load(1, XDATA, add(CFA_XSP16, literal(-14)))
          CFI (cfiCond156) V5 load(1, XDATA, add(CFA_XSP16, literal(-13)))
          CFI (cfiCond156) V6 load(1, XDATA, add(CFA_XSP16, literal(-12)))
          CFI (cfiCond156) V7 load(1, XDATA, add(CFA_XSP16, literal(-11)))
          CFI (cfiCond156) V8 load(1, XDATA, add(CFA_XSP16, literal(-10)))
          CFI (cfiCond156) V9 load(1, XDATA, add(CFA_XSP16, literal(-9)))
          CFI (cfiCond156) V10 load(1, XDATA, add(CFA_XSP16, literal(-8)))
          CFI (cfiCond156) V11 load(1, XDATA, add(CFA_XSP16, literal(-7)))
          CFI (cfiCond156) R7 load(1, XDATA, add(CFA_XSP16, literal(-6)))
          CFI (cfiCond156) ?RET_LOW load(1, XDATA, add(CFA_XSP16, literal(-5)))
          CFI (cfiCond156) ?RET_HIGH load(1, XDATA, add(CFA_XSP16, literal(-4)))
          CFI (cfiCond156) ?BRET_EXT load(1, XDATA, add(CFA_XSP16, literal(-3)))
          CFI (cfiCond156) DPL0 load(1, XDATA, add(CFA_XSP16, literal(-2)))
          CFI (cfiCond156) DPH0 load(1, XDATA, add(CFA_XSP16, literal(-1)))
          CFI (cfiCond156) CFA_SP SP+-2
          CFI (cfiCond156) CFA_XSP16 add(XSP16, 23)
          CFI Block cfiPicker157 Using cfiCommon1
          CFI (cfiPicker157) NoFunction
          CFI (cfiPicker157) Picker
        LCALL     ?Subroutine43 & 0xFFFF
??CrossCallReturnLabel_65:
        INC       DPTR
        RET
          CFI EndBlock cfiCond155
          CFI EndBlock cfiCond156
          CFI EndBlock cfiPicker157

        RSEG BANKED_CODE:HUGECODE:NOROOT(0)
?Subroutine23:
          CFI Block cfiCond158 Using cfiCommon0
          CFI Function MT_AfIncomingMsg
          CFI Conditional ??CrossCallReturnLabel_32
          CFI R6 load(1, XDATA, add(CFA_XSP16, literal(-20)))
          CFI VB load(1, XDATA, add(CFA_XSP16, literal(-19)))
          CFI V0 load(1, XDATA, add(CFA_XSP16, literal(-18)))
          CFI V1 load(1, XDATA, add(CFA_XSP16, literal(-17)))
          CFI V2 load(1, XDATA, add(CFA_XSP16, literal(-16)))
          CFI V3 load(1, XDATA, add(CFA_XSP16, literal(-15)))
          CFI V4 load(1, XDATA, add(CFA_XSP16, literal(-14)))
          CFI V5 load(1, XDATA, add(CFA_XSP16, literal(-13)))
          CFI V6 load(1, XDATA, add(CFA_XSP16, literal(-12)))
          CFI V7 load(1, XDATA, add(CFA_XSP16, literal(-11)))
          CFI V8 load(1, XDATA, add(CFA_XSP16, literal(-10)))
          CFI V9 load(1, XDATA, add(CFA_XSP16, literal(-9)))
          CFI V10 load(1, XDATA, add(CFA_XSP16, literal(-8)))
          CFI V11 load(1, XDATA, add(CFA_XSP16, literal(-7)))
          CFI R7 load(1, XDATA, add(CFA_XSP16, literal(-6)))
          CFI ?RET_LOW load(1, XDATA, add(CFA_XSP16, literal(-5)))
          CFI ?RET_HIGH load(1, XDATA, add(CFA_XSP16, literal(-4)))
          CFI ?BRET_EXT load(1, XDATA, add(CFA_XSP16, literal(-3)))
          CFI DPL0 load(1, XDATA, add(CFA_XSP16, literal(-2)))
          CFI DPH0 load(1, XDATA, add(CFA_XSP16, literal(-1)))
          CFI CFA_SP SP+-2
          CFI CFA_XSP16 add(XSP16, 23)
          CFI Block cfiCond159 Using cfiCommon0
          CFI (cfiCond159) Function MT_AfIncomingMsg
          CFI (cfiCond159) Conditional ??CrossCallReturnLabel_33
          CFI (cfiCond159) R6 load(1, XDATA, add(CFA_XSP16, literal(-20)))
          CFI (cfiCond159) VB load(1, XDATA, add(CFA_XSP16, literal(-19)))
          CFI (cfiCond159) V0 load(1, XDATA, add(CFA_XSP16, literal(-18)))
          CFI (cfiCond159) V1 load(1, XDATA, add(CFA_XSP16, literal(-17)))
          CFI (cfiCond159) V2 load(1, XDATA, add(CFA_XSP16, literal(-16)))
          CFI (cfiCond159) V3 load(1, XDATA, add(CFA_XSP16, literal(-15)))
          CFI (cfiCond159) V4 load(1, XDATA, add(CFA_XSP16, literal(-14)))
          CFI (cfiCond159) V5 load(1, XDATA, add(CFA_XSP16, literal(-13)))
          CFI (cfiCond159) V6 load(1, XDATA, add(CFA_XSP16, literal(-12)))
          CFI (cfiCond159) V7 load(1, XDATA, add(CFA_XSP16, literal(-11)))
          CFI (cfiCond159) V8 load(1, XDATA, add(CFA_XSP16, literal(-10)))
          CFI (cfiCond159) V9 load(1, XDATA, add(CFA_XSP16, literal(-9)))
          CFI (cfiCond159) V10 load(1, XDATA, add(CFA_XSP16, literal(-8)))
          CFI (cfiCond159) V11 load(1, XDATA, add(CFA_XSP16, literal(-7)))
          CFI (cfiCond159) R7 load(1, XDATA, add(CFA_XSP16, literal(-6)))
          CFI (cfiCond159) ?RET_LOW load(1, XDATA, add(CFA_XSP16, literal(-5)))
          CFI (cfiCond159) ?RET_HIGH load(1, XDATA, add(CFA_XSP16, literal(-4)))
          CFI (cfiCond159) ?BRET_EXT load(1, XDATA, add(CFA_XSP16, literal(-3)))
          CFI (cfiCond159) DPL0 load(1, XDATA, add(CFA_XSP16, literal(-2)))
          CFI (cfiCond159) DPH0 load(1, XDATA, add(CFA_XSP16, literal(-1)))
          CFI (cfiCond159) CFA_SP SP+-2
          CFI (cfiCond159) CFA_XSP16 add(XSP16, 23)
          CFI Block cfiPicker160 Using cfiCommon1
          CFI (cfiPicker160) NoFunction
          CFI (cfiPicker160) Picker
        MOV       DPH,A
        MOVX      A,@DPTR
        MOV       DPL,?V0
        MOV       DPH,?V1
        MOVX      @DPTR,A
        RET
          CFI EndBlock cfiCond158
          CFI EndBlock cfiCond159
          CFI EndBlock cfiPicker160

        RSEG BANKED_CODE:HUGECODE:NOROOT(0)
?Subroutine20:
          CFI Block cfiCond161 Using cfiCommon0
          CFI Function MT_AfIncomingMsg
          CFI Conditional ??CrossCallReturnLabel_25
          CFI R6 load(1, XDATA, add(CFA_XSP16, literal(-20)))
          CFI VB load(1, XDATA, add(CFA_XSP16, literal(-19)))
          CFI V0 load(1, XDATA, add(CFA_XSP16, literal(-18)))
          CFI V1 load(1, XDATA, add(CFA_XSP16, literal(-17)))
          CFI V2 load(1, XDATA, add(CFA_XSP16, literal(-16)))
          CFI V3 load(1, XDATA, add(CFA_XSP16, literal(-15)))
          CFI V4 load(1, XDATA, add(CFA_XSP16, literal(-14)))
          CFI V5 load(1, XDATA, add(CFA_XSP16, literal(-13)))
          CFI V6 load(1, XDATA, add(CFA_XSP16, literal(-12)))
          CFI V7 load(1, XDATA, add(CFA_XSP16, literal(-11)))
          CFI V8 load(1, XDATA, add(CFA_XSP16, literal(-10)))
          CFI V9 load(1, XDATA, add(CFA_XSP16, literal(-9)))
          CFI V10 load(1, XDATA, add(CFA_XSP16, literal(-8)))
          CFI V11 load(1, XDATA, add(CFA_XSP16, literal(-7)))
          CFI R7 load(1, XDATA, add(CFA_XSP16, literal(-6)))
          CFI ?RET_LOW load(1, XDATA, add(CFA_XSP16, literal(-5)))
          CFI ?RET_HIGH load(1, XDATA, add(CFA_XSP16, literal(-4)))
          CFI ?BRET_EXT load(1, XDATA, add(CFA_XSP16, literal(-3)))
          CFI DPL0 load(1, XDATA, add(CFA_XSP16, literal(-2)))
          CFI DPH0 load(1, XDATA, add(CFA_XSP16, literal(-1)))
          CFI CFA_SP SP+-2
          CFI CFA_XSP16 add(XSP16, 23)
          CFI Block cfiCond162 Using cfiCommon0
          CFI (cfiCond162) Function MT_AfIncomingMsg
          CFI (cfiCond162) Conditional ??CrossCallReturnLabel_26
          CFI (cfiCond162) R6 load(1, XDATA, add(CFA_XSP16, literal(-20)))
          CFI (cfiCond162) VB load(1, XDATA, add(CFA_XSP16, literal(-19)))
          CFI (cfiCond162) V0 load(1, XDATA, add(CFA_XSP16, literal(-18)))
          CFI (cfiCond162) V1 load(1, XDATA, add(CFA_XSP16, literal(-17)))
          CFI (cfiCond162) V2 load(1, XDATA, add(CFA_XSP16, literal(-16)))
          CFI (cfiCond162) V3 load(1, XDATA, add(CFA_XSP16, literal(-15)))
          CFI (cfiCond162) V4 load(1, XDATA, add(CFA_XSP16, literal(-14)))
          CFI (cfiCond162) V5 load(1, XDATA, add(CFA_XSP16, literal(-13)))
          CFI (cfiCond162) V6 load(1, XDATA, add(CFA_XSP16, literal(-12)))
          CFI (cfiCond162) V7 load(1, XDATA, add(CFA_XSP16, literal(-11)))
          CFI (cfiCond162) V8 load(1, XDATA, add(CFA_XSP16, literal(-10)))
          CFI (cfiCond162) V9 load(1, XDATA, add(CFA_XSP16, literal(-9)))
          CFI (cfiCond162) V10 load(1, XDATA, add(CFA_XSP16, literal(-8)))
          CFI (cfiCond162) V11 load(1, XDATA, add(CFA_XSP16, literal(-7)))
          CFI (cfiCond162) R7 load(1, XDATA, add(CFA_XSP16, literal(-6)))
          CFI (cfiCond162) ?RET_LOW load(1, XDATA, add(CFA_XSP16, literal(-5)))
          CFI (cfiCond162) ?RET_HIGH load(1, XDATA, add(CFA_XSP16, literal(-4)))
          CFI (cfiCond162) ?BRET_EXT load(1, XDATA, add(CFA_XSP16, literal(-3)))
          CFI (cfiCond162) DPL0 load(1, XDATA, add(CFA_XSP16, literal(-2)))
          CFI (cfiCond162) DPH0 load(1, XDATA, add(CFA_XSP16, literal(-1)))
          CFI (cfiCond162) CFA_SP SP+-2
          CFI (cfiCond162) CFA_XSP16 add(XSP16, 23)
          CFI Block cfiPicker163 Using cfiCommon1
          CFI (cfiPicker163) NoFunction
          CFI (cfiPicker163) Picker
        LCALL     ?Subroutine41 & 0xFFFF
??CrossCallReturnLabel_63:
        RET
          CFI EndBlock cfiCond161
          CFI EndBlock cfiCond162
          CFI EndBlock cfiPicker163

        RSEG BANKED_CODE:HUGECODE:NOROOT(0)
?Subroutine41:
          CFI Block cfiCond164 Using cfiCommon0
          CFI Function MT_AfIncomingMsg
          CFI Conditional ??CrossCallReturnLabel_63, ??CrossCallReturnLabel_25
          CFI R6 load(1, XDATA, add(CFA_XSP16, literal(-20)))
          CFI VB load(1, XDATA, add(CFA_XSP16, literal(-19)))
          CFI V0 load(1, XDATA, add(CFA_XSP16, literal(-18)))
          CFI V1 load(1, XDATA, add(CFA_XSP16, literal(-17)))
          CFI V2 load(1, XDATA, add(CFA_XSP16, literal(-16)))
          CFI V3 load(1, XDATA, add(CFA_XSP16, literal(-15)))
          CFI V4 load(1, XDATA, add(CFA_XSP16, literal(-14)))
          CFI V5 load(1, XDATA, add(CFA_XSP16, literal(-13)))
          CFI V6 load(1, XDATA, add(CFA_XSP16, literal(-12)))
          CFI V7 load(1, XDATA, add(CFA_XSP16, literal(-11)))
          CFI V8 load(1, XDATA, add(CFA_XSP16, literal(-10)))
          CFI V9 load(1, XDATA, add(CFA_XSP16, literal(-9)))
          CFI V10 load(1, XDATA, add(CFA_XSP16, literal(-8)))
          CFI V11 load(1, XDATA, add(CFA_XSP16, literal(-7)))
          CFI R7 load(1, XDATA, add(CFA_XSP16, literal(-6)))
          CFI ?RET_LOW load(1, XDATA, add(CFA_XSP16, literal(-5)))
          CFI ?RET_HIGH load(1, XDATA, add(CFA_XSP16, literal(-4)))
          CFI ?BRET_EXT load(1, XDATA, add(CFA_XSP16, literal(-3)))
          CFI DPL0 load(1, XDATA, add(CFA_XSP16, literal(-2)))
          CFI DPH0 load(1, XDATA, add(CFA_XSP16, literal(-1)))
          CFI CFA_SP SP+-4
          CFI CFA_XSP16 add(XSP16, 23)
          CFI Block cfiCond165 Using cfiCommon0
          CFI (cfiCond165) Function MT_AfIncomingMsg
          CFI (cfiCond165) Conditional ??CrossCallReturnLabel_63, ??CrossCallReturnLabel_26
          CFI (cfiCond165) R6 load(1, XDATA, add(CFA_XSP16, literal(-20)))
          CFI (cfiCond165) VB load(1, XDATA, add(CFA_XSP16, literal(-19)))
          CFI (cfiCond165) V0 load(1, XDATA, add(CFA_XSP16, literal(-18)))
          CFI (cfiCond165) V1 load(1, XDATA, add(CFA_XSP16, literal(-17)))
          CFI (cfiCond165) V2 load(1, XDATA, add(CFA_XSP16, literal(-16)))
          CFI (cfiCond165) V3 load(1, XDATA, add(CFA_XSP16, literal(-15)))
          CFI (cfiCond165) V4 load(1, XDATA, add(CFA_XSP16, literal(-14)))
          CFI (cfiCond165) V5 load(1, XDATA, add(CFA_XSP16, literal(-13)))
          CFI (cfiCond165) V6 load(1, XDATA, add(CFA_XSP16, literal(-12)))
          CFI (cfiCond165) V7 load(1, XDATA, add(CFA_XSP16, literal(-11)))
          CFI (cfiCond165) V8 load(1, XDATA, add(CFA_XSP16, literal(-10)))
          CFI (cfiCond165) V9 load(1, XDATA, add(CFA_XSP16, literal(-9)))
          CFI (cfiCond165) V10 load(1, XDATA, add(CFA_XSP16, literal(-8)))
          CFI (cfiCond165) V11 load(1, XDATA, add(CFA_XSP16, literal(-7)))
          CFI (cfiCond165) R7 load(1, XDATA, add(CFA_XSP16, literal(-6)))
          CFI (cfiCond165) ?RET_LOW load(1, XDATA, add(CFA_XSP16, literal(-5)))
          CFI (cfiCond165) ?RET_HIGH load(1, XDATA, add(CFA_XSP16, literal(-4)))
          CFI (cfiCond165) ?BRET_EXT load(1, XDATA, add(CFA_XSP16, literal(-3)))
          CFI (cfiCond165) DPL0 load(1, XDATA, add(CFA_XSP16, literal(-2)))
          CFI (cfiCond165) DPH0 load(1, XDATA, add(CFA_XSP16, literal(-1)))
          CFI (cfiCond165) CFA_SP SP+-4
          CFI (cfiCond165) CFA_XSP16 add(XSP16, 23)
          CFI Block cfiCond166 Using cfiCommon0
          CFI (cfiCond166) Function MT_AfIncomingMsg
          CFI (cfiCond166) Conditional ??CrossCallReturnLabel_62, ??CrossCallReturnLabel_0
          CFI (cfiCond166) R6 load(1, XDATA, add(CFA_XSP16, literal(-20)))
          CFI (cfiCond166) VB load(1, XDATA, add(CFA_XSP16, literal(-19)))
          CFI (cfiCond166) V0 load(1, XDATA, add(CFA_XSP16, literal(-18)))
          CFI (cfiCond166) V1 load(1, XDATA, add(CFA_XSP16, literal(-17)))
          CFI (cfiCond166) V2 load(1, XDATA, add(CFA_XSP16, literal(-16)))
          CFI (cfiCond166) V3 load(1, XDATA, add(CFA_XSP16, literal(-15)))
          CFI (cfiCond166) V4 load(1, XDATA, add(CFA_XSP16, literal(-14)))
          CFI (cfiCond166) V5 load(1, XDATA, add(CFA_XSP16, literal(-13)))
          CFI (cfiCond166) V6 load(1, XDATA, add(CFA_XSP16, literal(-12)))
          CFI (cfiCond166) V7 load(1, XDATA, add(CFA_XSP16, literal(-11)))
          CFI (cfiCond166) V8 load(1, XDATA, add(CFA_XSP16, literal(-10)))
          CFI (cfiCond166) V9 load(1, XDATA, add(CFA_XSP16, literal(-9)))
          CFI (cfiCond166) V10 load(1, XDATA, add(CFA_XSP16, literal(-8)))
          CFI (cfiCond166) V11 load(1, XDATA, add(CFA_XSP16, literal(-7)))
          CFI (cfiCond166) R7 load(1, XDATA, add(CFA_XSP16, literal(-6)))
          CFI (cfiCond166) ?RET_LOW load(1, XDATA, add(CFA_XSP16, literal(-5)))
          CFI (cfiCond166) ?RET_HIGH load(1, XDATA, add(CFA_XSP16, literal(-4)))
          CFI (cfiCond166) ?BRET_EXT load(1, XDATA, add(CFA_XSP16, literal(-3)))
          CFI (cfiCond166) DPL0 load(1, XDATA, add(CFA_XSP16, literal(-2)))
          CFI (cfiCond166) DPH0 load(1, XDATA, add(CFA_XSP16, literal(-1)))
          CFI (cfiCond166) CFA_SP SP+-4
          CFI (cfiCond166) CFA_XSP16 add(XSP16, 23)
          CFI Block cfiCond167 Using cfiCommon0
          CFI (cfiCond167) Function MT_AfIncomingMsg
          CFI (cfiCond167) Conditional ??CrossCallReturnLabel_62, ??CrossCallReturnLabel_1
          CFI (cfiCond167) R6 load(1, XDATA, add(CFA_XSP16, literal(-20)))
          CFI (cfiCond167) VB load(1, XDATA, add(CFA_XSP16, literal(-19)))
          CFI (cfiCond167) V0 load(1, XDATA, add(CFA_XSP16, literal(-18)))
          CFI (cfiCond167) V1 load(1, XDATA, add(CFA_XSP16, literal(-17)))
          CFI (cfiCond167) V2 load(1, XDATA, add(CFA_XSP16, literal(-16)))
          CFI (cfiCond167) V3 load(1, XDATA, add(CFA_XSP16, literal(-15)))
          CFI (cfiCond167) V4 load(1, XDATA, add(CFA_XSP16, literal(-14)))
          CFI (cfiCond167) V5 load(1, XDATA, add(CFA_XSP16, literal(-13)))
          CFI (cfiCond167) V6 load(1, XDATA, add(CFA_XSP16, literal(-12)))
          CFI (cfiCond167) V7 load(1, XDATA, add(CFA_XSP16, literal(-11)))
          CFI (cfiCond167) V8 load(1, XDATA, add(CFA_XSP16, literal(-10)))
          CFI (cfiCond167) V9 load(1, XDATA, add(CFA_XSP16, literal(-9)))
          CFI (cfiCond167) V10 load(1, XDATA, add(CFA_XSP16, literal(-8)))
          CFI (cfiCond167) V11 load(1, XDATA, add(CFA_XSP16, literal(-7)))
          CFI (cfiCond167) R7 load(1, XDATA, add(CFA_XSP16, literal(-6)))
          CFI (cfiCond167) ?RET_LOW load(1, XDATA, add(CFA_XSP16, literal(-5)))
          CFI (cfiCond167) ?RET_HIGH load(1, XDATA, add(CFA_XSP16, literal(-4)))
          CFI (cfiCond167) ?BRET_EXT load(1, XDATA, add(CFA_XSP16, literal(-3)))
          CFI (cfiCond167) DPL0 load(1, XDATA, add(CFA_XSP16, literal(-2)))
          CFI (cfiCond167) DPH0 load(1, XDATA, add(CFA_XSP16, literal(-1)))
          CFI (cfiCond167) CFA_SP SP+-4
          CFI (cfiCond167) CFA_XSP16 add(XSP16, 23)
          CFI Block cfiPicker168 Using cfiCommon1
          CFI (cfiPicker168) NoFunction
          CFI (cfiPicker168) Picker
        MOV       DPL,A
        CLR       A
        ADDC      A,?V9
        MOV       DPH,A
        LCALL     ?Subroutine49 & 0xFFFF
??CrossCallReturnLabel_80:
        INC       DPTR
        RET
          CFI EndBlock cfiCond164
          CFI EndBlock cfiCond165
          CFI EndBlock cfiCond166
          CFI EndBlock cfiCond167
          CFI EndBlock cfiPicker168

        RSEG BANKED_CODE:HUGECODE:NOROOT(0)
?Subroutine19:
          CFI Block cfiCond169 Using cfiCommon0
          CFI Function MT_AfIncomingMsg
          CFI Conditional ??CrossCallReturnLabel_23
          CFI R6 load(1, XDATA, add(CFA_XSP16, literal(-20)))
          CFI VB load(1, XDATA, add(CFA_XSP16, literal(-19)))
          CFI V0 load(1, XDATA, add(CFA_XSP16, literal(-18)))
          CFI V1 load(1, XDATA, add(CFA_XSP16, literal(-17)))
          CFI V2 load(1, XDATA, add(CFA_XSP16, literal(-16)))
          CFI V3 load(1, XDATA, add(CFA_XSP16, literal(-15)))
          CFI V4 load(1, XDATA, add(CFA_XSP16, literal(-14)))
          CFI V5 load(1, XDATA, add(CFA_XSP16, literal(-13)))
          CFI V6 load(1, XDATA, add(CFA_XSP16, literal(-12)))
          CFI V7 load(1, XDATA, add(CFA_XSP16, literal(-11)))
          CFI V8 load(1, XDATA, add(CFA_XSP16, literal(-10)))
          CFI V9 load(1, XDATA, add(CFA_XSP16, literal(-9)))
          CFI V10 load(1, XDATA, add(CFA_XSP16, literal(-8)))
          CFI V11 load(1, XDATA, add(CFA_XSP16, literal(-7)))
          CFI R7 load(1, XDATA, add(CFA_XSP16, literal(-6)))
          CFI ?RET_LOW load(1, XDATA, add(CFA_XSP16, literal(-5)))
          CFI ?RET_HIGH load(1, XDATA, add(CFA_XSP16, literal(-4)))
          CFI ?BRET_EXT load(1, XDATA, add(CFA_XSP16, literal(-3)))
          CFI DPL0 load(1, XDATA, add(CFA_XSP16, literal(-2)))
          CFI DPH0 load(1, XDATA, add(CFA_XSP16, literal(-1)))
          CFI CFA_SP SP+-2
          CFI CFA_XSP16 add(XSP16, 23)
          CFI Block cfiCond170 Using cfiCommon0
          CFI (cfiCond170) Function MT_AfIncomingMsg
          CFI (cfiCond170) Conditional ??CrossCallReturnLabel_24
          CFI (cfiCond170) R6 load(1, XDATA, add(CFA_XSP16, literal(-20)))
          CFI (cfiCond170) VB load(1, XDATA, add(CFA_XSP16, literal(-19)))
          CFI (cfiCond170) V0 load(1, XDATA, add(CFA_XSP16, literal(-18)))
          CFI (cfiCond170) V1 load(1, XDATA, add(CFA_XSP16, literal(-17)))
          CFI (cfiCond170) V2 load(1, XDATA, add(CFA_XSP16, literal(-16)))
          CFI (cfiCond170) V3 load(1, XDATA, add(CFA_XSP16, literal(-15)))
          CFI (cfiCond170) V4 load(1, XDATA, add(CFA_XSP16, literal(-14)))
          CFI (cfiCond170) V5 load(1, XDATA, add(CFA_XSP16, literal(-13)))
          CFI (cfiCond170) V6 load(1, XDATA, add(CFA_XSP16, literal(-12)))
          CFI (cfiCond170) V7 load(1, XDATA, add(CFA_XSP16, literal(-11)))
          CFI (cfiCond170) V8 load(1, XDATA, add(CFA_XSP16, literal(-10)))
          CFI (cfiCond170) V9 load(1, XDATA, add(CFA_XSP16, literal(-9)))
          CFI (cfiCond170) V10 load(1, XDATA, add(CFA_XSP16, literal(-8)))
          CFI (cfiCond170) V11 load(1, XDATA, add(CFA_XSP16, literal(-7)))
          CFI (cfiCond170) R7 load(1, XDATA, add(CFA_XSP16, literal(-6)))
          CFI (cfiCond170) ?RET_LOW load(1, XDATA, add(CFA_XSP16, literal(-5)))
          CFI (cfiCond170) ?RET_HIGH load(1, XDATA, add(CFA_XSP16, literal(-4)))
          CFI (cfiCond170) ?BRET_EXT load(1, XDATA, add(CFA_XSP16, literal(-3)))
          CFI (cfiCond170) DPL0 load(1, XDATA, add(CFA_XSP16, literal(-2)))
          CFI (cfiCond170) DPH0 load(1, XDATA, add(CFA_XSP16, literal(-1)))
          CFI (cfiCond170) CFA_SP SP+-2
          CFI (cfiCond170) CFA_XSP16 add(XSP16, 23)
          CFI Block cfiPicker171 Using cfiCommon1
          CFI (cfiPicker171) NoFunction
          CFI (cfiPicker171) Picker
        MOV       A,?V8
        ADD       A,#0x22
        LCALL     ?Subroutine47 & 0xFFFF
??CrossCallReturnLabel_78:
        MOV       ?V4,A
        INC       DPTR
        MOVX      A,@DPTR
        MOV       ?V5,A
        MOV       R0,#?V4
        RET
          CFI EndBlock cfiCond169
          CFI EndBlock cfiCond170
          CFI EndBlock cfiPicker171

        RSEG BANKED_CODE:HUGECODE:NOROOT(0)
?Subroutine47:
          CFI Block cfiCond172 Using cfiCommon0
          CFI Function MT_AfIncomingMsg
          CFI Conditional ??CrossCallReturnLabel_75
          CFI R6 load(1, XDATA, add(CFA_XSP16, literal(-20)))
          CFI VB load(1, XDATA, add(CFA_XSP16, literal(-19)))
          CFI V0 load(1, XDATA, add(CFA_XSP16, literal(-18)))
          CFI V1 load(1, XDATA, add(CFA_XSP16, literal(-17)))
          CFI V2 load(1, XDATA, add(CFA_XSP16, literal(-16)))
          CFI V3 load(1, XDATA, add(CFA_XSP16, literal(-15)))
          CFI V4 load(1, XDATA, add(CFA_XSP16, literal(-14)))
          CFI V5 load(1, XDATA, add(CFA_XSP16, literal(-13)))
          CFI V6 load(1, XDATA, add(CFA_XSP16, literal(-12)))
          CFI V7 load(1, XDATA, add(CFA_XSP16, literal(-11)))
          CFI V8 load(1, XDATA, add(CFA_XSP16, literal(-10)))
          CFI V9 load(1, XDATA, add(CFA_XSP16, literal(-9)))
          CFI V10 load(1, XDATA, add(CFA_XSP16, literal(-8)))
          CFI V11 load(1, XDATA, add(CFA_XSP16, literal(-7)))
          CFI R7 load(1, XDATA, add(CFA_XSP16, literal(-6)))
          CFI ?RET_LOW load(1, XDATA, add(CFA_XSP16, literal(-5)))
          CFI ?RET_HIGH load(1, XDATA, add(CFA_XSP16, literal(-4)))
          CFI ?BRET_EXT load(1, XDATA, add(CFA_XSP16, literal(-3)))
          CFI DPL0 load(1, XDATA, add(CFA_XSP16, literal(-2)))
          CFI DPH0 load(1, XDATA, add(CFA_XSP16, literal(-1)))
          CFI CFA_SP SP+-2
          CFI CFA_XSP16 add(XSP16, 23)
          CFI Block cfiCond173 Using cfiCommon0
          CFI (cfiCond173) Function MT_AfIncomingMsg
          CFI (cfiCond173) Conditional ??CrossCallReturnLabel_76
          CFI (cfiCond173) R6 load(1, XDATA, add(CFA_XSP16, literal(-20)))
          CFI (cfiCond173) VB load(1, XDATA, add(CFA_XSP16, literal(-19)))
          CFI (cfiCond173) V0 load(1, XDATA, add(CFA_XSP16, literal(-18)))
          CFI (cfiCond173) V1 load(1, XDATA, add(CFA_XSP16, literal(-17)))
          CFI (cfiCond173) V2 load(1, XDATA, add(CFA_XSP16, literal(-16)))
          CFI (cfiCond173) V3 load(1, XDATA, add(CFA_XSP16, literal(-15)))
          CFI (cfiCond173) V4 load(1, XDATA, add(CFA_XSP16, literal(-14)))
          CFI (cfiCond173) V5 load(1, XDATA, add(CFA_XSP16, literal(-13)))
          CFI (cfiCond173) V6 load(1, XDATA, add(CFA_XSP16, literal(-12)))
          CFI (cfiCond173) V7 load(1, XDATA, add(CFA_XSP16, literal(-11)))
          CFI (cfiCond173) V8 load(1, XDATA, add(CFA_XSP16, literal(-10)))
          CFI (cfiCond173) V9 load(1, XDATA, add(CFA_XSP16, literal(-9)))
          CFI (cfiCond173) V10 load(1, XDATA, add(CFA_XSP16, literal(-8)))
          CFI (cfiCond173) V11 load(1, XDATA, add(CFA_XSP16, literal(-7)))
          CFI (cfiCond173) R7 load(1, XDATA, add(CFA_XSP16, literal(-6)))
          CFI (cfiCond173) ?RET_LOW load(1, XDATA, add(CFA_XSP16, literal(-5)))
          CFI (cfiCond173) ?RET_HIGH load(1, XDATA, add(CFA_XSP16, literal(-4)))
          CFI (cfiCond173) ?BRET_EXT load(1, XDATA, add(CFA_XSP16, literal(-3)))
          CFI (cfiCond173) DPL0 load(1, XDATA, add(CFA_XSP16, literal(-2)))
          CFI (cfiCond173) DPH0 load(1, XDATA, add(CFA_XSP16, literal(-1)))
          CFI (cfiCond173) CFA_SP SP+-2
          CFI (cfiCond173) CFA_XSP16 add(XSP16, 23)
          CFI Block cfiCond174 Using cfiCommon0
          CFI (cfiCond174) Function MT_AfIncomingMsg
          CFI (cfiCond174) Conditional ??CrossCallReturnLabel_77
          CFI (cfiCond174) R6 load(1, XDATA, add(CFA_XSP16, literal(-20)))
          CFI (cfiCond174) VB load(1, XDATA, add(CFA_XSP16, literal(-19)))
          CFI (cfiCond174) V0 load(1, XDATA, add(CFA_XSP16, literal(-18)))
          CFI (cfiCond174) V1 load(1, XDATA, add(CFA_XSP16, literal(-17)))
          CFI (cfiCond174) V2 load(1, XDATA, add(CFA_XSP16, literal(-16)))
          CFI (cfiCond174) V3 load(1, XDATA, add(CFA_XSP16, literal(-15)))
          CFI (cfiCond174) V4 load(1, XDATA, add(CFA_XSP16, literal(-14)))
          CFI (cfiCond174) V5 load(1, XDATA, add(CFA_XSP16, literal(-13)))
          CFI (cfiCond174) V6 load(1, XDATA, add(CFA_XSP16, literal(-12)))
          CFI (cfiCond174) V7 load(1, XDATA, add(CFA_XSP16, literal(-11)))
          CFI (cfiCond174) V8 load(1, XDATA, add(CFA_XSP16, literal(-10)))
          CFI (cfiCond174) V9 load(1, XDATA, add(CFA_XSP16, literal(-9)))
          CFI (cfiCond174) V10 load(1, XDATA, add(CFA_XSP16, literal(-8)))
          CFI (cfiCond174) V11 load(1, XDATA, add(CFA_XSP16, literal(-7)))
          CFI (cfiCond174) R7 load(1, XDATA, add(CFA_XSP16, literal(-6)))
          CFI (cfiCond174) ?RET_LOW load(1, XDATA, add(CFA_XSP16, literal(-5)))
          CFI (cfiCond174) ?RET_HIGH load(1, XDATA, add(CFA_XSP16, literal(-4)))
          CFI (cfiCond174) ?BRET_EXT load(1, XDATA, add(CFA_XSP16, literal(-3)))
          CFI (cfiCond174) DPL0 load(1, XDATA, add(CFA_XSP16, literal(-2)))
          CFI (cfiCond174) DPH0 load(1, XDATA, add(CFA_XSP16, literal(-1)))
          CFI (cfiCond174) CFA_SP SP+-2
          CFI (cfiCond174) CFA_XSP16 add(XSP16, 23)
          CFI Block cfiCond175 Using cfiCommon0
          CFI (cfiCond175) Function MT_AfIncomingMsg
          CFI (cfiCond175) Conditional ??CrossCallReturnLabel_78, ??CrossCallReturnLabel_23
          CFI (cfiCond175) R6 load(1, XDATA, add(CFA_XSP16, literal(-20)))
          CFI (cfiCond175) VB load(1, XDATA, add(CFA_XSP16, literal(-19)))
          CFI (cfiCond175) V0 load(1, XDATA, add(CFA_XSP16, literal(-18)))
          CFI (cfiCond175) V1 load(1, XDATA, add(CFA_XSP16, literal(-17)))
          CFI (cfiCond175) V2 load(1, XDATA, add(CFA_XSP16, literal(-16)))
          CFI (cfiCond175) V3 load(1, XDATA, add(CFA_XSP16, literal(-15)))
          CFI (cfiCond175) V4 load(1, XDATA, add(CFA_XSP16, literal(-14)))
          CFI (cfiCond175) V5 load(1, XDATA, add(CFA_XSP16, literal(-13)))
          CFI (cfiCond175) V6 load(1, XDATA, add(CFA_XSP16, literal(-12)))
          CFI (cfiCond175) V7 load(1, XDATA, add(CFA_XSP16, literal(-11)))
          CFI (cfiCond175) V8 load(1, XDATA, add(CFA_XSP16, literal(-10)))
          CFI (cfiCond175) V9 load(1, XDATA, add(CFA_XSP16, literal(-9)))
          CFI (cfiCond175) V10 load(1, XDATA, add(CFA_XSP16, literal(-8)))
          CFI (cfiCond175) V11 load(1, XDATA, add(CFA_XSP16, literal(-7)))
          CFI (cfiCond175) R7 load(1, XDATA, add(CFA_XSP16, literal(-6)))
          CFI (cfiCond175) ?RET_LOW load(1, XDATA, add(CFA_XSP16, literal(-5)))
          CFI (cfiCond175) ?RET_HIGH load(1, XDATA, add(CFA_XSP16, literal(-4)))
          CFI (cfiCond175) ?BRET_EXT load(1, XDATA, add(CFA_XSP16, literal(-3)))
          CFI (cfiCond175) DPL0 load(1, XDATA, add(CFA_XSP16, literal(-2)))
          CFI (cfiCond175) DPH0 load(1, XDATA, add(CFA_XSP16, literal(-1)))
          CFI (cfiCond175) CFA_SP SP+-4
          CFI (cfiCond175) CFA_XSP16 add(XSP16, 23)
          CFI Block cfiCond176 Using cfiCommon0
          CFI (cfiCond176) Function MT_AfIncomingMsg
          CFI (cfiCond176) Conditional ??CrossCallReturnLabel_78, ??CrossCallReturnLabel_24
          CFI (cfiCond176) R6 load(1, XDATA, add(CFA_XSP16, literal(-20)))
          CFI (cfiCond176) VB load(1, XDATA, add(CFA_XSP16, literal(-19)))
          CFI (cfiCond176) V0 load(1, XDATA, add(CFA_XSP16, literal(-18)))
          CFI (cfiCond176) V1 load(1, XDATA, add(CFA_XSP16, literal(-17)))
          CFI (cfiCond176) V2 load(1, XDATA, add(CFA_XSP16, literal(-16)))
          CFI (cfiCond176) V3 load(1, XDATA, add(CFA_XSP16, literal(-15)))
          CFI (cfiCond176) V4 load(1, XDATA, add(CFA_XSP16, literal(-14)))
          CFI (cfiCond176) V5 load(1, XDATA, add(CFA_XSP16, literal(-13)))
          CFI (cfiCond176) V6 load(1, XDATA, add(CFA_XSP16, literal(-12)))
          CFI (cfiCond176) V7 load(1, XDATA, add(CFA_XSP16, literal(-11)))
          CFI (cfiCond176) V8 load(1, XDATA, add(CFA_XSP16, literal(-10)))
          CFI (cfiCond176) V9 load(1, XDATA, add(CFA_XSP16, literal(-9)))
          CFI (cfiCond176) V10 load(1, XDATA, add(CFA_XSP16, literal(-8)))
          CFI (cfiCond176) V11 load(1, XDATA, add(CFA_XSP16, literal(-7)))
          CFI (cfiCond176) R7 load(1, XDATA, add(CFA_XSP16, literal(-6)))
          CFI (cfiCond176) ?RET_LOW load(1, XDATA, add(CFA_XSP16, literal(-5)))
          CFI (cfiCond176) ?RET_HIGH load(1, XDATA, add(CFA_XSP16, literal(-4)))
          CFI (cfiCond176) ?BRET_EXT load(1, XDATA, add(CFA_XSP16, literal(-3)))
          CFI (cfiCond176) DPL0 load(1, XDATA, add(CFA_XSP16, literal(-2)))
          CFI (cfiCond176) DPH0 load(1, XDATA, add(CFA_XSP16, literal(-1)))
          CFI (cfiCond176) CFA_SP SP+-4
          CFI (cfiCond176) CFA_XSP16 add(XSP16, 23)
          CFI Block cfiPicker177 Using cfiCommon1
          CFI (cfiPicker177) NoFunction
          CFI (cfiPicker177) Picker
        MOV       DPL,A
        CLR       A
        ADDC      A,?V9
        MOV       DPH,A
        MOVX      A,@DPTR
        RET
          CFI EndBlock cfiCond172
          CFI EndBlock cfiCond173
          CFI EndBlock cfiCond174
          CFI EndBlock cfiCond175
          CFI EndBlock cfiCond176
          CFI EndBlock cfiPicker177

        RSEG BANKED_CODE:HUGECODE:NOROOT(0)
?Subroutine11:
          CFI Block cfiCond178 Using cfiCommon0
          CFI Function MT_AfExec
          CFI Conditional ??CrossCallReturnLabel_116
          CFI R6 load(1, XDATA, add(CFA_XSP16, literal(-9)))
          CFI VB load(1, XDATA, add(CFA_XSP16, literal(-8)))
          CFI V0 load(1, XDATA, add(CFA_XSP16, literal(-7)))
          CFI R7 load(1, XDATA, add(CFA_XSP16, literal(-6)))
          CFI ?RET_LOW load(1, XDATA, add(CFA_XSP16, literal(-5)))
          CFI ?RET_HIGH load(1, XDATA, add(CFA_XSP16, literal(-4)))
          CFI ?BRET_EXT load(1, XDATA, add(CFA_XSP16, literal(-3)))
          CFI DPL0 load(1, XDATA, add(CFA_XSP16, literal(-2)))
          CFI DPH0 load(1, XDATA, add(CFA_XSP16, literal(-1)))
          CFI CFA_SP SP+-2
          CFI CFA_XSP16 add(XSP16, 9)
          CFI Block cfiCond179 Using cfiCommon0
          CFI (cfiCond179) Function MT_AfIncomingMsg
          CFI (cfiCond179) Conditional ??CrossCallReturnLabel_117
          CFI (cfiCond179) R6 load(1, XDATA, add(CFA_XSP16, literal(-20)))
          CFI (cfiCond179) VB load(1, XDATA, add(CFA_XSP16, literal(-19)))
          CFI (cfiCond179) V0 load(1, XDATA, add(CFA_XSP16, literal(-18)))
          CFI (cfiCond179) V1 load(1, XDATA, add(CFA_XSP16, literal(-17)))
          CFI (cfiCond179) V2 load(1, XDATA, add(CFA_XSP16, literal(-16)))
          CFI (cfiCond179) V3 load(1, XDATA, add(CFA_XSP16, literal(-15)))
          CFI (cfiCond179) V4 load(1, XDATA, add(CFA_XSP16, literal(-14)))
          CFI (cfiCond179) V5 load(1, XDATA, add(CFA_XSP16, literal(-13)))
          CFI (cfiCond179) V6 load(1, XDATA, add(CFA_XSP16, literal(-12)))
          CFI (cfiCond179) V7 load(1, XDATA, add(CFA_XSP16, literal(-11)))
          CFI (cfiCond179) V8 load(1, XDATA, add(CFA_XSP16, literal(-10)))
          CFI (cfiCond179) V9 load(1, XDATA, add(CFA_XSP16, literal(-9)))
          CFI (cfiCond179) V10 load(1, XDATA, add(CFA_XSP16, literal(-8)))
          CFI (cfiCond179) V11 load(1, XDATA, add(CFA_XSP16, literal(-7)))
          CFI (cfiCond179) R7 load(1, XDATA, add(CFA_XSP16, literal(-6)))
          CFI (cfiCond179) ?RET_LOW load(1, XDATA, add(CFA_XSP16, literal(-5)))
          CFI (cfiCond179) ?RET_HIGH load(1, XDATA, add(CFA_XSP16, literal(-4)))
          CFI (cfiCond179) ?BRET_EXT load(1, XDATA, add(CFA_XSP16, literal(-3)))
          CFI (cfiCond179) DPL0 load(1, XDATA, add(CFA_XSP16, literal(-2)))
          CFI (cfiCond179) DPH0 load(1, XDATA, add(CFA_XSP16, literal(-1)))
          CFI (cfiCond179) CFA_SP SP+-2
          CFI (cfiCond179) CFA_XSP16 add(XSP16, 23)
          CFI Block cfiCond180 Using cfiCommon0
          CFI (cfiCond180) Function MT_AfDataRetrieve
          CFI (cfiCond180) Conditional ??CrossCallReturnLabel_118
          CFI (cfiCond180) R6 load(1, XDATA, add(CFA_XSP16, literal(-20)))
          CFI (cfiCond180) VB load(1, XDATA, add(CFA_XSP16, literal(-19)))
          CFI (cfiCond180) V0 load(1, XDATA, add(CFA_XSP16, literal(-18)))
          CFI (cfiCond180) V1 load(1, XDATA, add(CFA_XSP16, literal(-17)))
          CFI (cfiCond180) V2 load(1, XDATA, add(CFA_XSP16, literal(-16)))
          CFI (cfiCond180) V3 load(1, XDATA, add(CFA_XSP16, literal(-15)))
          CFI (cfiCond180) V4 load(1, XDATA, add(CFA_XSP16, literal(-14)))
          CFI (cfiCond180) V5 load(1, XDATA, add(CFA_XSP16, literal(-13)))
          CFI (cfiCond180) V6 load(1, XDATA, add(CFA_XSP16, literal(-12)))
          CFI (cfiCond180) V7 load(1, XDATA, add(CFA_XSP16, literal(-11)))
          CFI (cfiCond180) V8 load(1, XDATA, add(CFA_XSP16, literal(-10)))
          CFI (cfiCond180) V9 load(1, XDATA, add(CFA_XSP16, literal(-9)))
          CFI (cfiCond180) V10 load(1, XDATA, add(CFA_XSP16, literal(-8)))
          CFI (cfiCond180) V11 load(1, XDATA, add(CFA_XSP16, literal(-7)))
          CFI (cfiCond180) R7 load(1, XDATA, add(CFA_XSP16, literal(-6)))
          CFI (cfiCond180) ?RET_LOW load(1, XDATA, add(CFA_XSP16, literal(-5)))
          CFI (cfiCond180) ?RET_HIGH load(1, XDATA, add(CFA_XSP16, literal(-4)))
          CFI (cfiCond180) ?BRET_EXT load(1, XDATA, add(CFA_XSP16, literal(-3)))
          CFI (cfiCond180) DPL0 load(1, XDATA, add(CFA_XSP16, literal(-2)))
          CFI (cfiCond180) DPH0 load(1, XDATA, add(CFA_XSP16, literal(-1)))
          CFI (cfiCond180) CFA_SP SP+-2
          CFI (cfiCond180) CFA_XSP16 add(XSP16, 23)
          CFI Block cfiCond181 Using cfiCommon0
          CFI (cfiCond181) Function MT_AfDataRetrieve
          CFI (cfiCond181) Conditional ??CrossCallReturnLabel_119
          CFI (cfiCond181) R6 load(1, XDATA, add(CFA_XSP16, literal(-20)))
          CFI (cfiCond181) VB load(1, XDATA, add(CFA_XSP16, literal(-19)))
          CFI (cfiCond181) V0 load(1, XDATA, add(CFA_XSP16, literal(-18)))
          CFI (cfiCond181) V1 load(1, XDATA, add(CFA_XSP16, literal(-17)))
          CFI (cfiCond181) V2 load(1, XDATA, add(CFA_XSP16, literal(-16)))
          CFI (cfiCond181) V3 load(1, XDATA, add(CFA_XSP16, literal(-15)))
          CFI (cfiCond181) V4 load(1, XDATA, add(CFA_XSP16, literal(-14)))
          CFI (cfiCond181) V5 load(1, XDATA, add(CFA_XSP16, literal(-13)))
          CFI (cfiCond181) V6 load(1, XDATA, add(CFA_XSP16, literal(-12)))
          CFI (cfiCond181) V7 load(1, XDATA, add(CFA_XSP16, literal(-11)))
          CFI (cfiCond181) V8 load(1, XDATA, add(CFA_XSP16, literal(-10)))
          CFI (cfiCond181) V9 load(1, XDATA, add(CFA_XSP16, literal(-9)))
          CFI (cfiCond181) V10 load(1, XDATA, add(CFA_XSP16, literal(-8)))
          CFI (cfiCond181) V11 load(1, XDATA, add(CFA_XSP16, literal(-7)))
          CFI (cfiCond181) R7 load(1, XDATA, add(CFA_XSP16, literal(-6)))
          CFI (cfiCond181) ?RET_LOW load(1, XDATA, add(CFA_XSP16, literal(-5)))
          CFI (cfiCond181) ?RET_HIGH load(1, XDATA, add(CFA_XSP16, literal(-4)))
          CFI (cfiCond181) ?BRET_EXT load(1, XDATA, add(CFA_XSP16, literal(-3)))
          CFI (cfiCond181) DPL0 load(1, XDATA, add(CFA_XSP16, literal(-2)))
          CFI (cfiCond181) DPH0 load(1, XDATA, add(CFA_XSP16, literal(-1)))
          CFI (cfiCond181) CFA_SP SP+-2
          CFI (cfiCond181) CFA_XSP16 add(XSP16, 23)
          CFI Block cfiPicker182 Using cfiCommon1
          CFI (cfiPicker182) NoFunction
          CFI (cfiPicker182) Picker
        MOV       DPTR,#pMtAfInMsgList
          CFI EndBlock cfiCond178
          CFI EndBlock cfiCond179
          CFI EndBlock cfiCond180
          CFI EndBlock cfiCond181
          CFI EndBlock cfiPicker182
        REQUIRE ??Subroutine59_0
        ; // Fall through to label ??Subroutine59_0

        RSEG BANKED_CODE:HUGECODE:NOROOT(0)
??Subroutine59_0:
          CFI Block cfiCond183 Using cfiCommon0
          CFI Function MT_AfExec
          CFI Conditional ??CrossCallReturnLabel_114
          CFI R6 load(1, XDATA, add(CFA_XSP16, literal(-9)))
          CFI VB load(1, XDATA, add(CFA_XSP16, literal(-8)))
          CFI V0 load(1, XDATA, add(CFA_XSP16, literal(-7)))
          CFI R7 load(1, XDATA, add(CFA_XSP16, literal(-6)))
          CFI ?RET_LOW load(1, XDATA, add(CFA_XSP16, literal(-5)))
          CFI ?RET_HIGH load(1, XDATA, add(CFA_XSP16, literal(-4)))
          CFI ?BRET_EXT load(1, XDATA, add(CFA_XSP16, literal(-3)))
          CFI DPL0 load(1, XDATA, add(CFA_XSP16, literal(-2)))
          CFI DPH0 load(1, XDATA, add(CFA_XSP16, literal(-1)))
          CFI CFA_SP SP+-2
          CFI CFA_XSP16 add(XSP16, 9)
          CFI Block cfiCond184 Using cfiCommon0
          CFI (cfiCond184) Function MT_AfExec
          CFI (cfiCond184) Conditional ??CrossCallReturnLabel_115
          CFI (cfiCond184) R6 load(1, XDATA, add(CFA_XSP16, literal(-9)))
          CFI (cfiCond184) VB load(1, XDATA, add(CFA_XSP16, literal(-8)))
          CFI (cfiCond184) V0 load(1, XDATA, add(CFA_XSP16, literal(-7)))
          CFI (cfiCond184) R7 load(1, XDATA, add(CFA_XSP16, literal(-6)))
          CFI (cfiCond184) ?RET_LOW load(1, XDATA, add(CFA_XSP16, literal(-5)))
          CFI (cfiCond184) ?RET_HIGH load(1, XDATA, add(CFA_XSP16, literal(-4)))
          CFI (cfiCond184) ?BRET_EXT load(1, XDATA, add(CFA_XSP16, literal(-3)))
          CFI (cfiCond184) DPL0 load(1, XDATA, add(CFA_XSP16, literal(-2)))
          CFI (cfiCond184) DPH0 load(1, XDATA, add(CFA_XSP16, literal(-1)))
          CFI (cfiCond184) CFA_SP SP+-2
          CFI (cfiCond184) CFA_XSP16 add(XSP16, 9)
          CFI Block cfiCond185 Using cfiCommon0
          CFI (cfiCond185) Function MT_AfExec
          CFI (cfiCond185) Conditional ??CrossCallReturnLabel_116
          CFI (cfiCond185) R6 load(1, XDATA, add(CFA_XSP16, literal(-9)))
          CFI (cfiCond185) VB load(1, XDATA, add(CFA_XSP16, literal(-8)))
          CFI (cfiCond185) V0 load(1, XDATA, add(CFA_XSP16, literal(-7)))
          CFI (cfiCond185) R7 load(1, XDATA, add(CFA_XSP16, literal(-6)))
          CFI (cfiCond185) ?RET_LOW load(1, XDATA, add(CFA_XSP16, literal(-5)))
          CFI (cfiCond185) ?RET_HIGH load(1, XDATA, add(CFA_XSP16, literal(-4)))
          CFI (cfiCond185) ?BRET_EXT load(1, XDATA, add(CFA_XSP16, literal(-3)))
          CFI (cfiCond185) DPL0 load(1, XDATA, add(CFA_XSP16, literal(-2)))
          CFI (cfiCond185) DPH0 load(1, XDATA, add(CFA_XSP16, literal(-1)))
          CFI (cfiCond185) CFA_SP SP+-2
          CFI (cfiCond185) CFA_XSP16 add(XSP16, 9)
          CFI Block cfiCond186 Using cfiCommon0
          CFI (cfiCond186) Function MT_AfIncomingMsg
          CFI (cfiCond186) Conditional ??CrossCallReturnLabel_117
          CFI (cfiCond186) R6 load(1, XDATA, add(CFA_XSP16, literal(-20)))
          CFI (cfiCond186) VB load(1, XDATA, add(CFA_XSP16, literal(-19)))
          CFI (cfiCond186) V0 load(1, XDATA, add(CFA_XSP16, literal(-18)))
          CFI (cfiCond186) V1 load(1, XDATA, add(CFA_XSP16, literal(-17)))
          CFI (cfiCond186) V2 load(1, XDATA, add(CFA_XSP16, literal(-16)))
          CFI (cfiCond186) V3 load(1, XDATA, add(CFA_XSP16, literal(-15)))
          CFI (cfiCond186) V4 load(1, XDATA, add(CFA_XSP16, literal(-14)))
          CFI (cfiCond186) V5 load(1, XDATA, add(CFA_XSP16, literal(-13)))
          CFI (cfiCond186) V6 load(1, XDATA, add(CFA_XSP16, literal(-12)))
          CFI (cfiCond186) V7 load(1, XDATA, add(CFA_XSP16, literal(-11)))
          CFI (cfiCond186) V8 load(1, XDATA, add(CFA_XSP16, literal(-10)))
          CFI (cfiCond186) V9 load(1, XDATA, add(CFA_XSP16, literal(-9)))
          CFI (cfiCond186) V10 load(1, XDATA, add(CFA_XSP16, literal(-8)))
          CFI (cfiCond186) V11 load(1, XDATA, add(CFA_XSP16, literal(-7)))
          CFI (cfiCond186) R7 load(1, XDATA, add(CFA_XSP16, literal(-6)))
          CFI (cfiCond186) ?RET_LOW load(1, XDATA, add(CFA_XSP16, literal(-5)))
          CFI (cfiCond186) ?RET_HIGH load(1, XDATA, add(CFA_XSP16, literal(-4)))
          CFI (cfiCond186) ?BRET_EXT load(1, XDATA, add(CFA_XSP16, literal(-3)))
          CFI (cfiCond186) DPL0 load(1, XDATA, add(CFA_XSP16, literal(-2)))
          CFI (cfiCond186) DPH0 load(1, XDATA, add(CFA_XSP16, literal(-1)))
          CFI (cfiCond186) CFA_SP SP+-2
          CFI (cfiCond186) CFA_XSP16 add(XSP16, 23)
          CFI Block cfiCond187 Using cfiCommon0
          CFI (cfiCond187) Function MT_AfDataRetrieve
          CFI (cfiCond187) Conditional ??CrossCallReturnLabel_118
          CFI (cfiCond187) R6 load(1, XDATA, add(CFA_XSP16, literal(-20)))
          CFI (cfiCond187) VB load(1, XDATA, add(CFA_XSP16, literal(-19)))
          CFI (cfiCond187) V0 load(1, XDATA, add(CFA_XSP16, literal(-18)))
          CFI (cfiCond187) V1 load(1, XDATA, add(CFA_XSP16, literal(-17)))
          CFI (cfiCond187) V2 load(1, XDATA, add(CFA_XSP16, literal(-16)))
          CFI (cfiCond187) V3 load(1, XDATA, add(CFA_XSP16, literal(-15)))
          CFI (cfiCond187) V4 load(1, XDATA, add(CFA_XSP16, literal(-14)))
          CFI (cfiCond187) V5 load(1, XDATA, add(CFA_XSP16, literal(-13)))
          CFI (cfiCond187) V6 load(1, XDATA, add(CFA_XSP16, literal(-12)))
          CFI (cfiCond187) V7 load(1, XDATA, add(CFA_XSP16, literal(-11)))
          CFI (cfiCond187) V8 load(1, XDATA, add(CFA_XSP16, literal(-10)))
          CFI (cfiCond187) V9 load(1, XDATA, add(CFA_XSP16, literal(-9)))
          CFI (cfiCond187) V10 load(1, XDATA, add(CFA_XSP16, literal(-8)))
          CFI (cfiCond187) V11 load(1, XDATA, add(CFA_XSP16, literal(-7)))
          CFI (cfiCond187) R7 load(1, XDATA, add(CFA_XSP16, literal(-6)))
          CFI (cfiCond187) ?RET_LOW load(1, XDATA, add(CFA_XSP16, literal(-5)))
          CFI (cfiCond187) ?RET_HIGH load(1, XDATA, add(CFA_XSP16, literal(-4)))
          CFI (cfiCond187) ?BRET_EXT load(1, XDATA, add(CFA_XSP16, literal(-3)))
          CFI (cfiCond187) DPL0 load(1, XDATA, add(CFA_XSP16, literal(-2)))
          CFI (cfiCond187) DPH0 load(1, XDATA, add(CFA_XSP16, literal(-1)))
          CFI (cfiCond187) CFA_SP SP+-2
          CFI (cfiCond187) CFA_XSP16 add(XSP16, 23)
          CFI Block cfiCond188 Using cfiCommon0
          CFI (cfiCond188) Function MT_AfDataRetrieve
          CFI (cfiCond188) Conditional ??CrossCallReturnLabel_119
          CFI (cfiCond188) R6 load(1, XDATA, add(CFA_XSP16, literal(-20)))
          CFI (cfiCond188) VB load(1, XDATA, add(CFA_XSP16, literal(-19)))
          CFI (cfiCond188) V0 load(1, XDATA, add(CFA_XSP16, literal(-18)))
          CFI (cfiCond188) V1 load(1, XDATA, add(CFA_XSP16, literal(-17)))
          CFI (cfiCond188) V2 load(1, XDATA, add(CFA_XSP16, literal(-16)))
          CFI (cfiCond188) V3 load(1, XDATA, add(CFA_XSP16, literal(-15)))
          CFI (cfiCond188) V4 load(1, XDATA, add(CFA_XSP16, literal(-14)))
          CFI (cfiCond188) V5 load(1, XDATA, add(CFA_XSP16, literal(-13)))
          CFI (cfiCond188) V6 load(1, XDATA, add(CFA_XSP16, literal(-12)))
          CFI (cfiCond188) V7 load(1, XDATA, add(CFA_XSP16, literal(-11)))
          CFI (cfiCond188) V8 load(1, XDATA, add(CFA_XSP16, literal(-10)))
          CFI (cfiCond188) V9 load(1, XDATA, add(CFA_XSP16, literal(-9)))
          CFI (cfiCond188) V10 load(1, XDATA, add(CFA_XSP16, literal(-8)))
          CFI (cfiCond188) V11 load(1, XDATA, add(CFA_XSP16, literal(-7)))
          CFI (cfiCond188) R7 load(1, XDATA, add(CFA_XSP16, literal(-6)))
          CFI (cfiCond188) ?RET_LOW load(1, XDATA, add(CFA_XSP16, literal(-5)))
          CFI (cfiCond188) ?RET_HIGH load(1, XDATA, add(CFA_XSP16, literal(-4)))
          CFI (cfiCond188) ?BRET_EXT load(1, XDATA, add(CFA_XSP16, literal(-3)))
          CFI (cfiCond188) DPL0 load(1, XDATA, add(CFA_XSP16, literal(-2)))
          CFI (cfiCond188) DPH0 load(1, XDATA, add(CFA_XSP16, literal(-1)))
          CFI (cfiCond188) CFA_SP SP+-2
          CFI (cfiCond188) CFA_XSP16 add(XSP16, 23)
          CFI Block cfiPicker189 Using cfiCommon1
          CFI (cfiPicker189) NoFunction
          CFI (cfiPicker189) Picker
        LCALL     ?Subroutine50 & 0xFFFF
??CrossCallReturnLabel_143:
        MOV       R1,A
        RET
          CFI EndBlock cfiCond183
          CFI EndBlock cfiCond184
          CFI EndBlock cfiCond185
          CFI EndBlock cfiCond186
          CFI EndBlock cfiCond187
          CFI EndBlock cfiCond188
          CFI EndBlock cfiPicker189

        RSEG BANKED_CODE:HUGECODE:NOROOT(0)
?Subroutine50:
          CFI Block cfiCond190 Using cfiCommon0
          CFI Function MT_AfDataRequest
          CFI Conditional ??CrossCallReturnLabel_142, ??CrossCallReturnLabel_84
          CFI R6 load(1, XDATA, add(CFA_XSP16, literal(-20)))
          CFI VB load(1, XDATA, add(CFA_XSP16, literal(-19)))
          CFI V0 load(1, XDATA, add(CFA_XSP16, literal(-18)))
          CFI V1 load(1, XDATA, add(CFA_XSP16, literal(-17)))
          CFI V2 load(1, XDATA, add(CFA_XSP16, literal(-16)))
          CFI V3 load(1, XDATA, add(CFA_XSP16, literal(-15)))
          CFI V4 load(1, XDATA, add(CFA_XSP16, literal(-14)))
          CFI V5 load(1, XDATA, add(CFA_XSP16, literal(-13)))
          CFI V6 load(1, XDATA, add(CFA_XSP16, literal(-12)))
          CFI V7 load(1, XDATA, add(CFA_XSP16, literal(-11)))
          CFI V8 load(1, XDATA, add(CFA_XSP16, literal(-10)))
          CFI V9 load(1, XDATA, add(CFA_XSP16, literal(-9)))
          CFI V10 load(1, XDATA, add(CFA_XSP16, literal(-8)))
          CFI V11 load(1, XDATA, add(CFA_XSP16, literal(-7)))
          CFI R7 load(1, XDATA, add(CFA_XSP16, literal(-6)))
          CFI ?RET_LOW load(1, XDATA, add(CFA_XSP16, literal(-5)))
          CFI ?RET_HIGH load(1, XDATA, add(CFA_XSP16, literal(-4)))
          CFI ?BRET_EXT load(1, XDATA, add(CFA_XSP16, literal(-3)))
          CFI DPL0 load(1, XDATA, add(CFA_XSP16, literal(-2)))
          CFI DPH0 load(1, XDATA, add(CFA_XSP16, literal(-1)))
          CFI CFA_SP SP+-4
          CFI CFA_XSP16 add(XSP16, 35)
          CFI Block cfiCond191 Using cfiCommon0
          CFI (cfiCond191) Function MT_AfDataRequest
          CFI (cfiCond191) Conditional ??CrossCallReturnLabel_142, ??CrossCallReturnLabel_85
          CFI (cfiCond191) R6 load(1, XDATA, add(CFA_XSP16, literal(-20)))
          CFI (cfiCond191) VB load(1, XDATA, add(CFA_XSP16, literal(-19)))
          CFI (cfiCond191) V0 load(1, XDATA, add(CFA_XSP16, literal(-18)))
          CFI (cfiCond191) V1 load(1, XDATA, add(CFA_XSP16, literal(-17)))
          CFI (cfiCond191) V2 load(1, XDATA, add(CFA_XSP16, literal(-16)))
          CFI (cfiCond191) V3 load(1, XDATA, add(CFA_XSP16, literal(-15)))
          CFI (cfiCond191) V4 load(1, XDATA, add(CFA_XSP16, literal(-14)))
          CFI (cfiCond191) V5 load(1, XDATA, add(CFA_XSP16, literal(-13)))
          CFI (cfiCond191) V6 load(1, XDATA, add(CFA_XSP16, literal(-12)))
          CFI (cfiCond191) V7 load(1, XDATA, add(CFA_XSP16, literal(-11)))
          CFI (cfiCond191) V8 load(1, XDATA, add(CFA_XSP16, literal(-10)))
          CFI (cfiCond191) V9 load(1, XDATA, add(CFA_XSP16, literal(-9)))
          CFI (cfiCond191) V10 load(1, XDATA, add(CFA_XSP16, literal(-8)))
          CFI (cfiCond191) V11 load(1, XDATA, add(CFA_XSP16, literal(-7)))
          CFI (cfiCond191) R7 load(1, XDATA, add(CFA_XSP16, literal(-6)))
          CFI (cfiCond191) ?RET_LOW load(1, XDATA, add(CFA_XSP16, literal(-5)))
          CFI (cfiCond191) ?RET_HIGH load(1, XDATA, add(CFA_XSP16, literal(-4)))
          CFI (cfiCond191) ?BRET_EXT load(1, XDATA, add(CFA_XSP16, literal(-3)))
          CFI (cfiCond191) DPL0 load(1, XDATA, add(CFA_XSP16, literal(-2)))
          CFI (cfiCond191) DPH0 load(1, XDATA, add(CFA_XSP16, literal(-1)))
          CFI (cfiCond191) CFA_SP SP+-4
          CFI (cfiCond191) CFA_XSP16 add(XSP16, 35)
          CFI Block cfiCond192 Using cfiCommon0
          CFI (cfiCond192) Function MT_AfDataRequest
          CFI (cfiCond192) Conditional ??CrossCallReturnLabel_142, ??CrossCallReturnLabel_86
          CFI (cfiCond192) R6 load(1, XDATA, add(CFA_XSP16, literal(-20)))
          CFI (cfiCond192) VB load(1, XDATA, add(CFA_XSP16, literal(-19)))
          CFI (cfiCond192) V0 load(1, XDATA, add(CFA_XSP16, literal(-18)))
          CFI (cfiCond192) V1 load(1, XDATA, add(CFA_XSP16, literal(-17)))
          CFI (cfiCond192) V2 load(1, XDATA, add(CFA_XSP16, literal(-16)))
          CFI (cfiCond192) V3 load(1, XDATA, add(CFA_XSP16, literal(-15)))
          CFI (cfiCond192) V4 load(1, XDATA, add(CFA_XSP16, literal(-14)))
          CFI (cfiCond192) V5 load(1, XDATA, add(CFA_XSP16, literal(-13)))
          CFI (cfiCond192) V6 load(1, XDATA, add(CFA_XSP16, literal(-12)))
          CFI (cfiCond192) V7 load(1, XDATA, add(CFA_XSP16, literal(-11)))
          CFI (cfiCond192) V8 load(1, XDATA, add(CFA_XSP16, literal(-10)))
          CFI (cfiCond192) V9 load(1, XDATA, add(CFA_XSP16, literal(-9)))
          CFI (cfiCond192) V10 load(1, XDATA, add(CFA_XSP16, literal(-8)))
          CFI (cfiCond192) V11 load(1, XDATA, add(CFA_XSP16, literal(-7)))
          CFI (cfiCond192) R7 load(1, XDATA, add(CFA_XSP16, literal(-6)))
          CFI (cfiCond192) ?RET_LOW load(1, XDATA, add(CFA_XSP16, literal(-5)))
          CFI (cfiCond192) ?RET_HIGH load(1, XDATA, add(CFA_XSP16, literal(-4)))
          CFI (cfiCond192) ?BRET_EXT load(1, XDATA, add(CFA_XSP16, literal(-3)))
          CFI (cfiCond192) DPL0 load(1, XDATA, add(CFA_XSP16, literal(-2)))
          CFI (cfiCond192) DPH0 load(1, XDATA, add(CFA_XSP16, literal(-1)))
          CFI (cfiCond192) CFA_SP SP+-4
          CFI (cfiCond192) CFA_XSP16 add(XSP16, 35)
          CFI Block cfiCond193 Using cfiCommon0
          CFI (cfiCond193) Function MT_AfDataRequest
          CFI (cfiCond193) Conditional ??CrossCallReturnLabel_142, ??CrossCallReturnLabel_87
          CFI (cfiCond193) R6 load(1, XDATA, add(CFA_XSP16, literal(-20)))
          CFI (cfiCond193) VB load(1, XDATA, add(CFA_XSP16, literal(-19)))
          CFI (cfiCond193) V0 load(1, XDATA, add(CFA_XSP16, literal(-18)))
          CFI (cfiCond193) V1 load(1, XDATA, add(CFA_XSP16, literal(-17)))
          CFI (cfiCond193) V2 load(1, XDATA, add(CFA_XSP16, literal(-16)))
          CFI (cfiCond193) V3 load(1, XDATA, add(CFA_XSP16, literal(-15)))
          CFI (cfiCond193) V4 load(1, XDATA, add(CFA_XSP16, literal(-14)))
          CFI (cfiCond193) V5 load(1, XDATA, add(CFA_XSP16, literal(-13)))
          CFI (cfiCond193) V6 load(1, XDATA, add(CFA_XSP16, literal(-12)))
          CFI (cfiCond193) V7 load(1, XDATA, add(CFA_XSP16, literal(-11)))
          CFI (cfiCond193) V8 load(1, XDATA, add(CFA_XSP16, literal(-10)))
          CFI (cfiCond193) V9 load(1, XDATA, add(CFA_XSP16, literal(-9)))
          CFI (cfiCond193) V10 load(1, XDATA, add(CFA_XSP16, literal(-8)))
          CFI (cfiCond193) V11 load(1, XDATA, add(CFA_XSP16, literal(-7)))
          CFI (cfiCond193) R7 load(1, XDATA, add(CFA_XSP16, literal(-6)))
          CFI (cfiCond193) ?RET_LOW load(1, XDATA, add(CFA_XSP16, literal(-5)))
          CFI (cfiCond193) ?RET_HIGH load(1, XDATA, add(CFA_XSP16, literal(-4)))
          CFI (cfiCond193) ?BRET_EXT load(1, XDATA, add(CFA_XSP16, literal(-3)))
          CFI (cfiCond193) DPL0 load(1, XDATA, add(CFA_XSP16, literal(-2)))
          CFI (cfiCond193) DPH0 load(1, XDATA, add(CFA_XSP16, literal(-1)))
          CFI (cfiCond193) CFA_SP SP+-4
          CFI (cfiCond193) CFA_XSP16 add(XSP16, 35)
          CFI Block cfiCond194 Using cfiCommon0
          CFI (cfiCond194) Function MT_AfDataRequest
          CFI (cfiCond194) Conditional ??CrossCallReturnLabel_142, ??CrossCallReturnLabel_89
          CFI (cfiCond194) R6 load(1, XDATA, add(CFA_XSP16, literal(-20)))
          CFI (cfiCond194) VB load(1, XDATA, add(CFA_XSP16, literal(-19)))
          CFI (cfiCond194) V0 load(1, XDATA, add(CFA_XSP16, literal(-18)))
          CFI (cfiCond194) V1 load(1, XDATA, add(CFA_XSP16, literal(-17)))
          CFI (cfiCond194) V2 load(1, XDATA, add(CFA_XSP16, literal(-16)))
          CFI (cfiCond194) V3 load(1, XDATA, add(CFA_XSP16, literal(-15)))
          CFI (cfiCond194) V4 load(1, XDATA, add(CFA_XSP16, literal(-14)))
          CFI (cfiCond194) V5 load(1, XDATA, add(CFA_XSP16, literal(-13)))
          CFI (cfiCond194) V6 load(1, XDATA, add(CFA_XSP16, literal(-12)))
          CFI (cfiCond194) V7 load(1, XDATA, add(CFA_XSP16, literal(-11)))
          CFI (cfiCond194) V8 load(1, XDATA, add(CFA_XSP16, literal(-10)))
          CFI (cfiCond194) V9 load(1, XDATA, add(CFA_XSP16, literal(-9)))
          CFI (cfiCond194) V10 load(1, XDATA, add(CFA_XSP16, literal(-8)))
          CFI (cfiCond194) V11 load(1, XDATA, add(CFA_XSP16, literal(-7)))
          CFI (cfiCond194) R7 load(1, XDATA, add(CFA_XSP16, literal(-6)))
          CFI (cfiCond194) ?RET_LOW load(1, XDATA, add(CFA_XSP16, literal(-5)))
          CFI (cfiCond194) ?RET_HIGH load(1, XDATA, add(CFA_XSP16, literal(-4)))
          CFI (cfiCond194) ?BRET_EXT load(1, XDATA, add(CFA_XSP16, literal(-3)))
          CFI (cfiCond194) DPL0 load(1, XDATA, add(CFA_XSP16, literal(-2)))
          CFI (cfiCond194) DPH0 load(1, XDATA, add(CFA_XSP16, literal(-1)))
          CFI (cfiCond194) CFA_SP SP+-4
          CFI (cfiCond194) CFA_XSP16 add(XSP16, 35)
          CFI Block cfiCond195 Using cfiCommon0
          CFI (cfiCond195) Function MT_AfDataRequest
          CFI (cfiCond195) Conditional ??CrossCallReturnLabel_142, ??CrossCallReturnLabel_90
          CFI (cfiCond195) R6 load(1, XDATA, add(CFA_XSP16, literal(-20)))
          CFI (cfiCond195) VB load(1, XDATA, add(CFA_XSP16, literal(-19)))
          CFI (cfiCond195) V0 load(1, XDATA, add(CFA_XSP16, literal(-18)))
          CFI (cfiCond195) V1 load(1, XDATA, add(CFA_XSP16, literal(-17)))
          CFI (cfiCond195) V2 load(1, XDATA, add(CFA_XSP16, literal(-16)))
          CFI (cfiCond195) V3 load(1, XDATA, add(CFA_XSP16, literal(-15)))
          CFI (cfiCond195) V4 load(1, XDATA, add(CFA_XSP16, literal(-14)))
          CFI (cfiCond195) V5 load(1, XDATA, add(CFA_XSP16, literal(-13)))
          CFI (cfiCond195) V6 load(1, XDATA, add(CFA_XSP16, literal(-12)))
          CFI (cfiCond195) V7 load(1, XDATA, add(CFA_XSP16, literal(-11)))
          CFI (cfiCond195) V8 load(1, XDATA, add(CFA_XSP16, literal(-10)))
          CFI (cfiCond195) V9 load(1, XDATA, add(CFA_XSP16, literal(-9)))
          CFI (cfiCond195) V10 load(1, XDATA, add(CFA_XSP16, literal(-8)))
          CFI (cfiCond195) V11 load(1, XDATA, add(CFA_XSP16, literal(-7)))
          CFI (cfiCond195) R7 load(1, XDATA, add(CFA_XSP16, literal(-6)))
          CFI (cfiCond195) ?RET_LOW load(1, XDATA, add(CFA_XSP16, literal(-5)))
          CFI (cfiCond195) ?RET_HIGH load(1, XDATA, add(CFA_XSP16, literal(-4)))
          CFI (cfiCond195) ?BRET_EXT load(1, XDATA, add(CFA_XSP16, literal(-3)))
          CFI (cfiCond195) DPL0 load(1, XDATA, add(CFA_XSP16, literal(-2)))
          CFI (cfiCond195) DPH0 load(1, XDATA, add(CFA_XSP16, literal(-1)))
          CFI (cfiCond195) CFA_SP SP+-5
          CFI (cfiCond195) CFA_XSP16 add(XSP16, 35)
          CFI Block cfiCond196 Using cfiCommon0
          CFI (cfiCond196) Function MT_AfIncomingMsg
          CFI (cfiCond196) Conditional ??CrossCallReturnLabel_142, ??CrossCallReturnLabel_88
          CFI (cfiCond196) R6 load(1, XDATA, add(CFA_XSP16, literal(-20)))
          CFI (cfiCond196) VB load(1, XDATA, add(CFA_XSP16, literal(-19)))
          CFI (cfiCond196) V0 load(1, XDATA, add(CFA_XSP16, literal(-18)))
          CFI (cfiCond196) V1 load(1, XDATA, add(CFA_XSP16, literal(-17)))
          CFI (cfiCond196) V2 load(1, XDATA, add(CFA_XSP16, literal(-16)))
          CFI (cfiCond196) V3 load(1, XDATA, add(CFA_XSP16, literal(-15)))
          CFI (cfiCond196) V4 load(1, XDATA, add(CFA_XSP16, literal(-14)))
          CFI (cfiCond196) V5 load(1, XDATA, add(CFA_XSP16, literal(-13)))
          CFI (cfiCond196) V6 load(1, XDATA, add(CFA_XSP16, literal(-12)))
          CFI (cfiCond196) V7 load(1, XDATA, add(CFA_XSP16, literal(-11)))
          CFI (cfiCond196) V8 load(1, XDATA, add(CFA_XSP16, literal(-10)))
          CFI (cfiCond196) V9 load(1, XDATA, add(CFA_XSP16, literal(-9)))
          CFI (cfiCond196) V10 load(1, XDATA, add(CFA_XSP16, literal(-8)))
          CFI (cfiCond196) V11 load(1, XDATA, add(CFA_XSP16, literal(-7)))
          CFI (cfiCond196) R7 load(1, XDATA, add(CFA_XSP16, literal(-6)))
          CFI (cfiCond196) ?RET_LOW load(1, XDATA, add(CFA_XSP16, literal(-5)))
          CFI (cfiCond196) ?RET_HIGH load(1, XDATA, add(CFA_XSP16, literal(-4)))
          CFI (cfiCond196) ?BRET_EXT load(1, XDATA, add(CFA_XSP16, literal(-3)))
          CFI (cfiCond196) DPL0 load(1, XDATA, add(CFA_XSP16, literal(-2)))
          CFI (cfiCond196) DPH0 load(1, XDATA, add(CFA_XSP16, literal(-1)))
          CFI (cfiCond196) CFA_SP SP+-5
          CFI (cfiCond196) CFA_XSP16 add(XSP16, 23)
          CFI Block cfiCond197 Using cfiCommon0
          CFI (cfiCond197) Function MT_AfExec
          CFI (cfiCond197) Conditional ??CrossCallReturnLabel_141, ??CrossCallReturnLabel_16
          CFI (cfiCond197) R6 load(1, XDATA, add(CFA_XSP16, literal(-9)))
          CFI (cfiCond197) VB load(1, XDATA, add(CFA_XSP16, literal(-8)))
          CFI (cfiCond197) V0 load(1, XDATA, add(CFA_XSP16, literal(-7)))
          CFI (cfiCond197) R7 load(1, XDATA, add(CFA_XSP16, literal(-6)))
          CFI (cfiCond197) ?RET_LOW load(1, XDATA, add(CFA_XSP16, literal(-5)))
          CFI (cfiCond197) ?RET_HIGH load(1, XDATA, add(CFA_XSP16, literal(-4)))
          CFI (cfiCond197) ?BRET_EXT load(1, XDATA, add(CFA_XSP16, literal(-3)))
          CFI (cfiCond197) DPL0 load(1, XDATA, add(CFA_XSP16, literal(-2)))
          CFI (cfiCond197) DPH0 load(1, XDATA, add(CFA_XSP16, literal(-1)))
          CFI (cfiCond197) CFA_SP SP+-4
          CFI (cfiCond197) CFA_XSP16 add(XSP16, 9)
          CFI Block cfiCond198 Using cfiCommon0
          CFI (cfiCond198) Function MT_AfDataRequest
          CFI (cfiCond198) Conditional ??CrossCallReturnLabel_141, ??CrossCallReturnLabel_15
          CFI (cfiCond198) R6 load(1, XDATA, add(CFA_XSP16, literal(-20)))
          CFI (cfiCond198) VB load(1, XDATA, add(CFA_XSP16, literal(-19)))
          CFI (cfiCond198) V0 load(1, XDATA, add(CFA_XSP16, literal(-18)))
          CFI (cfiCond198) V1 load(1, XDATA, add(CFA_XSP16, literal(-17)))
          CFI (cfiCond198) V2 load(1, XDATA, add(CFA_XSP16, literal(-16)))
          CFI (cfiCond198) V3 load(1, XDATA, add(CFA_XSP16, literal(-15)))
          CFI (cfiCond198) V4 load(1, XDATA, add(CFA_XSP16, literal(-14)))
          CFI (cfiCond198) V5 load(1, XDATA, add(CFA_XSP16, literal(-13)))
          CFI (cfiCond198) V6 load(1, XDATA, add(CFA_XSP16, literal(-12)))
          CFI (cfiCond198) V7 load(1, XDATA, add(CFA_XSP16, literal(-11)))
          CFI (cfiCond198) V8 load(1, XDATA, add(CFA_XSP16, literal(-10)))
          CFI (cfiCond198) V9 load(1, XDATA, add(CFA_XSP16, literal(-9)))
          CFI (cfiCond198) V10 load(1, XDATA, add(CFA_XSP16, literal(-8)))
          CFI (cfiCond198) V11 load(1, XDATA, add(CFA_XSP16, literal(-7)))
          CFI (cfiCond198) R7 load(1, XDATA, add(CFA_XSP16, literal(-6)))
          CFI (cfiCond198) ?RET_LOW load(1, XDATA, add(CFA_XSP16, literal(-5)))
          CFI (cfiCond198) ?RET_HIGH load(1, XDATA, add(CFA_XSP16, literal(-4)))
          CFI (cfiCond198) ?BRET_EXT load(1, XDATA, add(CFA_XSP16, literal(-3)))
          CFI (cfiCond198) DPL0 load(1, XDATA, add(CFA_XSP16, literal(-2)))
          CFI (cfiCond198) DPH0 load(1, XDATA, add(CFA_XSP16, literal(-1)))
          CFI (cfiCond198) CFA_SP SP+-4
          CFI (cfiCond198) CFA_XSP16 add(XSP16, 35)
          CFI Block cfiCond199 Using cfiCommon0
          CFI (cfiCond199) Function MT_AfDataRequest
          CFI (cfiCond199) Conditional ??CrossCallReturnLabel_144, ??CrossCallReturnLabel_125, ??CrossCallReturnLabel_97, ??CrossCallReturnLabel_93
          CFI (cfiCond199) R6 load(1, XDATA, add(CFA_XSP16, literal(-20)))
          CFI (cfiCond199) VB load(1, XDATA, add(CFA_XSP16, literal(-19)))
          CFI (cfiCond199) V0 load(1, XDATA, add(CFA_XSP16, literal(-18)))
          CFI (cfiCond199) V1 load(1, XDATA, add(CFA_XSP16, literal(-17)))
          CFI (cfiCond199) V2 load(1, XDATA, add(CFA_XSP16, literal(-16)))
          CFI (cfiCond199) V3 load(1, XDATA, add(CFA_XSP16, literal(-15)))
          CFI (cfiCond199) V4 load(1, XDATA, add(CFA_XSP16, literal(-14)))
          CFI (cfiCond199) V5 load(1, XDATA, add(CFA_XSP16, literal(-13)))
          CFI (cfiCond199) V6 load(1, XDATA, add(CFA_XSP16, literal(-12)))
          CFI (cfiCond199) V7 load(1, XDATA, add(CFA_XSP16, literal(-11)))
          CFI (cfiCond199) V8 load(1, XDATA, add(CFA_XSP16, literal(-10)))
          CFI (cfiCond199) V9 load(1, XDATA, add(CFA_XSP16, literal(-9)))
          CFI (cfiCond199) V10 load(1, XDATA, add(CFA_XSP16, literal(-8)))
          CFI (cfiCond199) V11 load(1, XDATA, add(CFA_XSP16, literal(-7)))
          CFI (cfiCond199) R7 load(1, XDATA, add(CFA_XSP16, literal(-6)))
          CFI (cfiCond199) ?RET_LOW load(1, XDATA, add(CFA_XSP16, literal(-5)))
          CFI (cfiCond199) ?RET_HIGH load(1, XDATA, add(CFA_XSP16, literal(-4)))
          CFI (cfiCond199) ?BRET_EXT load(1, XDATA, add(CFA_XSP16, literal(-3)))
          CFI (cfiCond199) DPL0 load(1, XDATA, add(CFA_XSP16, literal(-2)))
          CFI (cfiCond199) DPH0 load(1, XDATA, add(CFA_XSP16, literal(-1)))
          CFI (cfiCond199) CFA_SP SP+-8
          CFI (cfiCond199) CFA_XSP16 add(XSP16, 35)
          CFI Block cfiCond200 Using cfiCommon0
          CFI (cfiCond200) Function MT_AfDataStore
          CFI (cfiCond200) Conditional ??CrossCallReturnLabel_144, ??CrossCallReturnLabel_125, ??CrossCallReturnLabel_97, ??CrossCallReturnLabel_94
          CFI (cfiCond200) R6 load(1, XDATA, add(CFA_XSP16, literal(-11)))
          CFI (cfiCond200) VB load(1, XDATA, add(CFA_XSP16, literal(-10)))
          CFI (cfiCond200) V0 load(1, XDATA, add(CFA_XSP16, literal(-9)))
          CFI (cfiCond200) V1 load(1, XDATA, add(CFA_XSP16, literal(-8)))
          CFI (cfiCond200) V2 load(1, XDATA, add(CFA_XSP16, literal(-7)))
          CFI (cfiCond200) R7 load(1, XDATA, add(CFA_XSP16, literal(-6)))
          CFI (cfiCond200) ?RET_LOW load(1, XDATA, add(CFA_XSP16, literal(-5)))
          CFI (cfiCond200) ?RET_HIGH load(1, XDATA, add(CFA_XSP16, literal(-4)))
          CFI (cfiCond200) ?BRET_EXT load(1, XDATA, add(CFA_XSP16, literal(-3)))
          CFI (cfiCond200) DPL0 load(1, XDATA, add(CFA_XSP16, literal(-2)))
          CFI (cfiCond200) DPH0 load(1, XDATA, add(CFA_XSP16, literal(-1)))
          CFI (cfiCond200) CFA_SP SP+-8
          CFI (cfiCond200) CFA_XSP16 add(XSP16, 15)
          CFI Block cfiCond201 Using cfiCommon0
          CFI (cfiCond201) Function MT_AfDataStore
          CFI (cfiCond201) Conditional ??CrossCallReturnLabel_144, ??CrossCallReturnLabel_125, ??CrossCallReturnLabel_97, ??CrossCallReturnLabel_95
          CFI (cfiCond201) R6 load(1, XDATA, add(CFA_XSP16, literal(-11)))
          CFI (cfiCond201) VB load(1, XDATA, add(CFA_XSP16, literal(-10)))
          CFI (cfiCond201) V0 load(1, XDATA, add(CFA_XSP16, literal(-9)))
          CFI (cfiCond201) V1 load(1, XDATA, add(CFA_XSP16, literal(-8)))
          CFI (cfiCond201) V2 load(1, XDATA, add(CFA_XSP16, literal(-7)))
          CFI (cfiCond201) R7 load(1, XDATA, add(CFA_XSP16, literal(-6)))
          CFI (cfiCond201) ?RET_LOW load(1, XDATA, add(CFA_XSP16, literal(-5)))
          CFI (cfiCond201) ?RET_HIGH load(1, XDATA, add(CFA_XSP16, literal(-4)))
          CFI (cfiCond201) ?BRET_EXT load(1, XDATA, add(CFA_XSP16, literal(-3)))
          CFI (cfiCond201) DPL0 load(1, XDATA, add(CFA_XSP16, literal(-2)))
          CFI (cfiCond201) DPH0 load(1, XDATA, add(CFA_XSP16, literal(-1)))
          CFI (cfiCond201) CFA_SP SP+-8
          CFI (cfiCond201) CFA_XSP16 add(XSP16, 15)
          CFI Block cfiCond202 Using cfiCommon0
          CFI (cfiCond202) Function MT_AfIncomingMsg
          CFI (cfiCond202) Conditional ??CrossCallReturnLabel_144, ??CrossCallReturnLabel_125, ??CrossCallReturnLabel_97, ??CrossCallReturnLabel_91
          CFI (cfiCond202) R6 load(1, XDATA, add(CFA_XSP16, literal(-20)))
          CFI (cfiCond202) VB load(1, XDATA, add(CFA_XSP16, literal(-19)))
          CFI (cfiCond202) V0 load(1, XDATA, add(CFA_XSP16, literal(-18)))
          CFI (cfiCond202) V1 load(1, XDATA, add(CFA_XSP16, literal(-17)))
          CFI (cfiCond202) V2 load(1, XDATA, add(CFA_XSP16, literal(-16)))
          CFI (cfiCond202) V3 load(1, XDATA, add(CFA_XSP16, literal(-15)))
          CFI (cfiCond202) V4 load(1, XDATA, add(CFA_XSP16, literal(-14)))
          CFI (cfiCond202) V5 load(1, XDATA, add(CFA_XSP16, literal(-13)))
          CFI (cfiCond202) V6 load(1, XDATA, add(CFA_XSP16, literal(-12)))
          CFI (cfiCond202) V7 load(1, XDATA, add(CFA_XSP16, literal(-11)))
          CFI (cfiCond202) V8 load(1, XDATA, add(CFA_XSP16, literal(-10)))
          CFI (cfiCond202) V9 load(1, XDATA, add(CFA_XSP16, literal(-9)))
          CFI (cfiCond202) V10 load(1, XDATA, add(CFA_XSP16, literal(-8)))
          CFI (cfiCond202) V11 load(1, XDATA, add(CFA_XSP16, literal(-7)))
          CFI (cfiCond202) R7 load(1, XDATA, add(CFA_XSP16, literal(-6)))
          CFI (cfiCond202) ?RET_LOW load(1, XDATA, add(CFA_XSP16, literal(-5)))
          CFI (cfiCond202) ?RET_HIGH load(1, XDATA, add(CFA_XSP16, literal(-4)))
          CFI (cfiCond202) ?BRET_EXT load(1, XDATA, add(CFA_XSP16, literal(-3)))
          CFI (cfiCond202) DPL0 load(1, XDATA, add(CFA_XSP16, literal(-2)))
          CFI (cfiCond202) DPH0 load(1, XDATA, add(CFA_XSP16, literal(-1)))
          CFI (cfiCond202) CFA_SP SP+-9
          CFI (cfiCond202) CFA_XSP16 add(XSP16, 23)
          CFI Block cfiCond203 Using cfiCommon0
          CFI (cfiCond203) Function MT_AfIncomingMsg
          CFI (cfiCond203) Conditional ??CrossCallReturnLabel_144, ??CrossCallReturnLabel_125, ??CrossCallReturnLabel_97, ??CrossCallReturnLabel_92
          CFI (cfiCond203) R6 load(1, XDATA, add(CFA_XSP16, literal(-20)))
          CFI (cfiCond203) VB load(1, XDATA, add(CFA_XSP16, literal(-19)))
          CFI (cfiCond203) V0 load(1, XDATA, add(CFA_XSP16, literal(-18)))
          CFI (cfiCond203) V1 load(1, XDATA, add(CFA_XSP16, literal(-17)))
          CFI (cfiCond203) V2 load(1, XDATA, add(CFA_XSP16, literal(-16)))
          CFI (cfiCond203) V3 load(1, XDATA, add(CFA_XSP16, literal(-15)))
          CFI (cfiCond203) V4 load(1, XDATA, add(CFA_XSP16, literal(-14)))
          CFI (cfiCond203) V5 load(1, XDATA, add(CFA_XSP16, literal(-13)))
          CFI (cfiCond203) V6 load(1, XDATA, add(CFA_XSP16, literal(-12)))
          CFI (cfiCond203) V7 load(1, XDATA, add(CFA_XSP16, literal(-11)))
          CFI (cfiCond203) V8 load(1, XDATA, add(CFA_XSP16, literal(-10)))
          CFI (cfiCond203) V9 load(1, XDATA, add(CFA_XSP16, literal(-9)))
          CFI (cfiCond203) V10 load(1, XDATA, add(CFA_XSP16, literal(-8)))
          CFI (cfiCond203) V11 load(1, XDATA, add(CFA_XSP16, literal(-7)))
          CFI (cfiCond203) R7 load(1, XDATA, add(CFA_XSP16, literal(-6)))
          CFI (cfiCond203) ?RET_LOW load(1, XDATA, add(CFA_XSP16, literal(-5)))
          CFI (cfiCond203) ?RET_HIGH load(1, XDATA, add(CFA_XSP16, literal(-4)))
          CFI (cfiCond203) ?BRET_EXT load(1, XDATA, add(CFA_XSP16, literal(-3)))
          CFI (cfiCond203) DPL0 load(1, XDATA, add(CFA_XSP16, literal(-2)))
          CFI (cfiCond203) DPH0 load(1, XDATA, add(CFA_XSP16, literal(-1)))
          CFI (cfiCond203) CFA_SP SP+-9
          CFI (cfiCond203) CFA_XSP16 add(XSP16, 23)
          CFI Block cfiCond204 Using cfiCommon0
          CFI (cfiCond204) Function MT_AfDataRetrieve
          CFI (cfiCond204) Conditional ??CrossCallReturnLabel_144, ??CrossCallReturnLabel_125, ??CrossCallReturnLabel_96, ??CrossCallReturnLabel_2
          CFI (cfiCond204) R6 load(1, XDATA, add(CFA_XSP16, literal(-20)))
          CFI (cfiCond204) VB load(1, XDATA, add(CFA_XSP16, literal(-19)))
          CFI (cfiCond204) V0 load(1, XDATA, add(CFA_XSP16, literal(-18)))
          CFI (cfiCond204) V1 load(1, XDATA, add(CFA_XSP16, literal(-17)))
          CFI (cfiCond204) V2 load(1, XDATA, add(CFA_XSP16, literal(-16)))
          CFI (cfiCond204) V3 load(1, XDATA, add(CFA_XSP16, literal(-15)))
          CFI (cfiCond204) V4 load(1, XDATA, add(CFA_XSP16, literal(-14)))
          CFI (cfiCond204) V5 load(1, XDATA, add(CFA_XSP16, literal(-13)))
          CFI (cfiCond204) V6 load(1, XDATA, add(CFA_XSP16, literal(-12)))
          CFI (cfiCond204) V7 load(1, XDATA, add(CFA_XSP16, literal(-11)))
          CFI (cfiCond204) V8 load(1, XDATA, add(CFA_XSP16, literal(-10)))
          CFI (cfiCond204) V9 load(1, XDATA, add(CFA_XSP16, literal(-9)))
          CFI (cfiCond204) V10 load(1, XDATA, add(CFA_XSP16, literal(-8)))
          CFI (cfiCond204) V11 load(1, XDATA, add(CFA_XSP16, literal(-7)))
          CFI (cfiCond204) R7 load(1, XDATA, add(CFA_XSP16, literal(-6)))
          CFI (cfiCond204) ?RET_LOW load(1, XDATA, add(CFA_XSP16, literal(-5)))
          CFI (cfiCond204) ?RET_HIGH load(1, XDATA, add(CFA_XSP16, literal(-4)))
          CFI (cfiCond204) ?BRET_EXT load(1, XDATA, add(CFA_XSP16, literal(-3)))
          CFI (cfiCond204) DPL0 load(1, XDATA, add(CFA_XSP16, literal(-2)))
          CFI (cfiCond204) DPH0 load(1, XDATA, add(CFA_XSP16, literal(-1)))
          CFI (cfiCond204) CFA_SP SP+-8
          CFI (cfiCond204) CFA_XSP16 add(XSP16, 23)
          CFI Block cfiCond205 Using cfiCommon0
          CFI (cfiCond205) Function MT_AfDataRetrieve
          CFI (cfiCond205) Conditional ??CrossCallReturnLabel_144, ??CrossCallReturnLabel_125, ??CrossCallReturnLabel_96, ??CrossCallReturnLabel_3
          CFI (cfiCond205) R6 load(1, XDATA, add(CFA_XSP16, literal(-20)))
          CFI (cfiCond205) VB load(1, XDATA, add(CFA_XSP16, literal(-19)))
          CFI (cfiCond205) V0 load(1, XDATA, add(CFA_XSP16, literal(-18)))
          CFI (cfiCond205) V1 load(1, XDATA, add(CFA_XSP16, literal(-17)))
          CFI (cfiCond205) V2 load(1, XDATA, add(CFA_XSP16, literal(-16)))
          CFI (cfiCond205) V3 load(1, XDATA, add(CFA_XSP16, literal(-15)))
          CFI (cfiCond205) V4 load(1, XDATA, add(CFA_XSP16, literal(-14)))
          CFI (cfiCond205) V5 load(1, XDATA, add(CFA_XSP16, literal(-13)))
          CFI (cfiCond205) V6 load(1, XDATA, add(CFA_XSP16, literal(-12)))
          CFI (cfiCond205) V7 load(1, XDATA, add(CFA_XSP16, literal(-11)))
          CFI (cfiCond205) V8 load(1, XDATA, add(CFA_XSP16, literal(-10)))
          CFI (cfiCond205) V9 load(1, XDATA, add(CFA_XSP16, literal(-9)))
          CFI (cfiCond205) V10 load(1, XDATA, add(CFA_XSP16, literal(-8)))
          CFI (cfiCond205) V11 load(1, XDATA, add(CFA_XSP16, literal(-7)))
          CFI (cfiCond205) R7 load(1, XDATA, add(CFA_XSP16, literal(-6)))
          CFI (cfiCond205) ?RET_LOW load(1, XDATA, add(CFA_XSP16, literal(-5)))
          CFI (cfiCond205) ?RET_HIGH load(1, XDATA, add(CFA_XSP16, literal(-4)))
          CFI (cfiCond205) ?BRET_EXT load(1, XDATA, add(CFA_XSP16, literal(-3)))
          CFI (cfiCond205) DPL0 load(1, XDATA, add(CFA_XSP16, literal(-2)))
          CFI (cfiCond205) DPH0 load(1, XDATA, add(CFA_XSP16, literal(-1)))
          CFI (cfiCond205) CFA_SP SP+-8
          CFI (cfiCond205) CFA_XSP16 add(XSP16, 23)
          CFI Block cfiCond206 Using cfiCommon0
          CFI (cfiCond206) Function MT_AfDataRetrieve
          CFI (cfiCond206) Conditional ??CrossCallReturnLabel_144, ??CrossCallReturnLabel_125, ??CrossCallReturnLabel_96, ??CrossCallReturnLabel_4
          CFI (cfiCond206) R6 load(1, XDATA, add(CFA_XSP16, literal(-20)))
          CFI (cfiCond206) VB load(1, XDATA, add(CFA_XSP16, literal(-19)))
          CFI (cfiCond206) V0 load(1, XDATA, add(CFA_XSP16, literal(-18)))
          CFI (cfiCond206) V1 load(1, XDATA, add(CFA_XSP16, literal(-17)))
          CFI (cfiCond206) V2 load(1, XDATA, add(CFA_XSP16, literal(-16)))
          CFI (cfiCond206) V3 load(1, XDATA, add(CFA_XSP16, literal(-15)))
          CFI (cfiCond206) V4 load(1, XDATA, add(CFA_XSP16, literal(-14)))
          CFI (cfiCond206) V5 load(1, XDATA, add(CFA_XSP16, literal(-13)))
          CFI (cfiCond206) V6 load(1, XDATA, add(CFA_XSP16, literal(-12)))
          CFI (cfiCond206) V7 load(1, XDATA, add(CFA_XSP16, literal(-11)))
          CFI (cfiCond206) V8 load(1, XDATA, add(CFA_XSP16, literal(-10)))
          CFI (cfiCond206) V9 load(1, XDATA, add(CFA_XSP16, literal(-9)))
          CFI (cfiCond206) V10 load(1, XDATA, add(CFA_XSP16, literal(-8)))
          CFI (cfiCond206) V11 load(1, XDATA, add(CFA_XSP16, literal(-7)))
          CFI (cfiCond206) R7 load(1, XDATA, add(CFA_XSP16, literal(-6)))
          CFI (cfiCond206) ?RET_LOW load(1, XDATA, add(CFA_XSP16, literal(-5)))
          CFI (cfiCond206) ?RET_HIGH load(1, XDATA, add(CFA_XSP16, literal(-4)))
          CFI (cfiCond206) ?BRET_EXT load(1, XDATA, add(CFA_XSP16, literal(-3)))
          CFI (cfiCond206) DPL0 load(1, XDATA, add(CFA_XSP16, literal(-2)))
          CFI (cfiCond206) DPH0 load(1, XDATA, add(CFA_XSP16, literal(-1)))
          CFI (cfiCond206) CFA_SP SP+-8
          CFI (cfiCond206) CFA_XSP16 add(XSP16, 23)
          CFI Block cfiCond207 Using cfiCommon0
          CFI (cfiCond207) Function MT_AfIncomingMsg
          CFI (cfiCond207) Conditional ??CrossCallReturnLabel_144, ??CrossCallReturnLabel_126, ??CrossCallReturnLabel_124, ??CrossCallReturnLabel_121
          CFI (cfiCond207) R6 load(1, XDATA, add(CFA_XSP16, literal(-20)))
          CFI (cfiCond207) VB load(1, XDATA, add(CFA_XSP16, literal(-19)))
          CFI (cfiCond207) V0 load(1, XDATA, add(CFA_XSP16, literal(-18)))
          CFI (cfiCond207) V1 load(1, XDATA, add(CFA_XSP16, literal(-17)))
          CFI (cfiCond207) V2 load(1, XDATA, add(CFA_XSP16, literal(-16)))
          CFI (cfiCond207) V3 load(1, XDATA, add(CFA_XSP16, literal(-15)))
          CFI (cfiCond207) V4 load(1, XDATA, add(CFA_XSP16, literal(-14)))
          CFI (cfiCond207) V5 load(1, XDATA, add(CFA_XSP16, literal(-13)))
          CFI (cfiCond207) V6 load(1, XDATA, add(CFA_XSP16, literal(-12)))
          CFI (cfiCond207) V7 load(1, XDATA, add(CFA_XSP16, literal(-11)))
          CFI (cfiCond207) V8 load(1, XDATA, add(CFA_XSP16, literal(-10)))
          CFI (cfiCond207) V9 load(1, XDATA, add(CFA_XSP16, literal(-9)))
          CFI (cfiCond207) V10 load(1, XDATA, add(CFA_XSP16, literal(-8)))
          CFI (cfiCond207) V11 load(1, XDATA, add(CFA_XSP16, literal(-7)))
          CFI (cfiCond207) R7 load(1, XDATA, add(CFA_XSP16, literal(-6)))
          CFI (cfiCond207) ?RET_LOW load(1, XDATA, add(CFA_XSP16, literal(-5)))
          CFI (cfiCond207) ?RET_HIGH load(1, XDATA, add(CFA_XSP16, literal(-4)))
          CFI (cfiCond207) ?BRET_EXT load(1, XDATA, add(CFA_XSP16, literal(-3)))
          CFI (cfiCond207) DPL0 load(1, XDATA, add(CFA_XSP16, literal(-2)))
          CFI (cfiCond207) DPH0 load(1, XDATA, add(CFA_XSP16, literal(-1)))
          CFI (cfiCond207) CFA_SP SP+-9
          CFI (cfiCond207) CFA_XSP16 add(XSP16, 23)
          CFI Block cfiCond208 Using cfiCommon0
          CFI (cfiCond208) Function MT_AfIncomingMsg
          CFI (cfiCond208) Conditional ??CrossCallReturnLabel_144, ??CrossCallReturnLabel_126, ??CrossCallReturnLabel_124, ??CrossCallReturnLabel_122
          CFI (cfiCond208) R6 load(1, XDATA, add(CFA_XSP16, literal(-20)))
          CFI (cfiCond208) VB load(1, XDATA, add(CFA_XSP16, literal(-19)))
          CFI (cfiCond208) V0 load(1, XDATA, add(CFA_XSP16, literal(-18)))
          CFI (cfiCond208) V1 load(1, XDATA, add(CFA_XSP16, literal(-17)))
          CFI (cfiCond208) V2 load(1, XDATA, add(CFA_XSP16, literal(-16)))
          CFI (cfiCond208) V3 load(1, XDATA, add(CFA_XSP16, literal(-15)))
          CFI (cfiCond208) V4 load(1, XDATA, add(CFA_XSP16, literal(-14)))
          CFI (cfiCond208) V5 load(1, XDATA, add(CFA_XSP16, literal(-13)))
          CFI (cfiCond208) V6 load(1, XDATA, add(CFA_XSP16, literal(-12)))
          CFI (cfiCond208) V7 load(1, XDATA, add(CFA_XSP16, literal(-11)))
          CFI (cfiCond208) V8 load(1, XDATA, add(CFA_XSP16, literal(-10)))
          CFI (cfiCond208) V9 load(1, XDATA, add(CFA_XSP16, literal(-9)))
          CFI (cfiCond208) V10 load(1, XDATA, add(CFA_XSP16, literal(-8)))
          CFI (cfiCond208) V11 load(1, XDATA, add(CFA_XSP16, literal(-7)))
          CFI (cfiCond208) R7 load(1, XDATA, add(CFA_XSP16, literal(-6)))
          CFI (cfiCond208) ?RET_LOW load(1, XDATA, add(CFA_XSP16, literal(-5)))
          CFI (cfiCond208) ?RET_HIGH load(1, XDATA, add(CFA_XSP16, literal(-4)))
          CFI (cfiCond208) ?BRET_EXT load(1, XDATA, add(CFA_XSP16, literal(-3)))
          CFI (cfiCond208) DPL0 load(1, XDATA, add(CFA_XSP16, literal(-2)))
          CFI (cfiCond208) DPH0 load(1, XDATA, add(CFA_XSP16, literal(-1)))
          CFI (cfiCond208) CFA_SP SP+-9
          CFI (cfiCond208) CFA_XSP16 add(XSP16, 23)
          CFI Block cfiCond209 Using cfiCommon0
          CFI (cfiCond209) Function MT_AfDataRetrieve
          CFI (cfiCond209) Conditional ??CrossCallReturnLabel_144, ??CrossCallReturnLabel_126, ??CrossCallReturnLabel_124, ??CrossCallReturnLabel_120
          CFI (cfiCond209) R6 load(1, XDATA, add(CFA_XSP16, literal(-20)))
          CFI (cfiCond209) VB load(1, XDATA, add(CFA_XSP16, literal(-19)))
          CFI (cfiCond209) V0 load(1, XDATA, add(CFA_XSP16, literal(-18)))
          CFI (cfiCond209) V1 load(1, XDATA, add(CFA_XSP16, literal(-17)))
          CFI (cfiCond209) V2 load(1, XDATA, add(CFA_XSP16, literal(-16)))
          CFI (cfiCond209) V3 load(1, XDATA, add(CFA_XSP16, literal(-15)))
          CFI (cfiCond209) V4 load(1, XDATA, add(CFA_XSP16, literal(-14)))
          CFI (cfiCond209) V5 load(1, XDATA, add(CFA_XSP16, literal(-13)))
          CFI (cfiCond209) V6 load(1, XDATA, add(CFA_XSP16, literal(-12)))
          CFI (cfiCond209) V7 load(1, XDATA, add(CFA_XSP16, literal(-11)))
          CFI (cfiCond209) V8 load(1, XDATA, add(CFA_XSP16, literal(-10)))
          CFI (cfiCond209) V9 load(1, XDATA, add(CFA_XSP16, literal(-9)))
          CFI (cfiCond209) V10 load(1, XDATA, add(CFA_XSP16, literal(-8)))
          CFI (cfiCond209) V11 load(1, XDATA, add(CFA_XSP16, literal(-7)))
          CFI (cfiCond209) R7 load(1, XDATA, add(CFA_XSP16, literal(-6)))
          CFI (cfiCond209) ?RET_LOW load(1, XDATA, add(CFA_XSP16, literal(-5)))
          CFI (cfiCond209) ?RET_HIGH load(1, XDATA, add(CFA_XSP16, literal(-4)))
          CFI (cfiCond209) ?BRET_EXT load(1, XDATA, add(CFA_XSP16, literal(-3)))
          CFI (cfiCond209) DPL0 load(1, XDATA, add(CFA_XSP16, literal(-2)))
          CFI (cfiCond209) DPH0 load(1, XDATA, add(CFA_XSP16, literal(-1)))
          CFI (cfiCond209) CFA_SP SP+-8
          CFI (cfiCond209) CFA_XSP16 add(XSP16, 23)
          CFI Block cfiCond210 Using cfiCommon0
          CFI (cfiCond210) Function MT_AfIncomingMsg
          CFI (cfiCond210) Conditional ??CrossCallReturnLabel_144, ??CrossCallReturnLabel_126, ??CrossCallReturnLabel_123, ??CrossCallReturnLabel_5
          CFI (cfiCond210) R6 load(1, XDATA, add(CFA_XSP16, literal(-20)))
          CFI (cfiCond210) VB load(1, XDATA, add(CFA_XSP16, literal(-19)))
          CFI (cfiCond210) V0 load(1, XDATA, add(CFA_XSP16, literal(-18)))
          CFI (cfiCond210) V1 load(1, XDATA, add(CFA_XSP16, literal(-17)))
          CFI (cfiCond210) V2 load(1, XDATA, add(CFA_XSP16, literal(-16)))
          CFI (cfiCond210) V3 load(1, XDATA, add(CFA_XSP16, literal(-15)))
          CFI (cfiCond210) V4 load(1, XDATA, add(CFA_XSP16, literal(-14)))
          CFI (cfiCond210) V5 load(1, XDATA, add(CFA_XSP16, literal(-13)))
          CFI (cfiCond210) V6 load(1, XDATA, add(CFA_XSP16, literal(-12)))
          CFI (cfiCond210) V7 load(1, XDATA, add(CFA_XSP16, literal(-11)))
          CFI (cfiCond210) V8 load(1, XDATA, add(CFA_XSP16, literal(-10)))
          CFI (cfiCond210) V9 load(1, XDATA, add(CFA_XSP16, literal(-9)))
          CFI (cfiCond210) V10 load(1, XDATA, add(CFA_XSP16, literal(-8)))
          CFI (cfiCond210) V11 load(1, XDATA, add(CFA_XSP16, literal(-7)))
          CFI (cfiCond210) R7 load(1, XDATA, add(CFA_XSP16, literal(-6)))
          CFI (cfiCond210) ?RET_LOW load(1, XDATA, add(CFA_XSP16, literal(-5)))
          CFI (cfiCond210) ?RET_HIGH load(1, XDATA, add(CFA_XSP16, literal(-4)))
          CFI (cfiCond210) ?BRET_EXT load(1, XDATA, add(CFA_XSP16, literal(-3)))
          CFI (cfiCond210) DPL0 load(1, XDATA, add(CFA_XSP16, literal(-2)))
          CFI (cfiCond210) DPH0 load(1, XDATA, add(CFA_XSP16, literal(-1)))
          CFI (cfiCond210) CFA_SP SP+-9
          CFI (cfiCond210) CFA_XSP16 add(XSP16, 23)
          CFI Block cfiCond211 Using cfiCommon0
          CFI (cfiCond211) Function MT_AfIncomingMsg
          CFI (cfiCond211) Conditional ??CrossCallReturnLabel_144, ??CrossCallReturnLabel_126, ??CrossCallReturnLabel_123, ??CrossCallReturnLabel_6
          CFI (cfiCond211) R6 load(1, XDATA, add(CFA_XSP16, literal(-20)))
          CFI (cfiCond211) VB load(1, XDATA, add(CFA_XSP16, literal(-19)))
          CFI (cfiCond211) V0 load(1, XDATA, add(CFA_XSP16, literal(-18)))
          CFI (cfiCond211) V1 load(1, XDATA, add(CFA_XSP16, literal(-17)))
          CFI (cfiCond211) V2 load(1, XDATA, add(CFA_XSP16, literal(-16)))
          CFI (cfiCond211) V3 load(1, XDATA, add(CFA_XSP16, literal(-15)))
          CFI (cfiCond211) V4 load(1, XDATA, add(CFA_XSP16, literal(-14)))
          CFI (cfiCond211) V5 load(1, XDATA, add(CFA_XSP16, literal(-13)))
          CFI (cfiCond211) V6 load(1, XDATA, add(CFA_XSP16, literal(-12)))
          CFI (cfiCond211) V7 load(1, XDATA, add(CFA_XSP16, literal(-11)))
          CFI (cfiCond211) V8 load(1, XDATA, add(CFA_XSP16, literal(-10)))
          CFI (cfiCond211) V9 load(1, XDATA, add(CFA_XSP16, literal(-9)))
          CFI (cfiCond211) V10 load(1, XDATA, add(CFA_XSP16, literal(-8)))
          CFI (cfiCond211) V11 load(1, XDATA, add(CFA_XSP16, literal(-7)))
          CFI (cfiCond211) R7 load(1, XDATA, add(CFA_XSP16, literal(-6)))
          CFI (cfiCond211) ?RET_LOW load(1, XDATA, add(CFA_XSP16, literal(-5)))
          CFI (cfiCond211) ?RET_HIGH load(1, XDATA, add(CFA_XSP16, literal(-4)))
          CFI (cfiCond211) ?BRET_EXT load(1, XDATA, add(CFA_XSP16, literal(-3)))
          CFI (cfiCond211) DPL0 load(1, XDATA, add(CFA_XSP16, literal(-2)))
          CFI (cfiCond211) DPH0 load(1, XDATA, add(CFA_XSP16, literal(-1)))
          CFI (cfiCond211) CFA_SP SP+-9
          CFI (cfiCond211) CFA_XSP16 add(XSP16, 23)
          CFI Block cfiCond212 Using cfiCommon0
          CFI (cfiCond212) Function MT_AfIncomingMsg
          CFI (cfiCond212) Conditional ??CrossCallReturnLabel_144, ??CrossCallReturnLabel_126, ??CrossCallReturnLabel_123, ??CrossCallReturnLabel_7
          CFI (cfiCond212) R6 load(1, XDATA, add(CFA_XSP16, literal(-20)))
          CFI (cfiCond212) VB load(1, XDATA, add(CFA_XSP16, literal(-19)))
          CFI (cfiCond212) V0 load(1, XDATA, add(CFA_XSP16, literal(-18)))
          CFI (cfiCond212) V1 load(1, XDATA, add(CFA_XSP16, literal(-17)))
          CFI (cfiCond212) V2 load(1, XDATA, add(CFA_XSP16, literal(-16)))
          CFI (cfiCond212) V3 load(1, XDATA, add(CFA_XSP16, literal(-15)))
          CFI (cfiCond212) V4 load(1, XDATA, add(CFA_XSP16, literal(-14)))
          CFI (cfiCond212) V5 load(1, XDATA, add(CFA_XSP16, literal(-13)))
          CFI (cfiCond212) V6 load(1, XDATA, add(CFA_XSP16, literal(-12)))
          CFI (cfiCond212) V7 load(1, XDATA, add(CFA_XSP16, literal(-11)))
          CFI (cfiCond212) V8 load(1, XDATA, add(CFA_XSP16, literal(-10)))
          CFI (cfiCond212) V9 load(1, XDATA, add(CFA_XSP16, literal(-9)))
          CFI (cfiCond212) V10 load(1, XDATA, add(CFA_XSP16, literal(-8)))
          CFI (cfiCond212) V11 load(1, XDATA, add(CFA_XSP16, literal(-7)))
          CFI (cfiCond212) R7 load(1, XDATA, add(CFA_XSP16, literal(-6)))
          CFI (cfiCond212) ?RET_LOW load(1, XDATA, add(CFA_XSP16, literal(-5)))
          CFI (cfiCond212) ?RET_HIGH load(1, XDATA, add(CFA_XSP16, literal(-4)))
          CFI (cfiCond212) ?BRET_EXT load(1, XDATA, add(CFA_XSP16, literal(-3)))
          CFI (cfiCond212) DPL0 load(1, XDATA, add(CFA_XSP16, literal(-2)))
          CFI (cfiCond212) DPH0 load(1, XDATA, add(CFA_XSP16, literal(-1)))
          CFI (cfiCond212) CFA_SP SP+-9
          CFI (cfiCond212) CFA_XSP16 add(XSP16, 23)
          CFI Block cfiCond213 Using cfiCommon0
          CFI (cfiCond213) Function MT_AfExec
          CFI (cfiCond213) Conditional ??CrossCallReturnLabel_143, ??CrossCallReturnLabel_116
          CFI (cfiCond213) R6 load(1, XDATA, add(CFA_XSP16, literal(-9)))
          CFI (cfiCond213) VB load(1, XDATA, add(CFA_XSP16, literal(-8)))
          CFI (cfiCond213) V0 load(1, XDATA, add(CFA_XSP16, literal(-7)))
          CFI (cfiCond213) R7 load(1, XDATA, add(CFA_XSP16, literal(-6)))
          CFI (cfiCond213) ?RET_LOW load(1, XDATA, add(CFA_XSP16, literal(-5)))
          CFI (cfiCond213) ?RET_HIGH load(1, XDATA, add(CFA_XSP16, literal(-4)))
          CFI (cfiCond213) ?BRET_EXT load(1, XDATA, add(CFA_XSP16, literal(-3)))
          CFI (cfiCond213) DPL0 load(1, XDATA, add(CFA_XSP16, literal(-2)))
          CFI (cfiCond213) DPH0 load(1, XDATA, add(CFA_XSP16, literal(-1)))
          CFI (cfiCond213) CFA_SP SP+-4
          CFI (cfiCond213) CFA_XSP16 add(XSP16, 9)
          CFI Block cfiCond214 Using cfiCommon0
          CFI (cfiCond214) Function MT_AfIncomingMsg
          CFI (cfiCond214) Conditional ??CrossCallReturnLabel_143, ??CrossCallReturnLabel_117
          CFI (cfiCond214) R6 load(1, XDATA, add(CFA_XSP16, literal(-20)))
          CFI (cfiCond214) VB load(1, XDATA, add(CFA_XSP16, literal(-19)))
          CFI (cfiCond214) V0 load(1, XDATA, add(CFA_XSP16, literal(-18)))
          CFI (cfiCond214) V1 load(1, XDATA, add(CFA_XSP16, literal(-17)))
          CFI (cfiCond214) V2 load(1, XDATA, add(CFA_XSP16, literal(-16)))
          CFI (cfiCond214) V3 load(1, XDATA, add(CFA_XSP16, literal(-15)))
          CFI (cfiCond214) V4 load(1, XDATA, add(CFA_XSP16, literal(-14)))
          CFI (cfiCond214) V5 load(1, XDATA, add(CFA_XSP16, literal(-13)))
          CFI (cfiCond214) V6 load(1, XDATA, add(CFA_XSP16, literal(-12)))
          CFI (cfiCond214) V7 load(1, XDATA, add(CFA_XSP16, literal(-11)))
          CFI (cfiCond214) V8 load(1, XDATA, add(CFA_XSP16, literal(-10)))
          CFI (cfiCond214) V9 load(1, XDATA, add(CFA_XSP16, literal(-9)))
          CFI (cfiCond214) V10 load(1, XDATA, add(CFA_XSP16, literal(-8)))
          CFI (cfiCond214) V11 load(1, XDATA, add(CFA_XSP16, literal(-7)))
          CFI (cfiCond214) R7 load(1, XDATA, add(CFA_XSP16, literal(-6)))
          CFI (cfiCond214) ?RET_LOW load(1, XDATA, add(CFA_XSP16, literal(-5)))
          CFI (cfiCond214) ?RET_HIGH load(1, XDATA, add(CFA_XSP16, literal(-4)))
          CFI (cfiCond214) ?BRET_EXT load(1, XDATA, add(CFA_XSP16, literal(-3)))
          CFI (cfiCond214) DPL0 load(1, XDATA, add(CFA_XSP16, literal(-2)))
          CFI (cfiCond214) DPH0 load(1, XDATA, add(CFA_XSP16, literal(-1)))
          CFI (cfiCond214) CFA_SP SP+-4
          CFI (cfiCond214) CFA_XSP16 add(XSP16, 23)
          CFI Block cfiCond215 Using cfiCommon0
          CFI (cfiCond215) Function MT_AfDataRetrieve
          CFI (cfiCond215) Conditional ??CrossCallReturnLabel_143, ??CrossCallReturnLabel_118
          CFI (cfiCond215) R6 load(1, XDATA, add(CFA_XSP16, literal(-20)))
          CFI (cfiCond215) VB load(1, XDATA, add(CFA_XSP16, literal(-19)))
          CFI (cfiCond215) V0 load(1, XDATA, add(CFA_XSP16, literal(-18)))
          CFI (cfiCond215) V1 load(1, XDATA, add(CFA_XSP16, literal(-17)))
          CFI (cfiCond215) V2 load(1, XDATA, add(CFA_XSP16, literal(-16)))
          CFI (cfiCond215) V3 load(1, XDATA, add(CFA_XSP16, literal(-15)))
          CFI (cfiCond215) V4 load(1, XDATA, add(CFA_XSP16, literal(-14)))
          CFI (cfiCond215) V5 load(1, XDATA, add(CFA_XSP16, literal(-13)))
          CFI (cfiCond215) V6 load(1, XDATA, add(CFA_XSP16, literal(-12)))
          CFI (cfiCond215) V7 load(1, XDATA, add(CFA_XSP16, literal(-11)))
          CFI (cfiCond215) V8 load(1, XDATA, add(CFA_XSP16, literal(-10)))
          CFI (cfiCond215) V9 load(1, XDATA, add(CFA_XSP16, literal(-9)))
          CFI (cfiCond215) V10 load(1, XDATA, add(CFA_XSP16, literal(-8)))
          CFI (cfiCond215) V11 load(1, XDATA, add(CFA_XSP16, literal(-7)))
          CFI (cfiCond215) R7 load(1, XDATA, add(CFA_XSP16, literal(-6)))
          CFI (cfiCond215) ?RET_LOW load(1, XDATA, add(CFA_XSP16, literal(-5)))
          CFI (cfiCond215) ?RET_HIGH load(1, XDATA, add(CFA_XSP16, literal(-4)))
          CFI (cfiCond215) ?BRET_EXT load(1, XDATA, add(CFA_XSP16, literal(-3)))
          CFI (cfiCond215) DPL0 load(1, XDATA, add(CFA_XSP16, literal(-2)))
          CFI (cfiCond215) DPH0 load(1, XDATA, add(CFA_XSP16, literal(-1)))
          CFI (cfiCond215) CFA_SP SP+-4
          CFI (cfiCond215) CFA_XSP16 add(XSP16, 23)
          CFI Block cfiCond216 Using cfiCommon0
          CFI (cfiCond216) Function MT_AfDataRetrieve
          CFI (cfiCond216) Conditional ??CrossCallReturnLabel_143, ??CrossCallReturnLabel_119
          CFI (cfiCond216) R6 load(1, XDATA, add(CFA_XSP16, literal(-20)))
          CFI (cfiCond216) VB load(1, XDATA, add(CFA_XSP16, literal(-19)))
          CFI (cfiCond216) V0 load(1, XDATA, add(CFA_XSP16, literal(-18)))
          CFI (cfiCond216) V1 load(1, XDATA, add(CFA_XSP16, literal(-17)))
          CFI (cfiCond216) V2 load(1, XDATA, add(CFA_XSP16, literal(-16)))
          CFI (cfiCond216) V3 load(1, XDATA, add(CFA_XSP16, literal(-15)))
          CFI (cfiCond216) V4 load(1, XDATA, add(CFA_XSP16, literal(-14)))
          CFI (cfiCond216) V5 load(1, XDATA, add(CFA_XSP16, literal(-13)))
          CFI (cfiCond216) V6 load(1, XDATA, add(CFA_XSP16, literal(-12)))
          CFI (cfiCond216) V7 load(1, XDATA, add(CFA_XSP16, literal(-11)))
          CFI (cfiCond216) V8 load(1, XDATA, add(CFA_XSP16, literal(-10)))
          CFI (cfiCond216) V9 load(1, XDATA, add(CFA_XSP16, literal(-9)))
          CFI (cfiCond216) V10 load(1, XDATA, add(CFA_XSP16, literal(-8)))
          CFI (cfiCond216) V11 load(1, XDATA, add(CFA_XSP16, literal(-7)))
          CFI (cfiCond216) R7 load(1, XDATA, add(CFA_XSP16, literal(-6)))
          CFI (cfiCond216) ?RET_LOW load(1, XDATA, add(CFA_XSP16, literal(-5)))
          CFI (cfiCond216) ?RET_HIGH load(1, XDATA, add(CFA_XSP16, literal(-4)))
          CFI (cfiCond216) ?BRET_EXT load(1, XDATA, add(CFA_XSP16, literal(-3)))
          CFI (cfiCond216) DPL0 load(1, XDATA, add(CFA_XSP16, literal(-2)))
          CFI (cfiCond216) DPH0 load(1, XDATA, add(CFA_XSP16, literal(-1)))
          CFI (cfiCond216) CFA_SP SP+-4
          CFI (cfiCond216) CFA_XSP16 add(XSP16, 23)
          CFI Block cfiCond217 Using cfiCommon0
          CFI (cfiCond217) Function MT_AfExec
          CFI (cfiCond217) Conditional ??CrossCallReturnLabel_143, ??CrossCallReturnLabel_114
          CFI (cfiCond217) R6 load(1, XDATA, add(CFA_XSP16, literal(-9)))
          CFI (cfiCond217) VB load(1, XDATA, add(CFA_XSP16, literal(-8)))
          CFI (cfiCond217) V0 load(1, XDATA, add(CFA_XSP16, literal(-7)))
          CFI (cfiCond217) R7 load(1, XDATA, add(CFA_XSP16, literal(-6)))
          CFI (cfiCond217) ?RET_LOW load(1, XDATA, add(CFA_XSP16, literal(-5)))
          CFI (cfiCond217) ?RET_HIGH load(1, XDATA, add(CFA_XSP16, literal(-4)))
          CFI (cfiCond217) ?BRET_EXT load(1, XDATA, add(CFA_XSP16, literal(-3)))
          CFI (cfiCond217) DPL0 load(1, XDATA, add(CFA_XSP16, literal(-2)))
          CFI (cfiCond217) DPH0 load(1, XDATA, add(CFA_XSP16, literal(-1)))
          CFI (cfiCond217) CFA_SP SP+-4
          CFI (cfiCond217) CFA_XSP16 add(XSP16, 9)
          CFI Block cfiCond218 Using cfiCommon0
          CFI (cfiCond218) Function MT_AfExec
          CFI (cfiCond218) Conditional ??CrossCallReturnLabel_143, ??CrossCallReturnLabel_115
          CFI (cfiCond218) R6 load(1, XDATA, add(CFA_XSP16, literal(-9)))
          CFI (cfiCond218) VB load(1, XDATA, add(CFA_XSP16, literal(-8)))
          CFI (cfiCond218) V0 load(1, XDATA, add(CFA_XSP16, literal(-7)))
          CFI (cfiCond218) R7 load(1, XDATA, add(CFA_XSP16, literal(-6)))
          CFI (cfiCond218) ?RET_LOW load(1, XDATA, add(CFA_XSP16, literal(-5)))
          CFI (cfiCond218) ?RET_HIGH load(1, XDATA, add(CFA_XSP16, literal(-4)))
          CFI (cfiCond218) ?BRET_EXT load(1, XDATA, add(CFA_XSP16, literal(-3)))
          CFI (cfiCond218) DPL0 load(1, XDATA, add(CFA_XSP16, literal(-2)))
          CFI (cfiCond218) DPH0 load(1, XDATA, add(CFA_XSP16, literal(-1)))
          CFI (cfiCond218) CFA_SP SP+-4
          CFI (cfiCond218) CFA_XSP16 add(XSP16, 9)
          CFI Block cfiCond219 Using cfiCommon0
          CFI (cfiCond219) Function MT_AfDataRetrieve
          CFI (cfiCond219) Conditional ??CrossCallReturnLabel_140, ??CrossCallReturnLabel_2
          CFI (cfiCond219) R6 load(1, XDATA, add(CFA_XSP16, literal(-20)))
          CFI (cfiCond219) VB load(1, XDATA, add(CFA_XSP16, literal(-19)))
          CFI (cfiCond219) V0 load(1, XDATA, add(CFA_XSP16, literal(-18)))
          CFI (cfiCond219) V1 load(1, XDATA, add(CFA_XSP16, literal(-17)))
          CFI (cfiCond219) V2 load(1, XDATA, add(CFA_XSP16, literal(-16)))
          CFI (cfiCond219) V3 load(1, XDATA, add(CFA_XSP16, literal(-15)))
          CFI (cfiCond219) V4 load(1, XDATA, add(CFA_XSP16, literal(-14)))
          CFI (cfiCond219) V5 load(1, XDATA, add(CFA_XSP16, literal(-13)))
          CFI (cfiCond219) V6 load(1, XDATA, add(CFA_XSP16, literal(-12)))
          CFI (cfiCond219) V7 load(1, XDATA, add(CFA_XSP16, literal(-11)))
          CFI (cfiCond219) V8 load(1, XDATA, add(CFA_XSP16, literal(-10)))
          CFI (cfiCond219) V9 load(1, XDATA, add(CFA_XSP16, literal(-9)))
          CFI (cfiCond219) V10 load(1, XDATA, add(CFA_XSP16, literal(-8)))
          CFI (cfiCond219) V11 load(1, XDATA, add(CFA_XSP16, literal(-7)))
          CFI (cfiCond219) R7 load(1, XDATA, add(CFA_XSP16, literal(-6)))
          CFI (cfiCond219) ?RET_LOW load(1, XDATA, add(CFA_XSP16, literal(-5)))
          CFI (cfiCond219) ?RET_HIGH load(1, XDATA, add(CFA_XSP16, literal(-4)))
          CFI (cfiCond219) ?BRET_EXT load(1, XDATA, add(CFA_XSP16, literal(-3)))
          CFI (cfiCond219) DPL0 load(1, XDATA, add(CFA_XSP16, literal(-2)))
          CFI (cfiCond219) DPH0 load(1, XDATA, add(CFA_XSP16, literal(-1)))
          CFI (cfiCond219) CFA_SP SP+-4
          CFI (cfiCond219) CFA_XSP16 add(XSP16, 23)
          CFI Block cfiCond220 Using cfiCommon0
          CFI (cfiCond220) Function MT_AfDataRetrieve
          CFI (cfiCond220) Conditional ??CrossCallReturnLabel_140, ??CrossCallReturnLabel_3
          CFI (cfiCond220) R6 load(1, XDATA, add(CFA_XSP16, literal(-20)))
          CFI (cfiCond220) VB load(1, XDATA, add(CFA_XSP16, literal(-19)))
          CFI (cfiCond220) V0 load(1, XDATA, add(CFA_XSP16, literal(-18)))
          CFI (cfiCond220) V1 load(1, XDATA, add(CFA_XSP16, literal(-17)))
          CFI (cfiCond220) V2 load(1, XDATA, add(CFA_XSP16, literal(-16)))
          CFI (cfiCond220) V3 load(1, XDATA, add(CFA_XSP16, literal(-15)))
          CFI (cfiCond220) V4 load(1, XDATA, add(CFA_XSP16, literal(-14)))
          CFI (cfiCond220) V5 load(1, XDATA, add(CFA_XSP16, literal(-13)))
          CFI (cfiCond220) V6 load(1, XDATA, add(CFA_XSP16, literal(-12)))
          CFI (cfiCond220) V7 load(1, XDATA, add(CFA_XSP16, literal(-11)))
          CFI (cfiCond220) V8 load(1, XDATA, add(CFA_XSP16, literal(-10)))
          CFI (cfiCond220) V9 load(1, XDATA, add(CFA_XSP16, literal(-9)))
          CFI (cfiCond220) V10 load(1, XDATA, add(CFA_XSP16, literal(-8)))
          CFI (cfiCond220) V11 load(1, XDATA, add(CFA_XSP16, literal(-7)))
          CFI (cfiCond220) R7 load(1, XDATA, add(CFA_XSP16, literal(-6)))
          CFI (cfiCond220) ?RET_LOW load(1, XDATA, add(CFA_XSP16, literal(-5)))
          CFI (cfiCond220) ?RET_HIGH load(1, XDATA, add(CFA_XSP16, literal(-4)))
          CFI (cfiCond220) ?BRET_EXT load(1, XDATA, add(CFA_XSP16, literal(-3)))
          CFI (cfiCond220) DPL0 load(1, XDATA, add(CFA_XSP16, literal(-2)))
          CFI (cfiCond220) DPH0 load(1, XDATA, add(CFA_XSP16, literal(-1)))
          CFI (cfiCond220) CFA_SP SP+-4
          CFI (cfiCond220) CFA_XSP16 add(XSP16, 23)
          CFI Block cfiCond221 Using cfiCommon0
          CFI (cfiCond221) Function MT_AfDataRetrieve
          CFI (cfiCond221) Conditional ??CrossCallReturnLabel_140, ??CrossCallReturnLabel_4
          CFI (cfiCond221) R6 load(1, XDATA, add(CFA_XSP16, literal(-20)))
          CFI (cfiCond221) VB load(1, XDATA, add(CFA_XSP16, literal(-19)))
          CFI (cfiCond221) V0 load(1, XDATA, add(CFA_XSP16, literal(-18)))
          CFI (cfiCond221) V1 load(1, XDATA, add(CFA_XSP16, literal(-17)))
          CFI (cfiCond221) V2 load(1, XDATA, add(CFA_XSP16, literal(-16)))
          CFI (cfiCond221) V3 load(1, XDATA, add(CFA_XSP16, literal(-15)))
          CFI (cfiCond221) V4 load(1, XDATA, add(CFA_XSP16, literal(-14)))
          CFI (cfiCond221) V5 load(1, XDATA, add(CFA_XSP16, literal(-13)))
          CFI (cfiCond221) V6 load(1, XDATA, add(CFA_XSP16, literal(-12)))
          CFI (cfiCond221) V7 load(1, XDATA, add(CFA_XSP16, literal(-11)))
          CFI (cfiCond221) V8 load(1, XDATA, add(CFA_XSP16, literal(-10)))
          CFI (cfiCond221) V9 load(1, XDATA, add(CFA_XSP16, literal(-9)))
          CFI (cfiCond221) V10 load(1, XDATA, add(CFA_XSP16, literal(-8)))
          CFI (cfiCond221) V11 load(1, XDATA, add(CFA_XSP16, literal(-7)))
          CFI (cfiCond221) R7 load(1, XDATA, add(CFA_XSP16, literal(-6)))
          CFI (cfiCond221) ?RET_LOW load(1, XDATA, add(CFA_XSP16, literal(-5)))
          CFI (cfiCond221) ?RET_HIGH load(1, XDATA, add(CFA_XSP16, literal(-4)))
          CFI (cfiCond221) ?BRET_EXT load(1, XDATA, add(CFA_XSP16, literal(-3)))
          CFI (cfiCond221) DPL0 load(1, XDATA, add(CFA_XSP16, literal(-2)))
          CFI (cfiCond221) DPH0 load(1, XDATA, add(CFA_XSP16, literal(-1)))
          CFI (cfiCond221) CFA_SP SP+-4
          CFI (cfiCond221) CFA_XSP16 add(XSP16, 23)
          CFI Block cfiCond222 Using cfiCommon0
          CFI (cfiCond222) Function MT_AfExec
          CFI (cfiCond222) Conditional ??CrossCallReturnLabel_145, ??CrossCallReturnLabel_136
          CFI (cfiCond222) R6 load(1, XDATA, add(CFA_XSP16, literal(-9)))
          CFI (cfiCond222) VB load(1, XDATA, add(CFA_XSP16, literal(-8)))
          CFI (cfiCond222) V0 load(1, XDATA, add(CFA_XSP16, literal(-7)))
          CFI (cfiCond222) R7 load(1, XDATA, add(CFA_XSP16, literal(-6)))
          CFI (cfiCond222) ?RET_LOW load(1, XDATA, add(CFA_XSP16, literal(-5)))
          CFI (cfiCond222) ?RET_HIGH load(1, XDATA, add(CFA_XSP16, literal(-4)))
          CFI (cfiCond222) ?BRET_EXT load(1, XDATA, add(CFA_XSP16, literal(-3)))
          CFI (cfiCond222) DPL0 load(1, XDATA, add(CFA_XSP16, literal(-2)))
          CFI (cfiCond222) DPH0 load(1, XDATA, add(CFA_XSP16, literal(-1)))
          CFI (cfiCond222) CFA_SP SP+-4
          CFI (cfiCond222) CFA_XSP16 add(XSP16, 9)
          CFI Block cfiCond223 Using cfiCommon0
          CFI (cfiCond223) Function MT_AfExec
          CFI (cfiCond223) Conditional ??CrossCallReturnLabel_145, ??CrossCallReturnLabel_137
          CFI (cfiCond223) R6 load(1, XDATA, add(CFA_XSP16, literal(-9)))
          CFI (cfiCond223) VB load(1, XDATA, add(CFA_XSP16, literal(-8)))
          CFI (cfiCond223) V0 load(1, XDATA, add(CFA_XSP16, literal(-7)))
          CFI (cfiCond223) R7 load(1, XDATA, add(CFA_XSP16, literal(-6)))
          CFI (cfiCond223) ?RET_LOW load(1, XDATA, add(CFA_XSP16, literal(-5)))
          CFI (cfiCond223) ?RET_HIGH load(1, XDATA, add(CFA_XSP16, literal(-4)))
          CFI (cfiCond223) ?BRET_EXT load(1, XDATA, add(CFA_XSP16, literal(-3)))
          CFI (cfiCond223) DPL0 load(1, XDATA, add(CFA_XSP16, literal(-2)))
          CFI (cfiCond223) DPH0 load(1, XDATA, add(CFA_XSP16, literal(-1)))
          CFI (cfiCond223) CFA_SP SP+-4
          CFI (cfiCond223) CFA_XSP16 add(XSP16, 9)
          CFI Block cfiCond224 Using cfiCommon0
          CFI (cfiCond224) Function MT_AfDataRequest
          CFI (cfiCond224) Conditional ??CrossCallReturnLabel_145, ??CrossCallReturnLabel_138
          CFI (cfiCond224) R6 load(1, XDATA, add(CFA_XSP16, literal(-20)))
          CFI (cfiCond224) VB load(1, XDATA, add(CFA_XSP16, literal(-19)))
          CFI (cfiCond224) V0 load(1, XDATA, add(CFA_XSP16, literal(-18)))
          CFI (cfiCond224) V1 load(1, XDATA, add(CFA_XSP16, literal(-17)))
          CFI (cfiCond224) V2 load(1, XDATA, add(CFA_XSP16, literal(-16)))
          CFI (cfiCond224) V3 load(1, XDATA, add(CFA_XSP16, literal(-15)))
          CFI (cfiCond224) V4 load(1, XDATA, add(CFA_XSP16, literal(-14)))
          CFI (cfiCond224) V5 load(1, XDATA, add(CFA_XSP16, literal(-13)))
          CFI (cfiCond224) V6 load(1, XDATA, add(CFA_XSP16, literal(-12)))
          CFI (cfiCond224) V7 load(1, XDATA, add(CFA_XSP16, literal(-11)))
          CFI (cfiCond224) V8 load(1, XDATA, add(CFA_XSP16, literal(-10)))
          CFI (cfiCond224) V9 load(1, XDATA, add(CFA_XSP16, literal(-9)))
          CFI (cfiCond224) V10 load(1, XDATA, add(CFA_XSP16, literal(-8)))
          CFI (cfiCond224) V11 load(1, XDATA, add(CFA_XSP16, literal(-7)))
          CFI (cfiCond224) R7 load(1, XDATA, add(CFA_XSP16, literal(-6)))
          CFI (cfiCond224) ?RET_LOW load(1, XDATA, add(CFA_XSP16, literal(-5)))
          CFI (cfiCond224) ?RET_HIGH load(1, XDATA, add(CFA_XSP16, literal(-4)))
          CFI (cfiCond224) ?BRET_EXT load(1, XDATA, add(CFA_XSP16, literal(-3)))
          CFI (cfiCond224) DPL0 load(1, XDATA, add(CFA_XSP16, literal(-2)))
          CFI (cfiCond224) DPH0 load(1, XDATA, add(CFA_XSP16, literal(-1)))
          CFI (cfiCond224) CFA_SP SP+-4
          CFI (cfiCond224) CFA_XSP16 add(XSP16, 35)
          CFI Block cfiCond225 Using cfiCommon0
          CFI (cfiCond225) Function MT_AfDataStore
          CFI (cfiCond225) Conditional ??CrossCallReturnLabel_145, ??CrossCallReturnLabel_139
          CFI (cfiCond225) R6 load(1, XDATA, add(CFA_XSP16, literal(-11)))
          CFI (cfiCond225) VB load(1, XDATA, add(CFA_XSP16, literal(-10)))
          CFI (cfiCond225) V0 load(1, XDATA, add(CFA_XSP16, literal(-9)))
          CFI (cfiCond225) V1 load(1, XDATA, add(CFA_XSP16, literal(-8)))
          CFI (cfiCond225) V2 load(1, XDATA, add(CFA_XSP16, literal(-7)))
          CFI (cfiCond225) R7 load(1, XDATA, add(CFA_XSP16, literal(-6)))
          CFI (cfiCond225) ?RET_LOW load(1, XDATA, add(CFA_XSP16, literal(-5)))
          CFI (cfiCond225) ?RET_HIGH load(1, XDATA, add(CFA_XSP16, literal(-4)))
          CFI (cfiCond225) ?BRET_EXT load(1, XDATA, add(CFA_XSP16, literal(-3)))
          CFI (cfiCond225) DPL0 load(1, XDATA, add(CFA_XSP16, literal(-2)))
          CFI (cfiCond225) DPH0 load(1, XDATA, add(CFA_XSP16, literal(-1)))
          CFI (cfiCond225) CFA_SP SP+-4
          CFI (cfiCond225) CFA_XSP16 add(XSP16, 12)
          CFI Block cfiCond226 Using cfiCommon0
          CFI (cfiCond226) Function MT_AfExec
          CFI (cfiCond226) Conditional ??CrossCallReturnLabel_145, ??CrossCallReturnLabel_133
          CFI (cfiCond226) R6 load(1, XDATA, add(CFA_XSP16, literal(-9)))
          CFI (cfiCond226) VB load(1, XDATA, add(CFA_XSP16, literal(-8)))
          CFI (cfiCond226) V0 load(1, XDATA, add(CFA_XSP16, literal(-7)))
          CFI (cfiCond226) R7 load(1, XDATA, add(CFA_XSP16, literal(-6)))
          CFI (cfiCond226) ?RET_LOW load(1, XDATA, add(CFA_XSP16, literal(-5)))
          CFI (cfiCond226) ?RET_HIGH load(1, XDATA, add(CFA_XSP16, literal(-4)))
          CFI (cfiCond226) ?BRET_EXT load(1, XDATA, add(CFA_XSP16, literal(-3)))
          CFI (cfiCond226) DPL0 load(1, XDATA, add(CFA_XSP16, literal(-2)))
          CFI (cfiCond226) DPH0 load(1, XDATA, add(CFA_XSP16, literal(-1)))
          CFI (cfiCond226) CFA_SP SP+-4
          CFI (cfiCond226) CFA_XSP16 add(XSP16, 9)
          CFI Block cfiCond227 Using cfiCommon0
          CFI (cfiCond227) Function MT_AfIncomingMsg
          CFI (cfiCond227) Conditional ??CrossCallReturnLabel_145, ??CrossCallReturnLabel_134
          CFI (cfiCond227) R6 load(1, XDATA, add(CFA_XSP16, literal(-20)))
          CFI (cfiCond227) VB load(1, XDATA, add(CFA_XSP16, literal(-19)))
          CFI (cfiCond227) V0 load(1, XDATA, add(CFA_XSP16, literal(-18)))
          CFI (cfiCond227) V1 load(1, XDATA, add(CFA_XSP16, literal(-17)))
          CFI (cfiCond227) V2 load(1, XDATA, add(CFA_XSP16, literal(-16)))
          CFI (cfiCond227) V3 load(1, XDATA, add(CFA_XSP16, literal(-15)))
          CFI (cfiCond227) V4 load(1, XDATA, add(CFA_XSP16, literal(-14)))
          CFI (cfiCond227) V5 load(1, XDATA, add(CFA_XSP16, literal(-13)))
          CFI (cfiCond227) V6 load(1, XDATA, add(CFA_XSP16, literal(-12)))
          CFI (cfiCond227) V7 load(1, XDATA, add(CFA_XSP16, literal(-11)))
          CFI (cfiCond227) V8 load(1, XDATA, add(CFA_XSP16, literal(-10)))
          CFI (cfiCond227) V9 load(1, XDATA, add(CFA_XSP16, literal(-9)))
          CFI (cfiCond227) V10 load(1, XDATA, add(CFA_XSP16, literal(-8)))
          CFI (cfiCond227) V11 load(1, XDATA, add(CFA_XSP16, literal(-7)))
          CFI (cfiCond227) R7 load(1, XDATA, add(CFA_XSP16, literal(-6)))
          CFI (cfiCond227) ?RET_LOW load(1, XDATA, add(CFA_XSP16, literal(-5)))
          CFI (cfiCond227) ?RET_HIGH load(1, XDATA, add(CFA_XSP16, literal(-4)))
          CFI (cfiCond227) ?BRET_EXT load(1, XDATA, add(CFA_XSP16, literal(-3)))
          CFI (cfiCond227) DPL0 load(1, XDATA, add(CFA_XSP16, literal(-2)))
          CFI (cfiCond227) DPH0 load(1, XDATA, add(CFA_XSP16, literal(-1)))
          CFI (cfiCond227) CFA_SP SP+-4
          CFI (cfiCond227) CFA_XSP16 add(XSP16, 23)
          CFI Block cfiCond228 Using cfiCommon0
          CFI (cfiCond228) Function MT_AfDataRetrieve
          CFI (cfiCond228) Conditional ??CrossCallReturnLabel_145, ??CrossCallReturnLabel_135
          CFI (cfiCond228) R6 load(1, XDATA, add(CFA_XSP16, literal(-20)))
          CFI (cfiCond228) VB load(1, XDATA, add(CFA_XSP16, literal(-19)))
          CFI (cfiCond228) V0 load(1, XDATA, add(CFA_XSP16, literal(-18)))
          CFI (cfiCond228) V1 load(1, XDATA, add(CFA_XSP16, literal(-17)))
          CFI (cfiCond228) V2 load(1, XDATA, add(CFA_XSP16, literal(-16)))
          CFI (cfiCond228) V3 load(1, XDATA, add(CFA_XSP16, literal(-15)))
          CFI (cfiCond228) V4 load(1, XDATA, add(CFA_XSP16, literal(-14)))
          CFI (cfiCond228) V5 load(1, XDATA, add(CFA_XSP16, literal(-13)))
          CFI (cfiCond228) V6 load(1, XDATA, add(CFA_XSP16, literal(-12)))
          CFI (cfiCond228) V7 load(1, XDATA, add(CFA_XSP16, literal(-11)))
          CFI (cfiCond228) V8 load(1, XDATA, add(CFA_XSP16, literal(-10)))
          CFI (cfiCond228) V9 load(1, XDATA, add(CFA_XSP16, literal(-9)))
          CFI (cfiCond228) V10 load(1, XDATA, add(CFA_XSP16, literal(-8)))
          CFI (cfiCond228) V11 load(1, XDATA, add(CFA_XSP16, literal(-7)))
          CFI (cfiCond228) R7 load(1, XDATA, add(CFA_XSP16, literal(-6)))
          CFI (cfiCond228) ?RET_LOW load(1, XDATA, add(CFA_XSP16, literal(-5)))
          CFI (cfiCond228) ?RET_HIGH load(1, XDATA, add(CFA_XSP16, literal(-4)))
          CFI (cfiCond228) ?BRET_EXT load(1, XDATA, add(CFA_XSP16, literal(-3)))
          CFI (cfiCond228) DPL0 load(1, XDATA, add(CFA_XSP16, literal(-2)))
          CFI (cfiCond228) DPH0 load(1, XDATA, add(CFA_XSP16, literal(-1)))
          CFI (cfiCond228) CFA_SP SP+-4
          CFI (cfiCond228) CFA_XSP16 add(XSP16, 23)
          CFI Block cfiPicker229 Using cfiCommon1
          CFI (cfiPicker229) NoFunction
          CFI (cfiPicker229) Picker
        MOVX      A,@DPTR
        MOV       R0,A
        INC       DPTR
        MOVX      A,@DPTR
        RET
          CFI EndBlock cfiCond190
          CFI EndBlock cfiCond191
          CFI EndBlock cfiCond192
          CFI EndBlock cfiCond193
          CFI EndBlock cfiCond194
          CFI EndBlock cfiCond195
          CFI EndBlock cfiCond196
          CFI EndBlock cfiCond197
          CFI EndBlock cfiCond198
          CFI EndBlock cfiCond199
          CFI EndBlock cfiCond200
          CFI EndBlock cfiCond201
          CFI EndBlock cfiCond202
          CFI EndBlock cfiCond203
          CFI EndBlock cfiCond204
          CFI EndBlock cfiCond205
          CFI EndBlock cfiCond206
          CFI EndBlock cfiCond207
          CFI EndBlock cfiCond208
          CFI EndBlock cfiCond209
          CFI EndBlock cfiCond210
          CFI EndBlock cfiCond211
          CFI EndBlock cfiCond212
          CFI EndBlock cfiCond213
          CFI EndBlock cfiCond214
          CFI EndBlock cfiCond215
          CFI EndBlock cfiCond216
          CFI EndBlock cfiCond217
          CFI EndBlock cfiCond218
          CFI EndBlock cfiCond219
          CFI EndBlock cfiCond220
          CFI EndBlock cfiCond221
          CFI EndBlock cfiCond222
          CFI EndBlock cfiCond223
          CFI EndBlock cfiCond224
          CFI EndBlock cfiCond225
          CFI EndBlock cfiCond226
          CFI EndBlock cfiCond227
          CFI EndBlock cfiCond228
          CFI EndBlock cfiPicker229

        RSEG BANKED_CODE:HUGECODE:NOROOT(0)
?Subroutine6:
          CFI Block cfiCond230 Using cfiCommon0
          CFI Function MT_AfIncomingMsg
          CFI Conditional ??CrossCallReturnLabel_121
          CFI R6 load(1, XDATA, add(CFA_XSP16, literal(-20)))
          CFI VB load(1, XDATA, add(CFA_XSP16, literal(-19)))
          CFI V0 load(1, XDATA, add(CFA_XSP16, literal(-18)))
          CFI V1 load(1, XDATA, add(CFA_XSP16, literal(-17)))
          CFI V2 load(1, XDATA, add(CFA_XSP16, literal(-16)))
          CFI V3 load(1, XDATA, add(CFA_XSP16, literal(-15)))
          CFI V4 load(1, XDATA, add(CFA_XSP16, literal(-14)))
          CFI V5 load(1, XDATA, add(CFA_XSP16, literal(-13)))
          CFI V6 load(1, XDATA, add(CFA_XSP16, literal(-12)))
          CFI V7 load(1, XDATA, add(CFA_XSP16, literal(-11)))
          CFI V8 load(1, XDATA, add(CFA_XSP16, literal(-10)))
          CFI V9 load(1, XDATA, add(CFA_XSP16, literal(-9)))
          CFI V10 load(1, XDATA, add(CFA_XSP16, literal(-8)))
          CFI V11 load(1, XDATA, add(CFA_XSP16, literal(-7)))
          CFI R7 load(1, XDATA, add(CFA_XSP16, literal(-6)))
          CFI ?RET_LOW load(1, XDATA, add(CFA_XSP16, literal(-5)))
          CFI ?RET_HIGH load(1, XDATA, add(CFA_XSP16, literal(-4)))
          CFI ?BRET_EXT load(1, XDATA, add(CFA_XSP16, literal(-3)))
          CFI DPL0 load(1, XDATA, add(CFA_XSP16, literal(-2)))
          CFI DPH0 load(1, XDATA, add(CFA_XSP16, literal(-1)))
          CFI CFA_XSP16 add(XSP16, 23)
          CFI Block cfiCond231 Using cfiCommon0
          CFI (cfiCond231) Function MT_AfIncomingMsg
          CFI (cfiCond231) Conditional ??CrossCallReturnLabel_122
          CFI (cfiCond231) R6 load(1, XDATA, add(CFA_XSP16, literal(-20)))
          CFI (cfiCond231) VB load(1, XDATA, add(CFA_XSP16, literal(-19)))
          CFI (cfiCond231) V0 load(1, XDATA, add(CFA_XSP16, literal(-18)))
          CFI (cfiCond231) V1 load(1, XDATA, add(CFA_XSP16, literal(-17)))
          CFI (cfiCond231) V2 load(1, XDATA, add(CFA_XSP16, literal(-16)))
          CFI (cfiCond231) V3 load(1, XDATA, add(CFA_XSP16, literal(-15)))
          CFI (cfiCond231) V4 load(1, XDATA, add(CFA_XSP16, literal(-14)))
          CFI (cfiCond231) V5 load(1, XDATA, add(CFA_XSP16, literal(-13)))
          CFI (cfiCond231) V6 load(1, XDATA, add(CFA_XSP16, literal(-12)))
          CFI (cfiCond231) V7 load(1, XDATA, add(CFA_XSP16, literal(-11)))
          CFI (cfiCond231) V8 load(1, XDATA, add(CFA_XSP16, literal(-10)))
          CFI (cfiCond231) V9 load(1, XDATA, add(CFA_XSP16, literal(-9)))
          CFI (cfiCond231) V10 load(1, XDATA, add(CFA_XSP16, literal(-8)))
          CFI (cfiCond231) V11 load(1, XDATA, add(CFA_XSP16, literal(-7)))
          CFI (cfiCond231) R7 load(1, XDATA, add(CFA_XSP16, literal(-6)))
          CFI (cfiCond231) ?RET_LOW load(1, XDATA, add(CFA_XSP16, literal(-5)))
          CFI (cfiCond231) ?RET_HIGH load(1, XDATA, add(CFA_XSP16, literal(-4)))
          CFI (cfiCond231) ?BRET_EXT load(1, XDATA, add(CFA_XSP16, literal(-3)))
          CFI (cfiCond231) DPL0 load(1, XDATA, add(CFA_XSP16, literal(-2)))
          CFI (cfiCond231) DPH0 load(1, XDATA, add(CFA_XSP16, literal(-1)))
          CFI (cfiCond231) CFA_XSP16 add(XSP16, 23)
          CFI Block cfiPicker232 Using cfiCommon1
          CFI (cfiPicker232) NoFunction
          CFI (cfiPicker232) Picker
        MOV       DPL,?XSP + 0
        MOV       DPH,?XSP + 1
          CFI EndBlock cfiCond230
          CFI EndBlock cfiCond231
          CFI EndBlock cfiPicker232
        REQUIRE ??Subroutine60_0
        ; // Fall through to label ??Subroutine60_0

        RSEG BANKED_CODE:HUGECODE:NOROOT(0)
??Subroutine60_0:
          CFI Block cfiCond233 Using cfiCommon0
          CFI Function MT_AfDataRetrieve
          CFI Conditional ??CrossCallReturnLabel_120
          CFI R6 load(1, XDATA, add(CFA_XSP16, literal(-20)))
          CFI VB load(1, XDATA, add(CFA_XSP16, literal(-19)))
          CFI V0 load(1, XDATA, add(CFA_XSP16, literal(-18)))
          CFI V1 load(1, XDATA, add(CFA_XSP16, literal(-17)))
          CFI V2 load(1, XDATA, add(CFA_XSP16, literal(-16)))
          CFI V3 load(1, XDATA, add(CFA_XSP16, literal(-15)))
          CFI V4 load(1, XDATA, add(CFA_XSP16, literal(-14)))
          CFI V5 load(1, XDATA, add(CFA_XSP16, literal(-13)))
          CFI V6 load(1, XDATA, add(CFA_XSP16, literal(-12)))
          CFI V7 load(1, XDATA, add(CFA_XSP16, literal(-11)))
          CFI V8 load(1, XDATA, add(CFA_XSP16, literal(-10)))
          CFI V9 load(1, XDATA, add(CFA_XSP16, literal(-9)))
          CFI V10 load(1, XDATA, add(CFA_XSP16, literal(-8)))
          CFI V11 load(1, XDATA, add(CFA_XSP16, literal(-7)))
          CFI R7 load(1, XDATA, add(CFA_XSP16, literal(-6)))
          CFI ?RET_LOW load(1, XDATA, add(CFA_XSP16, literal(-5)))
          CFI ?RET_HIGH load(1, XDATA, add(CFA_XSP16, literal(-4)))
          CFI ?BRET_EXT load(1, XDATA, add(CFA_XSP16, literal(-3)))
          CFI DPL0 load(1, XDATA, add(CFA_XSP16, literal(-2)))
          CFI DPH0 load(1, XDATA, add(CFA_XSP16, literal(-1)))
          CFI CFA_SP SP+-2
          CFI CFA_XSP16 add(XSP16, 23)
          CFI Block cfiCond234 Using cfiCommon0
          CFI (cfiCond234) Function MT_AfIncomingMsg
          CFI (cfiCond234) Conditional ??CrossCallReturnLabel_121
          CFI (cfiCond234) R6 load(1, XDATA, add(CFA_XSP16, literal(-20)))
          CFI (cfiCond234) VB load(1, XDATA, add(CFA_XSP16, literal(-19)))
          CFI (cfiCond234) V0 load(1, XDATA, add(CFA_XSP16, literal(-18)))
          CFI (cfiCond234) V1 load(1, XDATA, add(CFA_XSP16, literal(-17)))
          CFI (cfiCond234) V2 load(1, XDATA, add(CFA_XSP16, literal(-16)))
          CFI (cfiCond234) V3 load(1, XDATA, add(CFA_XSP16, literal(-15)))
          CFI (cfiCond234) V4 load(1, XDATA, add(CFA_XSP16, literal(-14)))
          CFI (cfiCond234) V5 load(1, XDATA, add(CFA_XSP16, literal(-13)))
          CFI (cfiCond234) V6 load(1, XDATA, add(CFA_XSP16, literal(-12)))
          CFI (cfiCond234) V7 load(1, XDATA, add(CFA_XSP16, literal(-11)))
          CFI (cfiCond234) V8 load(1, XDATA, add(CFA_XSP16, literal(-10)))
          CFI (cfiCond234) V9 load(1, XDATA, add(CFA_XSP16, literal(-9)))
          CFI (cfiCond234) V10 load(1, XDATA, add(CFA_XSP16, literal(-8)))
          CFI (cfiCond234) V11 load(1, XDATA, add(CFA_XSP16, literal(-7)))
          CFI (cfiCond234) R7 load(1, XDATA, add(CFA_XSP16, literal(-6)))
          CFI (cfiCond234) ?RET_LOW load(1, XDATA, add(CFA_XSP16, literal(-5)))
          CFI (cfiCond234) ?RET_HIGH load(1, XDATA, add(CFA_XSP16, literal(-4)))
          CFI (cfiCond234) ?BRET_EXT load(1, XDATA, add(CFA_XSP16, literal(-3)))
          CFI (cfiCond234) DPL0 load(1, XDATA, add(CFA_XSP16, literal(-2)))
          CFI (cfiCond234) DPH0 load(1, XDATA, add(CFA_XSP16, literal(-1)))
          CFI (cfiCond234) CFA_XSP16 add(XSP16, 23)
          CFI Block cfiCond235 Using cfiCommon0
          CFI (cfiCond235) Function MT_AfIncomingMsg
          CFI (cfiCond235) Conditional ??CrossCallReturnLabel_122
          CFI (cfiCond235) R6 load(1, XDATA, add(CFA_XSP16, literal(-20)))
          CFI (cfiCond235) VB load(1, XDATA, add(CFA_XSP16, literal(-19)))
          CFI (cfiCond235) V0 load(1, XDATA, add(CFA_XSP16, literal(-18)))
          CFI (cfiCond235) V1 load(1, XDATA, add(CFA_XSP16, literal(-17)))
          CFI (cfiCond235) V2 load(1, XDATA, add(CFA_XSP16, literal(-16)))
          CFI (cfiCond235) V3 load(1, XDATA, add(CFA_XSP16, literal(-15)))
          CFI (cfiCond235) V4 load(1, XDATA, add(CFA_XSP16, literal(-14)))
          CFI (cfiCond235) V5 load(1, XDATA, add(CFA_XSP16, literal(-13)))
          CFI (cfiCond235) V6 load(1, XDATA, add(CFA_XSP16, literal(-12)))
          CFI (cfiCond235) V7 load(1, XDATA, add(CFA_XSP16, literal(-11)))
          CFI (cfiCond235) V8 load(1, XDATA, add(CFA_XSP16, literal(-10)))
          CFI (cfiCond235) V9 load(1, XDATA, add(CFA_XSP16, literal(-9)))
          CFI (cfiCond235) V10 load(1, XDATA, add(CFA_XSP16, literal(-8)))
          CFI (cfiCond235) V11 load(1, XDATA, add(CFA_XSP16, literal(-7)))
          CFI (cfiCond235) R7 load(1, XDATA, add(CFA_XSP16, literal(-6)))
          CFI (cfiCond235) ?RET_LOW load(1, XDATA, add(CFA_XSP16, literal(-5)))
          CFI (cfiCond235) ?RET_HIGH load(1, XDATA, add(CFA_XSP16, literal(-4)))
          CFI (cfiCond235) ?BRET_EXT load(1, XDATA, add(CFA_XSP16, literal(-3)))
          CFI (cfiCond235) DPL0 load(1, XDATA, add(CFA_XSP16, literal(-2)))
          CFI (cfiCond235) DPH0 load(1, XDATA, add(CFA_XSP16, literal(-1)))
          CFI (cfiCond235) CFA_XSP16 add(XSP16, 23)
          CFI Block cfiPicker236 Using cfiCommon1
          CFI (cfiPicker236) NoFunction
          CFI (cfiPicker236) Picker
        LCALL     ?Subroutine39 & 0xFFFF
??CrossCallReturnLabel_124:
        RET
          CFI EndBlock cfiCond233
          CFI EndBlock cfiCond234
          CFI EndBlock cfiCond235
          CFI EndBlock cfiPicker236

        RSEG BANKED_CODE:HUGECODE:NOROOT(0)
?Subroutine39:
          CFI Block cfiCond237 Using cfiCommon0
          CFI Function MT_AfIncomingMsg
          CFI Conditional ??CrossCallReturnLabel_124, ??CrossCallReturnLabel_121
          CFI R6 load(1, XDATA, add(CFA_XSP16, literal(-20)))
          CFI VB load(1, XDATA, add(CFA_XSP16, literal(-19)))
          CFI V0 load(1, XDATA, add(CFA_XSP16, literal(-18)))
          CFI V1 load(1, XDATA, add(CFA_XSP16, literal(-17)))
          CFI V2 load(1, XDATA, add(CFA_XSP16, literal(-16)))
          CFI V3 load(1, XDATA, add(CFA_XSP16, literal(-15)))
          CFI V4 load(1, XDATA, add(CFA_XSP16, literal(-14)))
          CFI V5 load(1, XDATA, add(CFA_XSP16, literal(-13)))
          CFI V6 load(1, XDATA, add(CFA_XSP16, literal(-12)))
          CFI V7 load(1, XDATA, add(CFA_XSP16, literal(-11)))
          CFI V8 load(1, XDATA, add(CFA_XSP16, literal(-10)))
          CFI V9 load(1, XDATA, add(CFA_XSP16, literal(-9)))
          CFI V10 load(1, XDATA, add(CFA_XSP16, literal(-8)))
          CFI V11 load(1, XDATA, add(CFA_XSP16, literal(-7)))
          CFI R7 load(1, XDATA, add(CFA_XSP16, literal(-6)))
          CFI ?RET_LOW load(1, XDATA, add(CFA_XSP16, literal(-5)))
          CFI ?RET_HIGH load(1, XDATA, add(CFA_XSP16, literal(-4)))
          CFI ?BRET_EXT load(1, XDATA, add(CFA_XSP16, literal(-3)))
          CFI DPL0 load(1, XDATA, add(CFA_XSP16, literal(-2)))
          CFI DPH0 load(1, XDATA, add(CFA_XSP16, literal(-1)))
          CFI CFA_SP SP+-5
          CFI CFA_XSP16 add(XSP16, 23)
          CFI Block cfiCond238 Using cfiCommon0
          CFI (cfiCond238) Function MT_AfIncomingMsg
          CFI (cfiCond238) Conditional ??CrossCallReturnLabel_124, ??CrossCallReturnLabel_122
          CFI (cfiCond238) R6 load(1, XDATA, add(CFA_XSP16, literal(-20)))
          CFI (cfiCond238) VB load(1, XDATA, add(CFA_XSP16, literal(-19)))
          CFI (cfiCond238) V0 load(1, XDATA, add(CFA_XSP16, literal(-18)))
          CFI (cfiCond238) V1 load(1, XDATA, add(CFA_XSP16, literal(-17)))
          CFI (cfiCond238) V2 load(1, XDATA, add(CFA_XSP16, literal(-16)))
          CFI (cfiCond238) V3 load(1, XDATA, add(CFA_XSP16, literal(-15)))
          CFI (cfiCond238) V4 load(1, XDATA, add(CFA_XSP16, literal(-14)))
          CFI (cfiCond238) V5 load(1, XDATA, add(CFA_XSP16, literal(-13)))
          CFI (cfiCond238) V6 load(1, XDATA, add(CFA_XSP16, literal(-12)))
          CFI (cfiCond238) V7 load(1, XDATA, add(CFA_XSP16, literal(-11)))
          CFI (cfiCond238) V8 load(1, XDATA, add(CFA_XSP16, literal(-10)))
          CFI (cfiCond238) V9 load(1, XDATA, add(CFA_XSP16, literal(-9)))
          CFI (cfiCond238) V10 load(1, XDATA, add(CFA_XSP16, literal(-8)))
          CFI (cfiCond238) V11 load(1, XDATA, add(CFA_XSP16, literal(-7)))
          CFI (cfiCond238) R7 load(1, XDATA, add(CFA_XSP16, literal(-6)))
          CFI (cfiCond238) ?RET_LOW load(1, XDATA, add(CFA_XSP16, literal(-5)))
          CFI (cfiCond238) ?RET_HIGH load(1, XDATA, add(CFA_XSP16, literal(-4)))
          CFI (cfiCond238) ?BRET_EXT load(1, XDATA, add(CFA_XSP16, literal(-3)))
          CFI (cfiCond238) DPL0 load(1, XDATA, add(CFA_XSP16, literal(-2)))
          CFI (cfiCond238) DPH0 load(1, XDATA, add(CFA_XSP16, literal(-1)))
          CFI (cfiCond238) CFA_SP SP+-5
          CFI (cfiCond238) CFA_XSP16 add(XSP16, 23)
          CFI Block cfiCond239 Using cfiCommon0
          CFI (cfiCond239) Function MT_AfDataRetrieve
          CFI (cfiCond239) Conditional ??CrossCallReturnLabel_124, ??CrossCallReturnLabel_120
          CFI (cfiCond239) R6 load(1, XDATA, add(CFA_XSP16, literal(-20)))
          CFI (cfiCond239) VB load(1, XDATA, add(CFA_XSP16, literal(-19)))
          CFI (cfiCond239) V0 load(1, XDATA, add(CFA_XSP16, literal(-18)))
          CFI (cfiCond239) V1 load(1, XDATA, add(CFA_XSP16, literal(-17)))
          CFI (cfiCond239) V2 load(1, XDATA, add(CFA_XSP16, literal(-16)))
          CFI (cfiCond239) V3 load(1, XDATA, add(CFA_XSP16, literal(-15)))
          CFI (cfiCond239) V4 load(1, XDATA, add(CFA_XSP16, literal(-14)))
          CFI (cfiCond239) V5 load(1, XDATA, add(CFA_XSP16, literal(-13)))
          CFI (cfiCond239) V6 load(1, XDATA, add(CFA_XSP16, literal(-12)))
          CFI (cfiCond239) V7 load(1, XDATA, add(CFA_XSP16, literal(-11)))
          CFI (cfiCond239) V8 load(1, XDATA, add(CFA_XSP16, literal(-10)))
          CFI (cfiCond239) V9 load(1, XDATA, add(CFA_XSP16, literal(-9)))
          CFI (cfiCond239) V10 load(1, XDATA, add(CFA_XSP16, literal(-8)))
          CFI (cfiCond239) V11 load(1, XDATA, add(CFA_XSP16, literal(-7)))
          CFI (cfiCond239) R7 load(1, XDATA, add(CFA_XSP16, literal(-6)))
          CFI (cfiCond239) ?RET_LOW load(1, XDATA, add(CFA_XSP16, literal(-5)))
          CFI (cfiCond239) ?RET_HIGH load(1, XDATA, add(CFA_XSP16, literal(-4)))
          CFI (cfiCond239) ?BRET_EXT load(1, XDATA, add(CFA_XSP16, literal(-3)))
          CFI (cfiCond239) DPL0 load(1, XDATA, add(CFA_XSP16, literal(-2)))
          CFI (cfiCond239) DPH0 load(1, XDATA, add(CFA_XSP16, literal(-1)))
          CFI (cfiCond239) CFA_SP SP+-4
          CFI (cfiCond239) CFA_XSP16 add(XSP16, 23)
          CFI Block cfiCond240 Using cfiCommon0
          CFI (cfiCond240) Function MT_AfIncomingMsg
          CFI (cfiCond240) Conditional ??CrossCallReturnLabel_123, ??CrossCallReturnLabel_5
          CFI (cfiCond240) R6 load(1, XDATA, add(CFA_XSP16, literal(-20)))
          CFI (cfiCond240) VB load(1, XDATA, add(CFA_XSP16, literal(-19)))
          CFI (cfiCond240) V0 load(1, XDATA, add(CFA_XSP16, literal(-18)))
          CFI (cfiCond240) V1 load(1, XDATA, add(CFA_XSP16, literal(-17)))
          CFI (cfiCond240) V2 load(1, XDATA, add(CFA_XSP16, literal(-16)))
          CFI (cfiCond240) V3 load(1, XDATA, add(CFA_XSP16, literal(-15)))
          CFI (cfiCond240) V4 load(1, XDATA, add(CFA_XSP16, literal(-14)))
          CFI (cfiCond240) V5 load(1, XDATA, add(CFA_XSP16, literal(-13)))
          CFI (cfiCond240) V6 load(1, XDATA, add(CFA_XSP16, literal(-12)))
          CFI (cfiCond240) V7 load(1, XDATA, add(CFA_XSP16, literal(-11)))
          CFI (cfiCond240) V8 load(1, XDATA, add(CFA_XSP16, literal(-10)))
          CFI (cfiCond240) V9 load(1, XDATA, add(CFA_XSP16, literal(-9)))
          CFI (cfiCond240) V10 load(1, XDATA, add(CFA_XSP16, literal(-8)))
          CFI (cfiCond240) V11 load(1, XDATA, add(CFA_XSP16, literal(-7)))
          CFI (cfiCond240) R7 load(1, XDATA, add(CFA_XSP16, literal(-6)))
          CFI (cfiCond240) ?RET_LOW load(1, XDATA, add(CFA_XSP16, literal(-5)))
          CFI (cfiCond240) ?RET_HIGH load(1, XDATA, add(CFA_XSP16, literal(-4)))
          CFI (cfiCond240) ?BRET_EXT load(1, XDATA, add(CFA_XSP16, literal(-3)))
          CFI (cfiCond240) DPL0 load(1, XDATA, add(CFA_XSP16, literal(-2)))
          CFI (cfiCond240) DPH0 load(1, XDATA, add(CFA_XSP16, literal(-1)))
          CFI (cfiCond240) CFA_SP SP+-5
          CFI (cfiCond240) CFA_XSP16 add(XSP16, 23)
          CFI Block cfiCond241 Using cfiCommon0
          CFI (cfiCond241) Function MT_AfIncomingMsg
          CFI (cfiCond241) Conditional ??CrossCallReturnLabel_123, ??CrossCallReturnLabel_6
          CFI (cfiCond241) R6 load(1, XDATA, add(CFA_XSP16, literal(-20)))
          CFI (cfiCond241) VB load(1, XDATA, add(CFA_XSP16, literal(-19)))
          CFI (cfiCond241) V0 load(1, XDATA, add(CFA_XSP16, literal(-18)))
          CFI (cfiCond241) V1 load(1, XDATA, add(CFA_XSP16, literal(-17)))
          CFI (cfiCond241) V2 load(1, XDATA, add(CFA_XSP16, literal(-16)))
          CFI (cfiCond241) V3 load(1, XDATA, add(CFA_XSP16, literal(-15)))
          CFI (cfiCond241) V4 load(1, XDATA, add(CFA_XSP16, literal(-14)))
          CFI (cfiCond241) V5 load(1, XDATA, add(CFA_XSP16, literal(-13)))
          CFI (cfiCond241) V6 load(1, XDATA, add(CFA_XSP16, literal(-12)))
          CFI (cfiCond241) V7 load(1, XDATA, add(CFA_XSP16, literal(-11)))
          CFI (cfiCond241) V8 load(1, XDATA, add(CFA_XSP16, literal(-10)))
          CFI (cfiCond241) V9 load(1, XDATA, add(CFA_XSP16, literal(-9)))
          CFI (cfiCond241) V10 load(1, XDATA, add(CFA_XSP16, literal(-8)))
          CFI (cfiCond241) V11 load(1, XDATA, add(CFA_XSP16, literal(-7)))
          CFI (cfiCond241) R7 load(1, XDATA, add(CFA_XSP16, literal(-6)))
          CFI (cfiCond241) ?RET_LOW load(1, XDATA, add(CFA_XSP16, literal(-5)))
          CFI (cfiCond241) ?RET_HIGH load(1, XDATA, add(CFA_XSP16, literal(-4)))
          CFI (cfiCond241) ?BRET_EXT load(1, XDATA, add(CFA_XSP16, literal(-3)))
          CFI (cfiCond241) DPL0 load(1, XDATA, add(CFA_XSP16, literal(-2)))
          CFI (cfiCond241) DPH0 load(1, XDATA, add(CFA_XSP16, literal(-1)))
          CFI (cfiCond241) CFA_SP SP+-5
          CFI (cfiCond241) CFA_XSP16 add(XSP16, 23)
          CFI Block cfiCond242 Using cfiCommon0
          CFI (cfiCond242) Function MT_AfIncomingMsg
          CFI (cfiCond242) Conditional ??CrossCallReturnLabel_123, ??CrossCallReturnLabel_7
          CFI (cfiCond242) R6 load(1, XDATA, add(CFA_XSP16, literal(-20)))
          CFI (cfiCond242) VB load(1, XDATA, add(CFA_XSP16, literal(-19)))
          CFI (cfiCond242) V0 load(1, XDATA, add(CFA_XSP16, literal(-18)))
          CFI (cfiCond242) V1 load(1, XDATA, add(CFA_XSP16, literal(-17)))
          CFI (cfiCond242) V2 load(1, XDATA, add(CFA_XSP16, literal(-16)))
          CFI (cfiCond242) V3 load(1, XDATA, add(CFA_XSP16, literal(-15)))
          CFI (cfiCond242) V4 load(1, XDATA, add(CFA_XSP16, literal(-14)))
          CFI (cfiCond242) V5 load(1, XDATA, add(CFA_XSP16, literal(-13)))
          CFI (cfiCond242) V6 load(1, XDATA, add(CFA_XSP16, literal(-12)))
          CFI (cfiCond242) V7 load(1, XDATA, add(CFA_XSP16, literal(-11)))
          CFI (cfiCond242) V8 load(1, XDATA, add(CFA_XSP16, literal(-10)))
          CFI (cfiCond242) V9 load(1, XDATA, add(CFA_XSP16, literal(-9)))
          CFI (cfiCond242) V10 load(1, XDATA, add(CFA_XSP16, literal(-8)))
          CFI (cfiCond242) V11 load(1, XDATA, add(CFA_XSP16, literal(-7)))
          CFI (cfiCond242) R7 load(1, XDATA, add(CFA_XSP16, literal(-6)))
          CFI (cfiCond242) ?RET_LOW load(1, XDATA, add(CFA_XSP16, literal(-5)))
          CFI (cfiCond242) ?RET_HIGH load(1, XDATA, add(CFA_XSP16, literal(-4)))
          CFI (cfiCond242) ?BRET_EXT load(1, XDATA, add(CFA_XSP16, literal(-3)))
          CFI (cfiCond242) DPL0 load(1, XDATA, add(CFA_XSP16, literal(-2)))
          CFI (cfiCond242) DPH0 load(1, XDATA, add(CFA_XSP16, literal(-1)))
          CFI (cfiCond242) CFA_SP SP+-5
          CFI (cfiCond242) CFA_XSP16 add(XSP16, 23)
          CFI Block cfiPicker243 Using cfiCommon1
          CFI (cfiPicker243) NoFunction
          CFI (cfiPicker243) Picker
        LCALL     ?Subroutine48 & 0xFFFF
??CrossCallReturnLabel_126:
        INC       DPTR
        INC       DPTR
        RET
          CFI EndBlock cfiCond237
          CFI EndBlock cfiCond238
          CFI EndBlock cfiCond239
          CFI EndBlock cfiCond240
          CFI EndBlock cfiCond241
          CFI EndBlock cfiCond242
          CFI EndBlock cfiPicker243

        RSEG BANKED_CODE:HUGECODE:NOROOT(0)
?Subroutine5:
          CFI Block cfiCond244 Using cfiCommon0
          CFI Function MT_AfIncomingMsg
          CFI Conditional ??CrossCallReturnLabel_5
          CFI R6 load(1, XDATA, add(CFA_XSP16, literal(-20)))
          CFI VB load(1, XDATA, add(CFA_XSP16, literal(-19)))
          CFI V0 load(1, XDATA, add(CFA_XSP16, literal(-18)))
          CFI V1 load(1, XDATA, add(CFA_XSP16, literal(-17)))
          CFI V2 load(1, XDATA, add(CFA_XSP16, literal(-16)))
          CFI V3 load(1, XDATA, add(CFA_XSP16, literal(-15)))
          CFI V4 load(1, XDATA, add(CFA_XSP16, literal(-14)))
          CFI V5 load(1, XDATA, add(CFA_XSP16, literal(-13)))
          CFI V6 load(1, XDATA, add(CFA_XSP16, literal(-12)))
          CFI V7 load(1, XDATA, add(CFA_XSP16, literal(-11)))
          CFI V8 load(1, XDATA, add(CFA_XSP16, literal(-10)))
          CFI V9 load(1, XDATA, add(CFA_XSP16, literal(-9)))
          CFI V10 load(1, XDATA, add(CFA_XSP16, literal(-8)))
          CFI V11 load(1, XDATA, add(CFA_XSP16, literal(-7)))
          CFI R7 load(1, XDATA, add(CFA_XSP16, literal(-6)))
          CFI ?RET_LOW load(1, XDATA, add(CFA_XSP16, literal(-5)))
          CFI ?RET_HIGH load(1, XDATA, add(CFA_XSP16, literal(-4)))
          CFI ?BRET_EXT load(1, XDATA, add(CFA_XSP16, literal(-3)))
          CFI DPL0 load(1, XDATA, add(CFA_XSP16, literal(-2)))
          CFI DPH0 load(1, XDATA, add(CFA_XSP16, literal(-1)))
          CFI CFA_XSP16 add(XSP16, 23)
          CFI Block cfiCond245 Using cfiCommon0
          CFI (cfiCond245) Function MT_AfIncomingMsg
          CFI (cfiCond245) Conditional ??CrossCallReturnLabel_6
          CFI (cfiCond245) R6 load(1, XDATA, add(CFA_XSP16, literal(-20)))
          CFI (cfiCond245) VB load(1, XDATA, add(CFA_XSP16, literal(-19)))
          CFI (cfiCond245) V0 load(1, XDATA, add(CFA_XSP16, literal(-18)))
          CFI (cfiCond245) V1 load(1, XDATA, add(CFA_XSP16, literal(-17)))
          CFI (cfiCond245) V2 load(1, XDATA, add(CFA_XSP16, literal(-16)))
          CFI (cfiCond245) V3 load(1, XDATA, add(CFA_XSP16, literal(-15)))
          CFI (cfiCond245) V4 load(1, XDATA, add(CFA_XSP16, literal(-14)))
          CFI (cfiCond245) V5 load(1, XDATA, add(CFA_XSP16, literal(-13)))
          CFI (cfiCond245) V6 load(1, XDATA, add(CFA_XSP16, literal(-12)))
          CFI (cfiCond245) V7 load(1, XDATA, add(CFA_XSP16, literal(-11)))
          CFI (cfiCond245) V8 load(1, XDATA, add(CFA_XSP16, literal(-10)))
          CFI (cfiCond245) V9 load(1, XDATA, add(CFA_XSP16, literal(-9)))
          CFI (cfiCond245) V10 load(1, XDATA, add(CFA_XSP16, literal(-8)))
          CFI (cfiCond245) V11 load(1, XDATA, add(CFA_XSP16, literal(-7)))
          CFI (cfiCond245) R7 load(1, XDATA, add(CFA_XSP16, literal(-6)))
          CFI (cfiCond245) ?RET_LOW load(1, XDATA, add(CFA_XSP16, literal(-5)))
          CFI (cfiCond245) ?RET_HIGH load(1, XDATA, add(CFA_XSP16, literal(-4)))
          CFI (cfiCond245) ?BRET_EXT load(1, XDATA, add(CFA_XSP16, literal(-3)))
          CFI (cfiCond245) DPL0 load(1, XDATA, add(CFA_XSP16, literal(-2)))
          CFI (cfiCond245) DPH0 load(1, XDATA, add(CFA_XSP16, literal(-1)))
          CFI (cfiCond245) CFA_XSP16 add(XSP16, 23)
          CFI Block cfiCond246 Using cfiCommon0
          CFI (cfiCond246) Function MT_AfIncomingMsg
          CFI (cfiCond246) Conditional ??CrossCallReturnLabel_7
          CFI (cfiCond246) R6 load(1, XDATA, add(CFA_XSP16, literal(-20)))
          CFI (cfiCond246) VB load(1, XDATA, add(CFA_XSP16, literal(-19)))
          CFI (cfiCond246) V0 load(1, XDATA, add(CFA_XSP16, literal(-18)))
          CFI (cfiCond246) V1 load(1, XDATA, add(CFA_XSP16, literal(-17)))
          CFI (cfiCond246) V2 load(1, XDATA, add(CFA_XSP16, literal(-16)))
          CFI (cfiCond246) V3 load(1, XDATA, add(CFA_XSP16, literal(-15)))
          CFI (cfiCond246) V4 load(1, XDATA, add(CFA_XSP16, literal(-14)))
          CFI (cfiCond246) V5 load(1, XDATA, add(CFA_XSP16, literal(-13)))
          CFI (cfiCond246) V6 load(1, XDATA, add(CFA_XSP16, literal(-12)))
          CFI (cfiCond246) V7 load(1, XDATA, add(CFA_XSP16, literal(-11)))
          CFI (cfiCond246) V8 load(1, XDATA, add(CFA_XSP16, literal(-10)))
          CFI (cfiCond246) V9 load(1, XDATA, add(CFA_XSP16, literal(-9)))
          CFI (cfiCond246) V10 load(1, XDATA, add(CFA_XSP16, literal(-8)))
          CFI (cfiCond246) V11 load(1, XDATA, add(CFA_XSP16, literal(-7)))
          CFI (cfiCond246) R7 load(1, XDATA, add(CFA_XSP16, literal(-6)))
          CFI (cfiCond246) ?RET_LOW load(1, XDATA, add(CFA_XSP16, literal(-5)))
          CFI (cfiCond246) ?RET_HIGH load(1, XDATA, add(CFA_XSP16, literal(-4)))
          CFI (cfiCond246) ?BRET_EXT load(1, XDATA, add(CFA_XSP16, literal(-3)))
          CFI (cfiCond246) DPL0 load(1, XDATA, add(CFA_XSP16, literal(-2)))
          CFI (cfiCond246) DPH0 load(1, XDATA, add(CFA_XSP16, literal(-1)))
          CFI (cfiCond246) CFA_XSP16 add(XSP16, 23)
          CFI Block cfiPicker247 Using cfiCommon1
          CFI (cfiPicker247) NoFunction
          CFI (cfiPicker247) Picker
        MOV       DPL,?XSP + 0
        MOV       DPH,?XSP + 1
        LCALL     ?Subroutine39 & 0xFFFF
??CrossCallReturnLabel_123:
        INC       DPTR
        INC       DPTR
        RET
          CFI EndBlock cfiCond244
          CFI EndBlock cfiCond245
          CFI EndBlock cfiCond246
          CFI EndBlock cfiPicker247

        RSEG BANKED_CODE:HUGECODE:NOROOT(0)
?Subroutine2:
          CFI Block cfiCond248 Using cfiCommon0
          CFI Function MT_AfIncomingMsg
          CFI Conditional ??CrossCallReturnLabel_0
          CFI R6 load(1, XDATA, add(CFA_XSP16, literal(-20)))
          CFI VB load(1, XDATA, add(CFA_XSP16, literal(-19)))
          CFI V0 load(1, XDATA, add(CFA_XSP16, literal(-18)))
          CFI V1 load(1, XDATA, add(CFA_XSP16, literal(-17)))
          CFI V2 load(1, XDATA, add(CFA_XSP16, literal(-16)))
          CFI V3 load(1, XDATA, add(CFA_XSP16, literal(-15)))
          CFI V4 load(1, XDATA, add(CFA_XSP16, literal(-14)))
          CFI V5 load(1, XDATA, add(CFA_XSP16, literal(-13)))
          CFI V6 load(1, XDATA, add(CFA_XSP16, literal(-12)))
          CFI V7 load(1, XDATA, add(CFA_XSP16, literal(-11)))
          CFI V8 load(1, XDATA, add(CFA_XSP16, literal(-10)))
          CFI V9 load(1, XDATA, add(CFA_XSP16, literal(-9)))
          CFI V10 load(1, XDATA, add(CFA_XSP16, literal(-8)))
          CFI V11 load(1, XDATA, add(CFA_XSP16, literal(-7)))
          CFI R7 load(1, XDATA, add(CFA_XSP16, literal(-6)))
          CFI ?RET_LOW load(1, XDATA, add(CFA_XSP16, literal(-5)))
          CFI ?RET_HIGH load(1, XDATA, add(CFA_XSP16, literal(-4)))
          CFI ?BRET_EXT load(1, XDATA, add(CFA_XSP16, literal(-3)))
          CFI DPL0 load(1, XDATA, add(CFA_XSP16, literal(-2)))
          CFI DPH0 load(1, XDATA, add(CFA_XSP16, literal(-1)))
          CFI CFA_SP SP+-2
          CFI CFA_XSP16 add(XSP16, 23)
          CFI Block cfiCond249 Using cfiCommon0
          CFI (cfiCond249) Function MT_AfIncomingMsg
          CFI (cfiCond249) Conditional ??CrossCallReturnLabel_1
          CFI (cfiCond249) R6 load(1, XDATA, add(CFA_XSP16, literal(-20)))
          CFI (cfiCond249) VB load(1, XDATA, add(CFA_XSP16, literal(-19)))
          CFI (cfiCond249) V0 load(1, XDATA, add(CFA_XSP16, literal(-18)))
          CFI (cfiCond249) V1 load(1, XDATA, add(CFA_XSP16, literal(-17)))
          CFI (cfiCond249) V2 load(1, XDATA, add(CFA_XSP16, literal(-16)))
          CFI (cfiCond249) V3 load(1, XDATA, add(CFA_XSP16, literal(-15)))
          CFI (cfiCond249) V4 load(1, XDATA, add(CFA_XSP16, literal(-14)))
          CFI (cfiCond249) V5 load(1, XDATA, add(CFA_XSP16, literal(-13)))
          CFI (cfiCond249) V6 load(1, XDATA, add(CFA_XSP16, literal(-12)))
          CFI (cfiCond249) V7 load(1, XDATA, add(CFA_XSP16, literal(-11)))
          CFI (cfiCond249) V8 load(1, XDATA, add(CFA_XSP16, literal(-10)))
          CFI (cfiCond249) V9 load(1, XDATA, add(CFA_XSP16, literal(-9)))
          CFI (cfiCond249) V10 load(1, XDATA, add(CFA_XSP16, literal(-8)))
          CFI (cfiCond249) V11 load(1, XDATA, add(CFA_XSP16, literal(-7)))
          CFI (cfiCond249) R7 load(1, XDATA, add(CFA_XSP16, literal(-6)))
          CFI (cfiCond249) ?RET_LOW load(1, XDATA, add(CFA_XSP16, literal(-5)))
          CFI (cfiCond249) ?RET_HIGH load(1, XDATA, add(CFA_XSP16, literal(-4)))
          CFI (cfiCond249) ?BRET_EXT load(1, XDATA, add(CFA_XSP16, literal(-3)))
          CFI (cfiCond249) DPL0 load(1, XDATA, add(CFA_XSP16, literal(-2)))
          CFI (cfiCond249) DPH0 load(1, XDATA, add(CFA_XSP16, literal(-1)))
          CFI (cfiCond249) CFA_SP SP+-2
          CFI (cfiCond249) CFA_XSP16 add(XSP16, 23)
          CFI Block cfiPicker250 Using cfiCommon1
          CFI (cfiPicker250) NoFunction
          CFI (cfiPicker250) Picker
        LCALL     ?Subroutine41 & 0xFFFF
??CrossCallReturnLabel_62:
        INC       DPTR
        INC       DPTR
        INC       DPTR
        INC       DPTR
        INC       DPTR
        INC       DPTR
        LCALL     ?Subroutine43 & 0xFFFF
??CrossCallReturnLabel_66:
        RET
          CFI EndBlock cfiCond248
          CFI EndBlock cfiCond249
          CFI EndBlock cfiPicker250

        RSEG BANKED_CODE:HUGECODE:NOROOT(0)
?Subroutine43:
          CFI Block cfiCond251 Using cfiCommon0
          CFI Function MT_AfIncomingMsg
          CFI Conditional ??CrossCallReturnLabel_64
          CFI R6 load(1, XDATA, add(CFA_XSP16, literal(-20)))
          CFI VB load(1, XDATA, add(CFA_XSP16, literal(-19)))
          CFI V0 load(1, XDATA, add(CFA_XSP16, literal(-18)))
          CFI V1 load(1, XDATA, add(CFA_XSP16, literal(-17)))
          CFI V2 load(1, XDATA, add(CFA_XSP16, literal(-16)))
          CFI V3 load(1, XDATA, add(CFA_XSP16, literal(-15)))
          CFI V4 load(1, XDATA, add(CFA_XSP16, literal(-14)))
          CFI V5 load(1, XDATA, add(CFA_XSP16, literal(-13)))
          CFI V6 load(1, XDATA, add(CFA_XSP16, literal(-12)))
          CFI V7 load(1, XDATA, add(CFA_XSP16, literal(-11)))
          CFI V8 load(1, XDATA, add(CFA_XSP16, literal(-10)))
          CFI V9 load(1, XDATA, add(CFA_XSP16, literal(-9)))
          CFI V10 load(1, XDATA, add(CFA_XSP16, literal(-8)))
          CFI V11 load(1, XDATA, add(CFA_XSP16, literal(-7)))
          CFI R7 load(1, XDATA, add(CFA_XSP16, literal(-6)))
          CFI ?RET_LOW load(1, XDATA, add(CFA_XSP16, literal(-5)))
          CFI ?RET_HIGH load(1, XDATA, add(CFA_XSP16, literal(-4)))
          CFI ?BRET_EXT load(1, XDATA, add(CFA_XSP16, literal(-3)))
          CFI DPL0 load(1, XDATA, add(CFA_XSP16, literal(-2)))
          CFI DPH0 load(1, XDATA, add(CFA_XSP16, literal(-1)))
          CFI CFA_SP SP+-2
          CFI CFA_XSP16 add(XSP16, 23)
          CFI Block cfiCond252 Using cfiCommon0
          CFI (cfiCond252) Function MT_AfIncomingMsg
          CFI (cfiCond252) Conditional ??CrossCallReturnLabel_65, ??CrossCallReturnLabel_34
          CFI (cfiCond252) R6 load(1, XDATA, add(CFA_XSP16, literal(-20)))
          CFI (cfiCond252) VB load(1, XDATA, add(CFA_XSP16, literal(-19)))
          CFI (cfiCond252) V0 load(1, XDATA, add(CFA_XSP16, literal(-18)))
          CFI (cfiCond252) V1 load(1, XDATA, add(CFA_XSP16, literal(-17)))
          CFI (cfiCond252) V2 load(1, XDATA, add(CFA_XSP16, literal(-16)))
          CFI (cfiCond252) V3 load(1, XDATA, add(CFA_XSP16, literal(-15)))
          CFI (cfiCond252) V4 load(1, XDATA, add(CFA_XSP16, literal(-14)))
          CFI (cfiCond252) V5 load(1, XDATA, add(CFA_XSP16, literal(-13)))
          CFI (cfiCond252) V6 load(1, XDATA, add(CFA_XSP16, literal(-12)))
          CFI (cfiCond252) V7 load(1, XDATA, add(CFA_XSP16, literal(-11)))
          CFI (cfiCond252) V8 load(1, XDATA, add(CFA_XSP16, literal(-10)))
          CFI (cfiCond252) V9 load(1, XDATA, add(CFA_XSP16, literal(-9)))
          CFI (cfiCond252) V10 load(1, XDATA, add(CFA_XSP16, literal(-8)))
          CFI (cfiCond252) V11 load(1, XDATA, add(CFA_XSP16, literal(-7)))
          CFI (cfiCond252) R7 load(1, XDATA, add(CFA_XSP16, literal(-6)))
          CFI (cfiCond252) ?RET_LOW load(1, XDATA, add(CFA_XSP16, literal(-5)))
          CFI (cfiCond252) ?RET_HIGH load(1, XDATA, add(CFA_XSP16, literal(-4)))
          CFI (cfiCond252) ?BRET_EXT load(1, XDATA, add(CFA_XSP16, literal(-3)))
          CFI (cfiCond252) DPL0 load(1, XDATA, add(CFA_XSP16, literal(-2)))
          CFI (cfiCond252) DPH0 load(1, XDATA, add(CFA_XSP16, literal(-1)))
          CFI (cfiCond252) CFA_SP SP+-4
          CFI (cfiCond252) CFA_XSP16 add(XSP16, 23)
          CFI Block cfiCond253 Using cfiCommon0
          CFI (cfiCond253) Function MT_AfIncomingMsg
          CFI (cfiCond253) Conditional ??CrossCallReturnLabel_65, ??CrossCallReturnLabel_35
          CFI (cfiCond253) R6 load(1, XDATA, add(CFA_XSP16, literal(-20)))
          CFI (cfiCond253) VB load(1, XDATA, add(CFA_XSP16, literal(-19)))
          CFI (cfiCond253) V0 load(1, XDATA, add(CFA_XSP16, literal(-18)))
          CFI (cfiCond253) V1 load(1, XDATA, add(CFA_XSP16, literal(-17)))
          CFI (cfiCond253) V2 load(1, XDATA, add(CFA_XSP16, literal(-16)))
          CFI (cfiCond253) V3 load(1, XDATA, add(CFA_XSP16, literal(-15)))
          CFI (cfiCond253) V4 load(1, XDATA, add(CFA_XSP16, literal(-14)))
          CFI (cfiCond253) V5 load(1, XDATA, add(CFA_XSP16, literal(-13)))
          CFI (cfiCond253) V6 load(1, XDATA, add(CFA_XSP16, literal(-12)))
          CFI (cfiCond253) V7 load(1, XDATA, add(CFA_XSP16, literal(-11)))
          CFI (cfiCond253) V8 load(1, XDATA, add(CFA_XSP16, literal(-10)))
          CFI (cfiCond253) V9 load(1, XDATA, add(CFA_XSP16, literal(-9)))
          CFI (cfiCond253) V10 load(1, XDATA, add(CFA_XSP16, literal(-8)))
          CFI (cfiCond253) V11 load(1, XDATA, add(CFA_XSP16, literal(-7)))
          CFI (cfiCond253) R7 load(1, XDATA, add(CFA_XSP16, literal(-6)))
          CFI (cfiCond253) ?RET_LOW load(1, XDATA, add(CFA_XSP16, literal(-5)))
          CFI (cfiCond253) ?RET_HIGH load(1, XDATA, add(CFA_XSP16, literal(-4)))
          CFI (cfiCond253) ?BRET_EXT load(1, XDATA, add(CFA_XSP16, literal(-3)))
          CFI (cfiCond253) DPL0 load(1, XDATA, add(CFA_XSP16, literal(-2)))
          CFI (cfiCond253) DPH0 load(1, XDATA, add(CFA_XSP16, literal(-1)))
          CFI (cfiCond253) CFA_SP SP+-4
          CFI (cfiCond253) CFA_XSP16 add(XSP16, 23)
          CFI Block cfiCond254 Using cfiCommon0
          CFI (cfiCond254) Function MT_AfIncomingMsg
          CFI (cfiCond254) Conditional ??CrossCallReturnLabel_66, ??CrossCallReturnLabel_0
          CFI (cfiCond254) R6 load(1, XDATA, add(CFA_XSP16, literal(-20)))
          CFI (cfiCond254) VB load(1, XDATA, add(CFA_XSP16, literal(-19)))
          CFI (cfiCond254) V0 load(1, XDATA, add(CFA_XSP16, literal(-18)))
          CFI (cfiCond254) V1 load(1, XDATA, add(CFA_XSP16, literal(-17)))
          CFI (cfiCond254) V2 load(1, XDATA, add(CFA_XSP16, literal(-16)))
          CFI (cfiCond254) V3 load(1, XDATA, add(CFA_XSP16, literal(-15)))
          CFI (cfiCond254) V4 load(1, XDATA, add(CFA_XSP16, literal(-14)))
          CFI (cfiCond254) V5 load(1, XDATA, add(CFA_XSP16, literal(-13)))
          CFI (cfiCond254) V6 load(1, XDATA, add(CFA_XSP16, literal(-12)))
          CFI (cfiCond254) V7 load(1, XDATA, add(CFA_XSP16, literal(-11)))
          CFI (cfiCond254) V8 load(1, XDATA, add(CFA_XSP16, literal(-10)))
          CFI (cfiCond254) V9 load(1, XDATA, add(CFA_XSP16, literal(-9)))
          CFI (cfiCond254) V10 load(1, XDATA, add(CFA_XSP16, literal(-8)))
          CFI (cfiCond254) V11 load(1, XDATA, add(CFA_XSP16, literal(-7)))
          CFI (cfiCond254) R7 load(1, XDATA, add(CFA_XSP16, literal(-6)))
          CFI (cfiCond254) ?RET_LOW load(1, XDATA, add(CFA_XSP16, literal(-5)))
          CFI (cfiCond254) ?RET_HIGH load(1, XDATA, add(CFA_XSP16, literal(-4)))
          CFI (cfiCond254) ?BRET_EXT load(1, XDATA, add(CFA_XSP16, literal(-3)))
          CFI (cfiCond254) DPL0 load(1, XDATA, add(CFA_XSP16, literal(-2)))
          CFI (cfiCond254) DPH0 load(1, XDATA, add(CFA_XSP16, literal(-1)))
          CFI (cfiCond254) CFA_SP SP+-4
          CFI (cfiCond254) CFA_XSP16 add(XSP16, 23)
          CFI Block cfiCond255 Using cfiCommon0
          CFI (cfiCond255) Function MT_AfIncomingMsg
          CFI (cfiCond255) Conditional ??CrossCallReturnLabel_66, ??CrossCallReturnLabel_1
          CFI (cfiCond255) R6 load(1, XDATA, add(CFA_XSP16, literal(-20)))
          CFI (cfiCond255) VB load(1, XDATA, add(CFA_XSP16, literal(-19)))
          CFI (cfiCond255) V0 load(1, XDATA, add(CFA_XSP16, literal(-18)))
          CFI (cfiCond255) V1 load(1, XDATA, add(CFA_XSP16, literal(-17)))
          CFI (cfiCond255) V2 load(1, XDATA, add(CFA_XSP16, literal(-16)))
          CFI (cfiCond255) V3 load(1, XDATA, add(CFA_XSP16, literal(-15)))
          CFI (cfiCond255) V4 load(1, XDATA, add(CFA_XSP16, literal(-14)))
          CFI (cfiCond255) V5 load(1, XDATA, add(CFA_XSP16, literal(-13)))
          CFI (cfiCond255) V6 load(1, XDATA, add(CFA_XSP16, literal(-12)))
          CFI (cfiCond255) V7 load(1, XDATA, add(CFA_XSP16, literal(-11)))
          CFI (cfiCond255) V8 load(1, XDATA, add(CFA_XSP16, literal(-10)))
          CFI (cfiCond255) V9 load(1, XDATA, add(CFA_XSP16, literal(-9)))
          CFI (cfiCond255) V10 load(1, XDATA, add(CFA_XSP16, literal(-8)))
          CFI (cfiCond255) V11 load(1, XDATA, add(CFA_XSP16, literal(-7)))
          CFI (cfiCond255) R7 load(1, XDATA, add(CFA_XSP16, literal(-6)))
          CFI (cfiCond255) ?RET_LOW load(1, XDATA, add(CFA_XSP16, literal(-5)))
          CFI (cfiCond255) ?RET_HIGH load(1, XDATA, add(CFA_XSP16, literal(-4)))
          CFI (cfiCond255) ?BRET_EXT load(1, XDATA, add(CFA_XSP16, literal(-3)))
          CFI (cfiCond255) DPL0 load(1, XDATA, add(CFA_XSP16, literal(-2)))
          CFI (cfiCond255) DPH0 load(1, XDATA, add(CFA_XSP16, literal(-1)))
          CFI (cfiCond255) CFA_SP SP+-4
          CFI (cfiCond255) CFA_XSP16 add(XSP16, 23)
          CFI Block cfiPicker256 Using cfiCommon1
          CFI (cfiPicker256) NoFunction
          CFI (cfiPicker256) Picker
        MOVX      @DPTR,A
        MOV       DPL,?V0
        MOV       DPH,?V1
        INC       DPTR
        INC       DPTR
        INC       DPTR
        INC       DPTR
        INC       DPTR
        INC       DPTR
        INC       DPTR
        INC       DPTR
        INC       DPTR
        RET
          CFI EndBlock cfiCond251
          CFI EndBlock cfiCond252
          CFI EndBlock cfiCond253
          CFI EndBlock cfiCond254
          CFI EndBlock cfiCond255
          CFI EndBlock cfiPicker256
//  758 
//  759 /**************************************************************************************************
//  760  * @fn          MT_AfDataRetrieve
//  761  *
//  762  * @brief   Process AF Data Retrieve command to incrementally read out a very large
//  763  *          incoming AF message.
//  764  *
//  765  * input parameters
//  766  *
//  767  * @param pBuf - pointer to the received buffer
//  768  *
//  769  * output parameters
//  770  *
//  771  * @param rtrn - AF-Status of the operation.
//  772  *
//  773  * @return      None.
//  774  **************************************************************************************************
//  775  */

        RSEG BANKED_CODE:HUGECODE:NOROOT(0)
//  776 void MT_AfDataRetrieve(uint8 *pBuf)
MT_AfDataRetrieve:
          CFI Block cfiBlock257 Using cfiCommon0
          CFI Function MT_AfDataRetrieve
        CODE
//  777 {
        FUNCALL MT_AfDataRetrieve, osal_mem_free
        LOCFRAME ISTACK, 0, STACK
        LOCFRAME PSTACK, 0, STACK
        LOCFRAME XSTACK, 23, STACK
        LOCFRAME IOVERLAY, 0, STATIC
        LOCFRAME DOVERLAY, 0, STATIC
        ARGFRAME ISTACK, 0, STACK
        ARGFRAME PSTACK, 0, STACK
        ARGFRAME XSTACK, 23, STACK
        ARGFRAME IOVERLAY, 0, STATIC
        ARGFRAME DOVERLAY, 0, STATIC
        FUNCALL MT_AfDataRetrieve, MT_BuildAndSendZToolResponse
        LOCFRAME ISTACK, 0, STACK
        LOCFRAME PSTACK, 0, STACK
        LOCFRAME XSTACK, 23, STACK
        LOCFRAME IOVERLAY, 0, STATIC
        LOCFRAME DOVERLAY, 0, STATIC
        ARGFRAME ISTACK, 0, STACK
        ARGFRAME PSTACK, 0, STACK
        ARGFRAME XSTACK, 23, STACK
        ARGFRAME IOVERLAY, 0, STATIC
        ARGFRAME DOVERLAY, 0, STATIC
        FUNCALL MT_AfDataRetrieve, osal_mem_alloc
        LOCFRAME ISTACK, 0, STACK
        LOCFRAME PSTACK, 0, STACK
        LOCFRAME XSTACK, 23, STACK
        LOCFRAME IOVERLAY, 0, STATIC
        LOCFRAME DOVERLAY, 0, STATIC
        ARGFRAME ISTACK, 0, STACK
        ARGFRAME PSTACK, 0, STACK
        ARGFRAME XSTACK, 23, STACK
        ARGFRAME IOVERLAY, 0, STATIC
        ARGFRAME DOVERLAY, 0, STATIC
        FUNCALL MT_AfDataRetrieve, osal_memcpy
        LOCFRAME ISTACK, 0, STACK
        LOCFRAME PSTACK, 0, STACK
        LOCFRAME XSTACK, 26, STACK
        LOCFRAME IOVERLAY, 0, STATIC
        LOCFRAME DOVERLAY, 0, STATIC
        ARGFRAME ISTACK, 0, STACK
        ARGFRAME PSTACK, 0, STACK
        ARGFRAME XSTACK, 26, STACK
        ARGFRAME IOVERLAY, 0, STATIC
        ARGFRAME DOVERLAY, 0, STATIC
        FUNCALL MT_AfDataRetrieve, MT_BuildAndSendZToolResponse
        LOCFRAME ISTACK, 0, STACK
        LOCFRAME PSTACK, 0, STACK
        LOCFRAME XSTACK, 23, STACK
        LOCFRAME IOVERLAY, 0, STATIC
        LOCFRAME DOVERLAY, 0, STATIC
        ARGFRAME ISTACK, 0, STACK
        ARGFRAME PSTACK, 0, STACK
        ARGFRAME XSTACK, 23, STACK
        ARGFRAME IOVERLAY, 0, STATIC
        ARGFRAME DOVERLAY, 0, STATIC
        FUNCALL MT_AfDataRetrieve, osal_mem_free
        LOCFRAME ISTACK, 0, STACK
        LOCFRAME PSTACK, 0, STACK
        LOCFRAME XSTACK, 23, STACK
        LOCFRAME IOVERLAY, 0, STATIC
        LOCFRAME DOVERLAY, 0, STATIC
        ARGFRAME ISTACK, 0, STACK
        ARGFRAME PSTACK, 0, STACK
        ARGFRAME XSTACK, 23, STACK
        ARGFRAME IOVERLAY, 0, STATIC
        ARGFRAME DOVERLAY, 0, STATIC
        REQUIRE ?V0
        REQUIRE ?V1
        REQUIRE ?V2
        REQUIRE ?V3
        REQUIRE ?V4
        REQUIRE ?V5
        REQUIRE ?V6
        REQUIRE ?V7
        REQUIRE ?V8
        REQUIRE ?V9
        REQUIRE ?V10
        REQUIRE ?V11
        MOV       A,#-0x14
        LCALL     ?BANKED_ENTER_XDATA
          CFI DPH0 load(1, XDATA, add(CFA_XSP16, literal(-1)))
          CFI DPL0 load(1, XDATA, add(CFA_XSP16, literal(-2)))
          CFI ?BRET_EXT load(1, XDATA, add(CFA_XSP16, literal(-3)))
          CFI ?RET_HIGH load(1, XDATA, add(CFA_XSP16, literal(-4)))
          CFI ?RET_LOW load(1, XDATA, add(CFA_XSP16, literal(-5)))
          CFI R7 load(1, XDATA, add(CFA_XSP16, literal(-6)))
          CFI V11 load(1, XDATA, add(CFA_XSP16, literal(-7)))
          CFI V10 load(1, XDATA, add(CFA_XSP16, literal(-8)))
          CFI V9 load(1, XDATA, add(CFA_XSP16, literal(-9)))
          CFI V8 load(1, XDATA, add(CFA_XSP16, literal(-10)))
          CFI V7 load(1, XDATA, add(CFA_XSP16, literal(-11)))
          CFI V6 load(1, XDATA, add(CFA_XSP16, literal(-12)))
          CFI V5 load(1, XDATA, add(CFA_XSP16, literal(-13)))
          CFI V4 load(1, XDATA, add(CFA_XSP16, literal(-14)))
          CFI V3 load(1, XDATA, add(CFA_XSP16, literal(-15)))
          CFI V2 load(1, XDATA, add(CFA_XSP16, literal(-16)))
          CFI V1 load(1, XDATA, add(CFA_XSP16, literal(-17)))
          CFI V0 load(1, XDATA, add(CFA_XSP16, literal(-18)))
          CFI VB load(1, XDATA, add(CFA_XSP16, literal(-19)))
          CFI R6 load(1, XDATA, add(CFA_XSP16, literal(-20)))
          CFI CFA_SP SP+0
          CFI CFA_XSP16 add(XSP16, 20)
        ; Saved register size: 20
        ; Auto size: 3
        MOV       A,#-0x3
        LCALL     ?ALLOC_XSTACK8
          CFI CFA_XSP16 add(XSP16, 23)
        MOV       ?V0,R2
        MOV       ?V1,R3
//  778   #define MT_AF_RTV_HDR_SZ  2
//  779 
//  780   uint32 timestamp;
//  781   mtAfInMsgList_t *pPrev, *pItem = pMtAfInMsgList;
        LCALL     ?Subroutine11 & 0xFFFF
??CrossCallReturnLabel_118:
        MOV       A,#0x1
        LCALL     ?XSTACK_DISP0_8
        LCALL     ?Subroutine31 & 0xFFFF
//  782   uint8 rtrn = afStatus_FAILED;
??CrossCallReturnLabel_108:
        MOV       R2,#0x1
//  783   uint8 len = 0;
        MOV       DPL,?XSP + 0
        MOV       DPH,?XSP + 1
        CLR       A
        MOVX      @DPTR,A
//  784 
//  785   pBuf += MT_RPC_FRAME_HDR_SZ;
        MOV       A,?V0
        ADD       A,#0x3
        MOV       ?V0,A
        JNC       ??MT_AfDataRetrieve_0
        INC       ?V1
//  786   timestamp = BUILD_UINT32(pBuf[0], pBuf[1], pBuf[2], pBuf[3]);
??MT_AfDataRetrieve_0:
        MOV       DPL,A
        MOV       DPH,?V1
        MOVX      A,@DPTR
        MOV       ?V4,A
        CLR       A
        MOV       ?V5,A
        MOV       ?V6,A
        MOV       ?V7,A
        INC       DPTR
        MOVX      A,@DPTR
        MOV       ?V8,A
        CLR       A
        MOV       ?V9,A
        MOV       ?V10,A
        MOV       ?V11,A
        MOV       A,#0x8
        MOV       R0,#?V8
        LCALL     ?L_SHL
        MOV       R0,#?V4
        MOV       R1,#?V8
        LCALL     ?L_ADD
        MOV       DPL,?V0
        MOV       DPH,?V1
        INC       DPTR
        INC       DPTR
        MOVX      A,@DPTR
        MOV       ?V8,A
        CLR       A
        MOV       ?V9,A
        MOV       A,#0x10
        MOV       R0,#?V8
        LCALL     ?L_SHL
        MOV       R0,#?V4
        MOV       R1,#?V8
        LCALL     ?L_ADD
        MOV       DPL,?V0
        MOV       DPH,?V1
        INC       DPTR
        INC       DPTR
        INC       DPTR
        MOVX      A,@DPTR
        MOV       ?V8,A
        CLR       A
        MOV       ?V10,A
        MOV       A,#0x18
        MOV       R0,#?V8
        LCALL     ?L_SHL
        MOV       R0,#?V4
        MOV       R1,#?V8
        LCALL     ?L_ADD
        SJMP      ??CrossCallReturnLabel_109
//  787 
//  788   while (pItem != NULL)
//  789   {
//  790     pPrev = pItem;
//  791     if (pItem->timestamp == timestamp)
//  792     {
//  793       break;
//  794     }
//  795     pItem = pItem->next;
??MT_AfDataRetrieve_1:
        MOV       A,R2
        LCALL     ?XSTACK_DISP0_8
        LCALL     ?Subroutine4 & 0xFFFF
??CrossCallReturnLabel_2:
        MOV       A,R2
        LCALL     ?XSTACK_DISP0_8
        LCALL     ?Subroutine31 & 0xFFFF
??CrossCallReturnLabel_109:
        MOV       A,R2
        LCALL     ?XSTACK_DISP0_8
        LCALL     ??Subroutine62_0 & 0xFFFF
??CrossCallReturnLabel_135:
        JZ        ??MT_AfDataRetrieve_2
        MOV       A,R0
        MOV       R4,A
        MOV       A,R1
        MOV       R5,A
        MOV       A,R2
        LCALL     ?XSTACK_DISP0_8
        INC       DPTR
        MOVX      A,@DPTR
        MOV       DPH,A
        MOV       DPL,R0
        INC       DPTR
        INC       DPTR
        INC       DPTR
        INC       DPTR
        MOV       R0,#?V4
        LCALL     ?L_EQ_X
        JNZ       ??MT_AfDataRetrieve_1
//  796   }
//  797 
//  798   if (pItem != NULL)
//  799   {
//  800     uint16 idx;
//  801     uint8 *pRsp;
//  802 
//  803     pBuf += 4;
        MOV       A,?V0
        ADD       A,#0x4
        MOV       ?V0,A
        JNC       ??MT_AfDataRetrieve_3
        INC       ?V1
//  804     idx = BUILD_UINT16(pBuf[0], pBuf[1]);
??MT_AfDataRetrieve_3:
        MOV       DPL,A
        MOV       DPH,?V1
        LCALL     ?Subroutine8 & 0xFFFF
//  805     len = pBuf[2];
??CrossCallReturnLabel_9:
        MOV       DPL,?V0
        MOV       DPH,?V1
        INC       DPTR
        LCALL     ?Subroutine22 & 0xFFFF
//  806 
//  807     if (len == 0)  // Indication to delete the afIncomingMSGPacket.
??CrossCallReturnLabel_31:
        JNZ       ??MT_AfDataRetrieve_4
//  808     {
//  809       if (pMtAfInMsgList == pItem)
        LCALL     ?Subroutine11 & 0xFFFF
??CrossCallReturnLabel_119:
        MOV       A,#0x1
        LCALL     ?XSTACK_DISP0_8
        MOVX      A,@DPTR
        XRL       A,R0
        JNZ       ??MT_AfDataRetrieve_5
        INC       DPTR
        MOVX      A,@DPTR
        XRL       A,R1
??MT_AfDataRetrieve_5:
        JNZ       ??MT_AfDataRetrieve_6
//  810       {
//  811         pMtAfInMsgList = pItem->next;
        MOV       A,#0x1
        LCALL     ?XSTACK_DISP0_8
        LCALL     ?Subroutine4 & 0xFFFF
//  812       }
??CrossCallReturnLabel_3:
        MOV       DPTR,#pMtAfInMsgList
        SJMP      ??MT_AfDataRetrieve_7
//  813       else
//  814       {
//  815         pPrev->next = pItem->next;
??MT_AfDataRetrieve_6:
        MOV       A,#0x1
        LCALL     ?XSTACK_DISP0_8
        LCALL     ?Subroutine4 & 0xFFFF
//  816       }
??CrossCallReturnLabel_4:
        MOV       DPL,R4
        MOV       DPH,R5
??MT_AfDataRetrieve_7:
        LCALL     ?Subroutine31 & 0xFFFF
//  817       (void)osal_mem_free(pItem);
??CrossCallReturnLabel_110:
        ; Setup parameters for call to function osal_mem_free
        MOV       A,#0x1
        LCALL     ?XSTACK_DISP0_8
        LCALL     ?Subroutine15 & 0xFFFF
//  818       rtrn = afStatus_SUCCESS;
??CrossCallReturnLabel_20:
        MOV       R2,#0x0
//  819     }
//  820     else if ((pRsp = osal_mem_alloc(len + MT_AF_RTV_HDR_SZ)) == NULL)
//  821     {
//  822       rtrn = afStatus_MEM_FAIL;
//  823       len = 0;
//  824     }
//  825     else
//  826     {
//  827       pRsp[0] = ZSuccess;
//  828       pRsp[1] = len;
//  829       (void)osal_memcpy(pRsp + MT_AF_RTV_HDR_SZ, pItem->data+idx, len);
//  830       MT_BuildAndSendZToolResponse(((uint8)MT_RPC_CMD_SRSP | (uint8)MT_RPC_SYS_AF),
//  831                                            MT_AF_DATA_RETRIEVE, len + MT_AF_RTV_HDR_SZ, pRsp);
//  832       (void)osal_mem_free(pRsp);
//  833       return;
//  834     }
//  835   }
//  836 
//  837   pBuf[0] = rtrn;
??MT_AfDataRetrieve_2:
        MOV       A,R2
        MOV       DPL,?V0
        MOV       DPH,?V1
        LCALL     ?Subroutine44 & 0xFFFF
//  838   pBuf[1] = len;
??CrossCallReturnLabel_67:
        LCALL     ?Subroutine9 & 0xFFFF
//  839   MT_BuildAndSendZToolResponse(((uint8)MT_RPC_CMD_SRSP | (uint8)MT_RPC_SYS_AF),
//  840                                        MT_AF_DATA_RETRIEVE, MT_AF_RTV_HDR_SZ, pBuf);
??CrossCallReturnLabel_12:
        ; Setup parameters for call to function MT_BuildAndSendZToolResponse
        MOV       R4,?V0
        MOV       R5,?V1
        MOV       R3,#0x2
        MOV       R2,#0x12
        MOV       R1,#0x64
        LCALL     `??MT_BuildAndSendZToolResponse::?relay`; Banked call to: MT_BuildAndSendZToolResponse
//  841 }
??MT_AfDataRetrieve_8:
        LJMP      ?Subroutine1 & 0xFFFF
??MT_AfDataRetrieve_4:
        ; Setup parameters for call to function osal_mem_alloc
        ADD       A,#0x2
        MOV       R2,A
        CLR       A
        ADDC      A,#0x0
        MOV       R3,A
        LCALL     `??osal_mem_alloc::?relay`; Banked call to: osal_mem_alloc
        MOV       ?V4,R2
        MOV       ?V5,R3
        MOV       R6,?V4
        MOV       R7,?V5
        MOV       A,R2
        ORL       A,R7
        JNZ       ??MT_AfDataRetrieve_9
        MOV       R2,#0x10
        MOV       DPL,?XSP + 0
        MOV       DPH,?XSP + 1
        CLR       A
        MOVX      @DPTR,A
        SJMP      ??MT_AfDataRetrieve_2
??MT_AfDataRetrieve_9:
        MOV       DPL,R2
        MOV       DPH,R3
        CLR       A
        LCALL     ?Subroutine26 & 0xFFFF
??CrossCallReturnLabel_38:
        MOV       DPL,R2
        MOV       DPH,R3
        INC       DPTR
        MOVX      @DPTR,A
        ; Setup parameters for call to function osal_memcpy
        MOV       A,#0x1
        LCALL     ?XSTACK_DISP0_8
        LCALL     ??Subroutine60_0 & 0xFFFF
??CrossCallReturnLabel_120:
        MOVX      A,@DPTR
        ADD       A,?V2
        MOV       ?V0,A
        INC       DPTR
        MOVX      A,@DPTR
        ADDC      A,?V3
        MOV       ?V1,A
        MOV       ?V2,#0x0
        MOV       R0,#?V0
        LCALL     ?PUSH_XSTACK_I_THREE
          CFI CFA_XSP16 add(XSP16, 26)
        MOV       A,#0x3
        LCALL     ?XSTACK_DISP0_8
        MOVX      A,@DPTR
        MOV       R4,A
        MOV       R5,#0x0
        MOV       A,R2
        ADD       A,#0x2
        MOV       R2,A
        CLR       A
        LCALL     ?Subroutine34 & 0xFFFF
??CrossCallReturnLabel_127:
        LCALL     ?DEALLOC_XSTACK8
          CFI CFA_XSP16 add(XSP16, 23)
        ; Setup parameters for call to function MT_BuildAndSendZToolResponse
        MOV       A,R6
        MOV       R4,A
        MOV       A,R7
        MOV       R5,A
        MOV       DPL,?XSP + 0
        MOV       DPH,?XSP + 1
        MOVX      A,@DPTR
        ADD       A,#0x2
        MOV       R3,A
        MOV       R2,#0x12
        MOV       R1,#0x64
        LCALL     `??MT_BuildAndSendZToolResponse::?relay`; Banked call to: MT_BuildAndSendZToolResponse
        ; Setup parameters for call to function osal_mem_free
        MOV       A,R6
        MOV       R2,A
        MOV       A,R7
        MOV       R3,A
        LCALL     `??osal_mem_free::?relay`; Banked call to: osal_mem_free
        SJMP      ??MT_AfDataRetrieve_8
          CFI EndBlock cfiBlock257

        RSEG BANKED_CODE:HUGECODE:NOROOT(0)
?Subroutine44:
          CFI Block cfiCond258 Using cfiCommon0
          CFI Function MT_AfIncomingMsg
          CFI Conditional ??CrossCallReturnLabel_69
          CFI R6 load(1, XDATA, add(CFA_XSP16, literal(-20)))
          CFI VB load(1, XDATA, add(CFA_XSP16, literal(-19)))
          CFI V0 load(1, XDATA, add(CFA_XSP16, literal(-18)))
          CFI V1 load(1, XDATA, add(CFA_XSP16, literal(-17)))
          CFI V2 load(1, XDATA, add(CFA_XSP16, literal(-16)))
          CFI V3 load(1, XDATA, add(CFA_XSP16, literal(-15)))
          CFI V4 load(1, XDATA, add(CFA_XSP16, literal(-14)))
          CFI V5 load(1, XDATA, add(CFA_XSP16, literal(-13)))
          CFI V6 load(1, XDATA, add(CFA_XSP16, literal(-12)))
          CFI V7 load(1, XDATA, add(CFA_XSP16, literal(-11)))
          CFI V8 load(1, XDATA, add(CFA_XSP16, literal(-10)))
          CFI V9 load(1, XDATA, add(CFA_XSP16, literal(-9)))
          CFI V10 load(1, XDATA, add(CFA_XSP16, literal(-8)))
          CFI V11 load(1, XDATA, add(CFA_XSP16, literal(-7)))
          CFI R7 load(1, XDATA, add(CFA_XSP16, literal(-6)))
          CFI ?RET_LOW load(1, XDATA, add(CFA_XSP16, literal(-5)))
          CFI ?RET_HIGH load(1, XDATA, add(CFA_XSP16, literal(-4)))
          CFI ?BRET_EXT load(1, XDATA, add(CFA_XSP16, literal(-3)))
          CFI DPL0 load(1, XDATA, add(CFA_XSP16, literal(-2)))
          CFI DPH0 load(1, XDATA, add(CFA_XSP16, literal(-1)))
          CFI CFA_SP SP+-2
          CFI CFA_XSP16 add(XSP16, 23)
          CFI Block cfiCond259 Using cfiCommon0
          CFI (cfiCond259) Function MT_AfDataRetrieve
          CFI (cfiCond259) Conditional ??CrossCallReturnLabel_67
          CFI (cfiCond259) R6 load(1, XDATA, add(CFA_XSP16, literal(-20)))
          CFI (cfiCond259) VB load(1, XDATA, add(CFA_XSP16, literal(-19)))
          CFI (cfiCond259) V0 load(1, XDATA, add(CFA_XSP16, literal(-18)))
          CFI (cfiCond259) V1 load(1, XDATA, add(CFA_XSP16, literal(-17)))
          CFI (cfiCond259) V2 load(1, XDATA, add(CFA_XSP16, literal(-16)))
          CFI (cfiCond259) V3 load(1, XDATA, add(CFA_XSP16, literal(-15)))
          CFI (cfiCond259) V4 load(1, XDATA, add(CFA_XSP16, literal(-14)))
          CFI (cfiCond259) V5 load(1, XDATA, add(CFA_XSP16, literal(-13)))
          CFI (cfiCond259) V6 load(1, XDATA, add(CFA_XSP16, literal(-12)))
          CFI (cfiCond259) V7 load(1, XDATA, add(CFA_XSP16, literal(-11)))
          CFI (cfiCond259) V8 load(1, XDATA, add(CFA_XSP16, literal(-10)))
          CFI (cfiCond259) V9 load(1, XDATA, add(CFA_XSP16, literal(-9)))
          CFI (cfiCond259) V10 load(1, XDATA, add(CFA_XSP16, literal(-8)))
          CFI (cfiCond259) V11 load(1, XDATA, add(CFA_XSP16, literal(-7)))
          CFI (cfiCond259) R7 load(1, XDATA, add(CFA_XSP16, literal(-6)))
          CFI (cfiCond259) ?RET_LOW load(1, XDATA, add(CFA_XSP16, literal(-5)))
          CFI (cfiCond259) ?RET_HIGH load(1, XDATA, add(CFA_XSP16, literal(-4)))
          CFI (cfiCond259) ?BRET_EXT load(1, XDATA, add(CFA_XSP16, literal(-3)))
          CFI (cfiCond259) DPL0 load(1, XDATA, add(CFA_XSP16, literal(-2)))
          CFI (cfiCond259) DPH0 load(1, XDATA, add(CFA_XSP16, literal(-1)))
          CFI (cfiCond259) CFA_SP SP+-2
          CFI (cfiCond259) CFA_XSP16 add(XSP16, 23)
          CFI Block cfiCond260 Using cfiCommon0
          CFI (cfiCond260) Function MT_AfIncomingMsg
          CFI (cfiCond260) Conditional ??CrossCallReturnLabel_68, ??CrossCallReturnLabel_39
          CFI (cfiCond260) R6 load(1, XDATA, add(CFA_XSP16, literal(-20)))
          CFI (cfiCond260) VB load(1, XDATA, add(CFA_XSP16, literal(-19)))
          CFI (cfiCond260) V0 load(1, XDATA, add(CFA_XSP16, literal(-18)))
          CFI (cfiCond260) V1 load(1, XDATA, add(CFA_XSP16, literal(-17)))
          CFI (cfiCond260) V2 load(1, XDATA, add(CFA_XSP16, literal(-16)))
          CFI (cfiCond260) V3 load(1, XDATA, add(CFA_XSP16, literal(-15)))
          CFI (cfiCond260) V4 load(1, XDATA, add(CFA_XSP16, literal(-14)))
          CFI (cfiCond260) V5 load(1, XDATA, add(CFA_XSP16, literal(-13)))
          CFI (cfiCond260) V6 load(1, XDATA, add(CFA_XSP16, literal(-12)))
          CFI (cfiCond260) V7 load(1, XDATA, add(CFA_XSP16, literal(-11)))
          CFI (cfiCond260) V8 load(1, XDATA, add(CFA_XSP16, literal(-10)))
          CFI (cfiCond260) V9 load(1, XDATA, add(CFA_XSP16, literal(-9)))
          CFI (cfiCond260) V10 load(1, XDATA, add(CFA_XSP16, literal(-8)))
          CFI (cfiCond260) V11 load(1, XDATA, add(CFA_XSP16, literal(-7)))
          CFI (cfiCond260) R7 load(1, XDATA, add(CFA_XSP16, literal(-6)))
          CFI (cfiCond260) ?RET_LOW load(1, XDATA, add(CFA_XSP16, literal(-5)))
          CFI (cfiCond260) ?RET_HIGH load(1, XDATA, add(CFA_XSP16, literal(-4)))
          CFI (cfiCond260) ?BRET_EXT load(1, XDATA, add(CFA_XSP16, literal(-3)))
          CFI (cfiCond260) DPL0 load(1, XDATA, add(CFA_XSP16, literal(-2)))
          CFI (cfiCond260) DPH0 load(1, XDATA, add(CFA_XSP16, literal(-1)))
          CFI (cfiCond260) CFA_SP SP+-4
          CFI (cfiCond260) CFA_XSP16 add(XSP16, 23)
          CFI Block cfiCond261 Using cfiCommon0
          CFI (cfiCond261) Function MT_AfIncomingMsg
          CFI (cfiCond261) Conditional ??CrossCallReturnLabel_68, ??CrossCallReturnLabel_40
          CFI (cfiCond261) R6 load(1, XDATA, add(CFA_XSP16, literal(-20)))
          CFI (cfiCond261) VB load(1, XDATA, add(CFA_XSP16, literal(-19)))
          CFI (cfiCond261) V0 load(1, XDATA, add(CFA_XSP16, literal(-18)))
          CFI (cfiCond261) V1 load(1, XDATA, add(CFA_XSP16, literal(-17)))
          CFI (cfiCond261) V2 load(1, XDATA, add(CFA_XSP16, literal(-16)))
          CFI (cfiCond261) V3 load(1, XDATA, add(CFA_XSP16, literal(-15)))
          CFI (cfiCond261) V4 load(1, XDATA, add(CFA_XSP16, literal(-14)))
          CFI (cfiCond261) V5 load(1, XDATA, add(CFA_XSP16, literal(-13)))
          CFI (cfiCond261) V6 load(1, XDATA, add(CFA_XSP16, literal(-12)))
          CFI (cfiCond261) V7 load(1, XDATA, add(CFA_XSP16, literal(-11)))
          CFI (cfiCond261) V8 load(1, XDATA, add(CFA_XSP16, literal(-10)))
          CFI (cfiCond261) V9 load(1, XDATA, add(CFA_XSP16, literal(-9)))
          CFI (cfiCond261) V10 load(1, XDATA, add(CFA_XSP16, literal(-8)))
          CFI (cfiCond261) V11 load(1, XDATA, add(CFA_XSP16, literal(-7)))
          CFI (cfiCond261) R7 load(1, XDATA, add(CFA_XSP16, literal(-6)))
          CFI (cfiCond261) ?RET_LOW load(1, XDATA, add(CFA_XSP16, literal(-5)))
          CFI (cfiCond261) ?RET_HIGH load(1, XDATA, add(CFA_XSP16, literal(-4)))
          CFI (cfiCond261) ?BRET_EXT load(1, XDATA, add(CFA_XSP16, literal(-3)))
          CFI (cfiCond261) DPL0 load(1, XDATA, add(CFA_XSP16, literal(-2)))
          CFI (cfiCond261) DPH0 load(1, XDATA, add(CFA_XSP16, literal(-1)))
          CFI (cfiCond261) CFA_SP SP+-4
          CFI (cfiCond261) CFA_XSP16 add(XSP16, 23)
          CFI Block cfiCond262 Using cfiCommon0
          CFI (cfiCond262) Function MT_AfDataRetrieve
          CFI (cfiCond262) Conditional ??CrossCallReturnLabel_68, ??CrossCallReturnLabel_38
          CFI (cfiCond262) R6 load(1, XDATA, add(CFA_XSP16, literal(-20)))
          CFI (cfiCond262) VB load(1, XDATA, add(CFA_XSP16, literal(-19)))
          CFI (cfiCond262) V0 load(1, XDATA, add(CFA_XSP16, literal(-18)))
          CFI (cfiCond262) V1 load(1, XDATA, add(CFA_XSP16, literal(-17)))
          CFI (cfiCond262) V2 load(1, XDATA, add(CFA_XSP16, literal(-16)))
          CFI (cfiCond262) V3 load(1, XDATA, add(CFA_XSP16, literal(-15)))
          CFI (cfiCond262) V4 load(1, XDATA, add(CFA_XSP16, literal(-14)))
          CFI (cfiCond262) V5 load(1, XDATA, add(CFA_XSP16, literal(-13)))
          CFI (cfiCond262) V6 load(1, XDATA, add(CFA_XSP16, literal(-12)))
          CFI (cfiCond262) V7 load(1, XDATA, add(CFA_XSP16, literal(-11)))
          CFI (cfiCond262) V8 load(1, XDATA, add(CFA_XSP16, literal(-10)))
          CFI (cfiCond262) V9 load(1, XDATA, add(CFA_XSP16, literal(-9)))
          CFI (cfiCond262) V10 load(1, XDATA, add(CFA_XSP16, literal(-8)))
          CFI (cfiCond262) V11 load(1, XDATA, add(CFA_XSP16, literal(-7)))
          CFI (cfiCond262) R7 load(1, XDATA, add(CFA_XSP16, literal(-6)))
          CFI (cfiCond262) ?RET_LOW load(1, XDATA, add(CFA_XSP16, literal(-5)))
          CFI (cfiCond262) ?RET_HIGH load(1, XDATA, add(CFA_XSP16, literal(-4)))
          CFI (cfiCond262) ?BRET_EXT load(1, XDATA, add(CFA_XSP16, literal(-3)))
          CFI (cfiCond262) DPL0 load(1, XDATA, add(CFA_XSP16, literal(-2)))
          CFI (cfiCond262) DPH0 load(1, XDATA, add(CFA_XSP16, literal(-1)))
          CFI (cfiCond262) CFA_SP SP+-4
          CFI (cfiCond262) CFA_XSP16 add(XSP16, 23)
          CFI Block cfiPicker263 Using cfiCommon1
          CFI (cfiPicker263) NoFunction
          CFI (cfiPicker263) Picker
        MOVX      @DPTR,A
        MOV       DPL,?XSP + 0
        MOV       DPH,?XSP + 1
        RET
          CFI EndBlock cfiCond258
          CFI EndBlock cfiCond259
          CFI EndBlock cfiCond260
          CFI EndBlock cfiCond261
          CFI EndBlock cfiCond262
          CFI EndBlock cfiPicker263

        RSEG BANKED_CODE:HUGECODE:NOROOT(0)
?Subroutine34:
          CFI Block cfiCond264 Using cfiCommon0
          CFI Function MT_AfDataRetrieve
          CFI Conditional ??CrossCallReturnLabel_127
          CFI R6 load(1, XDATA, add(CFA_XSP16, literal(-20)))
          CFI VB load(1, XDATA, add(CFA_XSP16, literal(-19)))
          CFI V0 load(1, XDATA, add(CFA_XSP16, literal(-18)))
          CFI V1 load(1, XDATA, add(CFA_XSP16, literal(-17)))
          CFI V2 load(1, XDATA, add(CFA_XSP16, literal(-16)))
          CFI V3 load(1, XDATA, add(CFA_XSP16, literal(-15)))
          CFI V4 load(1, XDATA, add(CFA_XSP16, literal(-14)))
          CFI V5 load(1, XDATA, add(CFA_XSP16, literal(-13)))
          CFI V6 load(1, XDATA, add(CFA_XSP16, literal(-12)))
          CFI V7 load(1, XDATA, add(CFA_XSP16, literal(-11)))
          CFI V8 load(1, XDATA, add(CFA_XSP16, literal(-10)))
          CFI V9 load(1, XDATA, add(CFA_XSP16, literal(-9)))
          CFI V10 load(1, XDATA, add(CFA_XSP16, literal(-8)))
          CFI V11 load(1, XDATA, add(CFA_XSP16, literal(-7)))
          CFI R7 load(1, XDATA, add(CFA_XSP16, literal(-6)))
          CFI ?RET_LOW load(1, XDATA, add(CFA_XSP16, literal(-5)))
          CFI ?RET_HIGH load(1, XDATA, add(CFA_XSP16, literal(-4)))
          CFI ?BRET_EXT load(1, XDATA, add(CFA_XSP16, literal(-3)))
          CFI DPL0 load(1, XDATA, add(CFA_XSP16, literal(-2)))
          CFI DPH0 load(1, XDATA, add(CFA_XSP16, literal(-1)))
          CFI CFA_SP SP+-2
          CFI CFA_XSP16 add(XSP16, 26)
          CFI Block cfiCond265 Using cfiCommon0
          CFI (cfiCond265) Function MT_AfDataStore
          CFI (cfiCond265) Conditional ??CrossCallReturnLabel_128
          CFI (cfiCond265) R6 load(1, XDATA, add(CFA_XSP16, literal(-11)))
          CFI (cfiCond265) VB load(1, XDATA, add(CFA_XSP16, literal(-10)))
          CFI (cfiCond265) V0 load(1, XDATA, add(CFA_XSP16, literal(-9)))
          CFI (cfiCond265) V1 load(1, XDATA, add(CFA_XSP16, literal(-8)))
          CFI (cfiCond265) V2 load(1, XDATA, add(CFA_XSP16, literal(-7)))
          CFI (cfiCond265) R7 load(1, XDATA, add(CFA_XSP16, literal(-6)))
          CFI (cfiCond265) ?RET_LOW load(1, XDATA, add(CFA_XSP16, literal(-5)))
          CFI (cfiCond265) ?RET_HIGH load(1, XDATA, add(CFA_XSP16, literal(-4)))
          CFI (cfiCond265) ?BRET_EXT load(1, XDATA, add(CFA_XSP16, literal(-3)))
          CFI (cfiCond265) DPL0 load(1, XDATA, add(CFA_XSP16, literal(-2)))
          CFI (cfiCond265) DPH0 load(1, XDATA, add(CFA_XSP16, literal(-1)))
          CFI (cfiCond265) CFA_SP SP+-2
          CFI (cfiCond265) CFA_XSP16 add(XSP16, 15)
          CFI Block cfiPicker266 Using cfiCommon1
          CFI (cfiPicker266) NoFunction
          CFI (cfiPicker266) Picker
        ADDC      A,R7
        MOV       R3,A
          CFI EndBlock cfiCond264
          CFI EndBlock cfiCond265
          CFI EndBlock cfiPicker266
        REQUIRE ??Subroutine61_0
        ; // Fall through to label ??Subroutine61_0

        RSEG BANKED_CODE:HUGECODE:NOROOT(0)
??Subroutine61_0:
          CFI Block cfiCond267 Using cfiCommon0
          CFI Function MT_AfDataRequest
          CFI Conditional ??CrossCallReturnLabel_129
          CFI R6 load(1, XDATA, add(CFA_XSP16, literal(-20)))
          CFI VB load(1, XDATA, add(CFA_XSP16, literal(-19)))
          CFI V0 load(1, XDATA, add(CFA_XSP16, literal(-18)))
          CFI V1 load(1, XDATA, add(CFA_XSP16, literal(-17)))
          CFI V2 load(1, XDATA, add(CFA_XSP16, literal(-16)))
          CFI V3 load(1, XDATA, add(CFA_XSP16, literal(-15)))
          CFI V4 load(1, XDATA, add(CFA_XSP16, literal(-14)))
          CFI V5 load(1, XDATA, add(CFA_XSP16, literal(-13)))
          CFI V6 load(1, XDATA, add(CFA_XSP16, literal(-12)))
          CFI V7 load(1, XDATA, add(CFA_XSP16, literal(-11)))
          CFI V8 load(1, XDATA, add(CFA_XSP16, literal(-10)))
          CFI V9 load(1, XDATA, add(CFA_XSP16, literal(-9)))
          CFI V10 load(1, XDATA, add(CFA_XSP16, literal(-8)))
          CFI V11 load(1, XDATA, add(CFA_XSP16, literal(-7)))
          CFI R7 load(1, XDATA, add(CFA_XSP16, literal(-6)))
          CFI ?RET_LOW load(1, XDATA, add(CFA_XSP16, literal(-5)))
          CFI ?RET_HIGH load(1, XDATA, add(CFA_XSP16, literal(-4)))
          CFI ?BRET_EXT load(1, XDATA, add(CFA_XSP16, literal(-3)))
          CFI DPL0 load(1, XDATA, add(CFA_XSP16, literal(-2)))
          CFI DPH0 load(1, XDATA, add(CFA_XSP16, literal(-1)))
          CFI CFA_SP SP+-2
          CFI CFA_XSP16 add(XSP16, 38)
          CFI Block cfiCond268 Using cfiCommon0
          CFI (cfiCond268) Function MT_AfDataRequest
          CFI (cfiCond268) Conditional ??CrossCallReturnLabel_130
          CFI (cfiCond268) R6 load(1, XDATA, add(CFA_XSP16, literal(-20)))
          CFI (cfiCond268) VB load(1, XDATA, add(CFA_XSP16, literal(-19)))
          CFI (cfiCond268) V0 load(1, XDATA, add(CFA_XSP16, literal(-18)))
          CFI (cfiCond268) V1 load(1, XDATA, add(CFA_XSP16, literal(-17)))
          CFI (cfiCond268) V2 load(1, XDATA, add(CFA_XSP16, literal(-16)))
          CFI (cfiCond268) V3 load(1, XDATA, add(CFA_XSP16, literal(-15)))
          CFI (cfiCond268) V4 load(1, XDATA, add(CFA_XSP16, literal(-14)))
          CFI (cfiCond268) V5 load(1, XDATA, add(CFA_XSP16, literal(-13)))
          CFI (cfiCond268) V6 load(1, XDATA, add(CFA_XSP16, literal(-12)))
          CFI (cfiCond268) V7 load(1, XDATA, add(CFA_XSP16, literal(-11)))
          CFI (cfiCond268) V8 load(1, XDATA, add(CFA_XSP16, literal(-10)))
          CFI (cfiCond268) V9 load(1, XDATA, add(CFA_XSP16, literal(-9)))
          CFI (cfiCond268) V10 load(1, XDATA, add(CFA_XSP16, literal(-8)))
          CFI (cfiCond268) V11 load(1, XDATA, add(CFA_XSP16, literal(-7)))
          CFI (cfiCond268) R7 load(1, XDATA, add(CFA_XSP16, literal(-6)))
          CFI (cfiCond268) ?RET_LOW load(1, XDATA, add(CFA_XSP16, literal(-5)))
          CFI (cfiCond268) ?RET_HIGH load(1, XDATA, add(CFA_XSP16, literal(-4)))
          CFI (cfiCond268) ?BRET_EXT load(1, XDATA, add(CFA_XSP16, literal(-3)))
          CFI (cfiCond268) DPL0 load(1, XDATA, add(CFA_XSP16, literal(-2)))
          CFI (cfiCond268) DPH0 load(1, XDATA, add(CFA_XSP16, literal(-1)))
          CFI (cfiCond268) CFA_SP SP+-2
          CFI (cfiCond268) CFA_XSP16 add(XSP16, 38)
          CFI Block cfiCond269 Using cfiCommon0
          CFI (cfiCond269) Function MT_AfIncomingMsg
          CFI (cfiCond269) Conditional ??CrossCallReturnLabel_131
          CFI (cfiCond269) R6 load(1, XDATA, add(CFA_XSP16, literal(-20)))
          CFI (cfiCond269) VB load(1, XDATA, add(CFA_XSP16, literal(-19)))
          CFI (cfiCond269) V0 load(1, XDATA, add(CFA_XSP16, literal(-18)))
          CFI (cfiCond269) V1 load(1, XDATA, add(CFA_XSP16, literal(-17)))
          CFI (cfiCond269) V2 load(1, XDATA, add(CFA_XSP16, literal(-16)))
          CFI (cfiCond269) V3 load(1, XDATA, add(CFA_XSP16, literal(-15)))
          CFI (cfiCond269) V4 load(1, XDATA, add(CFA_XSP16, literal(-14)))
          CFI (cfiCond269) V5 load(1, XDATA, add(CFA_XSP16, literal(-13)))
          CFI (cfiCond269) V6 load(1, XDATA, add(CFA_XSP16, literal(-12)))
          CFI (cfiCond269) V7 load(1, XDATA, add(CFA_XSP16, literal(-11)))
          CFI (cfiCond269) V8 load(1, XDATA, add(CFA_XSP16, literal(-10)))
          CFI (cfiCond269) V9 load(1, XDATA, add(CFA_XSP16, literal(-9)))
          CFI (cfiCond269) V10 load(1, XDATA, add(CFA_XSP16, literal(-8)))
          CFI (cfiCond269) V11 load(1, XDATA, add(CFA_XSP16, literal(-7)))
          CFI (cfiCond269) R7 load(1, XDATA, add(CFA_XSP16, literal(-6)))
          CFI (cfiCond269) ?RET_LOW load(1, XDATA, add(CFA_XSP16, literal(-5)))
          CFI (cfiCond269) ?RET_HIGH load(1, XDATA, add(CFA_XSP16, literal(-4)))
          CFI (cfiCond269) ?BRET_EXT load(1, XDATA, add(CFA_XSP16, literal(-3)))
          CFI (cfiCond269) DPL0 load(1, XDATA, add(CFA_XSP16, literal(-2)))
          CFI (cfiCond269) DPH0 load(1, XDATA, add(CFA_XSP16, literal(-1)))
          CFI (cfiCond269) CFA_SP SP+-2
          CFI (cfiCond269) CFA_XSP16 add(XSP16, 26)
          CFI Block cfiCond270 Using cfiCommon0
          CFI (cfiCond270) Function MT_AfIncomingMsg
          CFI (cfiCond270) Conditional ??CrossCallReturnLabel_132
          CFI (cfiCond270) R6 load(1, XDATA, add(CFA_XSP16, literal(-20)))
          CFI (cfiCond270) VB load(1, XDATA, add(CFA_XSP16, literal(-19)))
          CFI (cfiCond270) V0 load(1, XDATA, add(CFA_XSP16, literal(-18)))
          CFI (cfiCond270) V1 load(1, XDATA, add(CFA_XSP16, literal(-17)))
          CFI (cfiCond270) V2 load(1, XDATA, add(CFA_XSP16, literal(-16)))
          CFI (cfiCond270) V3 load(1, XDATA, add(CFA_XSP16, literal(-15)))
          CFI (cfiCond270) V4 load(1, XDATA, add(CFA_XSP16, literal(-14)))
          CFI (cfiCond270) V5 load(1, XDATA, add(CFA_XSP16, literal(-13)))
          CFI (cfiCond270) V6 load(1, XDATA, add(CFA_XSP16, literal(-12)))
          CFI (cfiCond270) V7 load(1, XDATA, add(CFA_XSP16, literal(-11)))
          CFI (cfiCond270) V8 load(1, XDATA, add(CFA_XSP16, literal(-10)))
          CFI (cfiCond270) V9 load(1, XDATA, add(CFA_XSP16, literal(-9)))
          CFI (cfiCond270) V10 load(1, XDATA, add(CFA_XSP16, literal(-8)))
          CFI (cfiCond270) V11 load(1, XDATA, add(CFA_XSP16, literal(-7)))
          CFI (cfiCond270) R7 load(1, XDATA, add(CFA_XSP16, literal(-6)))
          CFI (cfiCond270) ?RET_LOW load(1, XDATA, add(CFA_XSP16, literal(-5)))
          CFI (cfiCond270) ?RET_HIGH load(1, XDATA, add(CFA_XSP16, literal(-4)))
          CFI (cfiCond270) ?BRET_EXT load(1, XDATA, add(CFA_XSP16, literal(-3)))
          CFI (cfiCond270) DPL0 load(1, XDATA, add(CFA_XSP16, literal(-2)))
          CFI (cfiCond270) DPH0 load(1, XDATA, add(CFA_XSP16, literal(-1)))
          CFI (cfiCond270) CFA_SP SP+-2
          CFI (cfiCond270) CFA_XSP16 add(XSP16, 26)
          CFI Block cfiCond271 Using cfiCommon0
          CFI (cfiCond271) Function MT_AfDataRetrieve
          CFI (cfiCond271) Conditional ??CrossCallReturnLabel_127
          CFI (cfiCond271) R6 load(1, XDATA, add(CFA_XSP16, literal(-20)))
          CFI (cfiCond271) VB load(1, XDATA, add(CFA_XSP16, literal(-19)))
          CFI (cfiCond271) V0 load(1, XDATA, add(CFA_XSP16, literal(-18)))
          CFI (cfiCond271) V1 load(1, XDATA, add(CFA_XSP16, literal(-17)))
          CFI (cfiCond271) V2 load(1, XDATA, add(CFA_XSP16, literal(-16)))
          CFI (cfiCond271) V3 load(1, XDATA, add(CFA_XSP16, literal(-15)))
          CFI (cfiCond271) V4 load(1, XDATA, add(CFA_XSP16, literal(-14)))
          CFI (cfiCond271) V5 load(1, XDATA, add(CFA_XSP16, literal(-13)))
          CFI (cfiCond271) V6 load(1, XDATA, add(CFA_XSP16, literal(-12)))
          CFI (cfiCond271) V7 load(1, XDATA, add(CFA_XSP16, literal(-11)))
          CFI (cfiCond271) V8 load(1, XDATA, add(CFA_XSP16, literal(-10)))
          CFI (cfiCond271) V9 load(1, XDATA, add(CFA_XSP16, literal(-9)))
          CFI (cfiCond271) V10 load(1, XDATA, add(CFA_XSP16, literal(-8)))
          CFI (cfiCond271) V11 load(1, XDATA, add(CFA_XSP16, literal(-7)))
          CFI (cfiCond271) R7 load(1, XDATA, add(CFA_XSP16, literal(-6)))
          CFI (cfiCond271) ?RET_LOW load(1, XDATA, add(CFA_XSP16, literal(-5)))
          CFI (cfiCond271) ?RET_HIGH load(1, XDATA, add(CFA_XSP16, literal(-4)))
          CFI (cfiCond271) ?BRET_EXT load(1, XDATA, add(CFA_XSP16, literal(-3)))
          CFI (cfiCond271) DPL0 load(1, XDATA, add(CFA_XSP16, literal(-2)))
          CFI (cfiCond271) DPH0 load(1, XDATA, add(CFA_XSP16, literal(-1)))
          CFI (cfiCond271) CFA_SP SP+-2
          CFI (cfiCond271) CFA_XSP16 add(XSP16, 26)
          CFI Block cfiCond272 Using cfiCommon0
          CFI (cfiCond272) Function MT_AfDataStore
          CFI (cfiCond272) Conditional ??CrossCallReturnLabel_128
          CFI (cfiCond272) R6 load(1, XDATA, add(CFA_XSP16, literal(-11)))
          CFI (cfiCond272) VB load(1, XDATA, add(CFA_XSP16, literal(-10)))
          CFI (cfiCond272) V0 load(1, XDATA, add(CFA_XSP16, literal(-9)))
          CFI (cfiCond272) V1 load(1, XDATA, add(CFA_XSP16, literal(-8)))
          CFI (cfiCond272) V2 load(1, XDATA, add(CFA_XSP16, literal(-7)))
          CFI (cfiCond272) R7 load(1, XDATA, add(CFA_XSP16, literal(-6)))
          CFI (cfiCond272) ?RET_LOW load(1, XDATA, add(CFA_XSP16, literal(-5)))
          CFI (cfiCond272) ?RET_HIGH load(1, XDATA, add(CFA_XSP16, literal(-4)))
          CFI (cfiCond272) ?BRET_EXT load(1, XDATA, add(CFA_XSP16, literal(-3)))
          CFI (cfiCond272) DPL0 load(1, XDATA, add(CFA_XSP16, literal(-2)))
          CFI (cfiCond272) DPH0 load(1, XDATA, add(CFA_XSP16, literal(-1)))
          CFI (cfiCond272) CFA_SP SP+-2
          CFI (cfiCond272) CFA_XSP16 add(XSP16, 15)
          CFI Block cfiPicker273 Using cfiCommon1
          CFI (cfiPicker273) NoFunction
          CFI (cfiPicker273) Picker
        LCALL     `??osal_memcpy::?relay`; Banked call to: osal_memcpy
        MOV       A,#0x3
        RET
          CFI EndBlock cfiCond267
          CFI EndBlock cfiCond268
          CFI EndBlock cfiCond269
          CFI EndBlock cfiCond270
          CFI EndBlock cfiCond271
          CFI EndBlock cfiCond272
          CFI EndBlock cfiPicker273

        RSEG BANKED_CODE:HUGECODE:NOROOT(0)
?Subroutine26:
          CFI Block cfiCond274 Using cfiCommon0
          CFI Function MT_AfIncomingMsg
          CFI Conditional ??CrossCallReturnLabel_39
          CFI R6 load(1, XDATA, add(CFA_XSP16, literal(-20)))
          CFI VB load(1, XDATA, add(CFA_XSP16, literal(-19)))
          CFI V0 load(1, XDATA, add(CFA_XSP16, literal(-18)))
          CFI V1 load(1, XDATA, add(CFA_XSP16, literal(-17)))
          CFI V2 load(1, XDATA, add(CFA_XSP16, literal(-16)))
          CFI V3 load(1, XDATA, add(CFA_XSP16, literal(-15)))
          CFI V4 load(1, XDATA, add(CFA_XSP16, literal(-14)))
          CFI V5 load(1, XDATA, add(CFA_XSP16, literal(-13)))
          CFI V6 load(1, XDATA, add(CFA_XSP16, literal(-12)))
          CFI V7 load(1, XDATA, add(CFA_XSP16, literal(-11)))
          CFI V8 load(1, XDATA, add(CFA_XSP16, literal(-10)))
          CFI V9 load(1, XDATA, add(CFA_XSP16, literal(-9)))
          CFI V10 load(1, XDATA, add(CFA_XSP16, literal(-8)))
          CFI V11 load(1, XDATA, add(CFA_XSP16, literal(-7)))
          CFI R7 load(1, XDATA, add(CFA_XSP16, literal(-6)))
          CFI ?RET_LOW load(1, XDATA, add(CFA_XSP16, literal(-5)))
          CFI ?RET_HIGH load(1, XDATA, add(CFA_XSP16, literal(-4)))
          CFI ?BRET_EXT load(1, XDATA, add(CFA_XSP16, literal(-3)))
          CFI DPL0 load(1, XDATA, add(CFA_XSP16, literal(-2)))
          CFI DPH0 load(1, XDATA, add(CFA_XSP16, literal(-1)))
          CFI CFA_SP SP+-2
          CFI CFA_XSP16 add(XSP16, 23)
          CFI Block cfiCond275 Using cfiCommon0
          CFI (cfiCond275) Function MT_AfIncomingMsg
          CFI (cfiCond275) Conditional ??CrossCallReturnLabel_40
          CFI (cfiCond275) R6 load(1, XDATA, add(CFA_XSP16, literal(-20)))
          CFI (cfiCond275) VB load(1, XDATA, add(CFA_XSP16, literal(-19)))
          CFI (cfiCond275) V0 load(1, XDATA, add(CFA_XSP16, literal(-18)))
          CFI (cfiCond275) V1 load(1, XDATA, add(CFA_XSP16, literal(-17)))
          CFI (cfiCond275) V2 load(1, XDATA, add(CFA_XSP16, literal(-16)))
          CFI (cfiCond275) V3 load(1, XDATA, add(CFA_XSP16, literal(-15)))
          CFI (cfiCond275) V4 load(1, XDATA, add(CFA_XSP16, literal(-14)))
          CFI (cfiCond275) V5 load(1, XDATA, add(CFA_XSP16, literal(-13)))
          CFI (cfiCond275) V6 load(1, XDATA, add(CFA_XSP16, literal(-12)))
          CFI (cfiCond275) V7 load(1, XDATA, add(CFA_XSP16, literal(-11)))
          CFI (cfiCond275) V8 load(1, XDATA, add(CFA_XSP16, literal(-10)))
          CFI (cfiCond275) V9 load(1, XDATA, add(CFA_XSP16, literal(-9)))
          CFI (cfiCond275) V10 load(1, XDATA, add(CFA_XSP16, literal(-8)))
          CFI (cfiCond275) V11 load(1, XDATA, add(CFA_XSP16, literal(-7)))
          CFI (cfiCond275) R7 load(1, XDATA, add(CFA_XSP16, literal(-6)))
          CFI (cfiCond275) ?RET_LOW load(1, XDATA, add(CFA_XSP16, literal(-5)))
          CFI (cfiCond275) ?RET_HIGH load(1, XDATA, add(CFA_XSP16, literal(-4)))
          CFI (cfiCond275) ?BRET_EXT load(1, XDATA, add(CFA_XSP16, literal(-3)))
          CFI (cfiCond275) DPL0 load(1, XDATA, add(CFA_XSP16, literal(-2)))
          CFI (cfiCond275) DPH0 load(1, XDATA, add(CFA_XSP16, literal(-1)))
          CFI (cfiCond275) CFA_SP SP+-2
          CFI (cfiCond275) CFA_XSP16 add(XSP16, 23)
          CFI Block cfiCond276 Using cfiCommon0
          CFI (cfiCond276) Function MT_AfDataRetrieve
          CFI (cfiCond276) Conditional ??CrossCallReturnLabel_38
          CFI (cfiCond276) R6 load(1, XDATA, add(CFA_XSP16, literal(-20)))
          CFI (cfiCond276) VB load(1, XDATA, add(CFA_XSP16, literal(-19)))
          CFI (cfiCond276) V0 load(1, XDATA, add(CFA_XSP16, literal(-18)))
          CFI (cfiCond276) V1 load(1, XDATA, add(CFA_XSP16, literal(-17)))
          CFI (cfiCond276) V2 load(1, XDATA, add(CFA_XSP16, literal(-16)))
          CFI (cfiCond276) V3 load(1, XDATA, add(CFA_XSP16, literal(-15)))
          CFI (cfiCond276) V4 load(1, XDATA, add(CFA_XSP16, literal(-14)))
          CFI (cfiCond276) V5 load(1, XDATA, add(CFA_XSP16, literal(-13)))
          CFI (cfiCond276) V6 load(1, XDATA, add(CFA_XSP16, literal(-12)))
          CFI (cfiCond276) V7 load(1, XDATA, add(CFA_XSP16, literal(-11)))
          CFI (cfiCond276) V8 load(1, XDATA, add(CFA_XSP16, literal(-10)))
          CFI (cfiCond276) V9 load(1, XDATA, add(CFA_XSP16, literal(-9)))
          CFI (cfiCond276) V10 load(1, XDATA, add(CFA_XSP16, literal(-8)))
          CFI (cfiCond276) V11 load(1, XDATA, add(CFA_XSP16, literal(-7)))
          CFI (cfiCond276) R7 load(1, XDATA, add(CFA_XSP16, literal(-6)))
          CFI (cfiCond276) ?RET_LOW load(1, XDATA, add(CFA_XSP16, literal(-5)))
          CFI (cfiCond276) ?RET_HIGH load(1, XDATA, add(CFA_XSP16, literal(-4)))
          CFI (cfiCond276) ?BRET_EXT load(1, XDATA, add(CFA_XSP16, literal(-3)))
          CFI (cfiCond276) DPL0 load(1, XDATA, add(CFA_XSP16, literal(-2)))
          CFI (cfiCond276) DPH0 load(1, XDATA, add(CFA_XSP16, literal(-1)))
          CFI (cfiCond276) CFA_SP SP+-2
          CFI (cfiCond276) CFA_XSP16 add(XSP16, 23)
          CFI Block cfiPicker277 Using cfiCommon1
          CFI (cfiPicker277) NoFunction
          CFI (cfiPicker277) Picker
        LCALL     ?Subroutine44 & 0xFFFF
??CrossCallReturnLabel_68:
        MOVX      A,@DPTR
        RET
          CFI EndBlock cfiCond274
          CFI EndBlock cfiCond275
          CFI EndBlock cfiCond276
          CFI EndBlock cfiPicker277

        RSEG BANKED_CODE:HUGECODE:NOROOT(0)
?Subroutine22:
          CFI Block cfiCond278 Using cfiCommon0
          CFI Function MT_AfDataConfirm
          CFI Conditional ??CrossCallReturnLabel_30
          CFI DPL0 Frame(CFA_SP, 4)
          CFI DPH0 Frame(CFA_SP, 5)
          CFI CFA_SP SP+-7
          CFI CFA_XSP16 add(XSP16, 3)
          CFI Block cfiCond279 Using cfiCommon0
          CFI (cfiCond279) Function MT_AfDataRetrieve
          CFI (cfiCond279) Conditional ??CrossCallReturnLabel_31
          CFI (cfiCond279) R6 load(1, XDATA, add(CFA_XSP16, literal(-20)))
          CFI (cfiCond279) VB load(1, XDATA, add(CFA_XSP16, literal(-19)))
          CFI (cfiCond279) V0 load(1, XDATA, add(CFA_XSP16, literal(-18)))
          CFI (cfiCond279) V1 load(1, XDATA, add(CFA_XSP16, literal(-17)))
          CFI (cfiCond279) V2 load(1, XDATA, add(CFA_XSP16, literal(-16)))
          CFI (cfiCond279) V3 load(1, XDATA, add(CFA_XSP16, literal(-15)))
          CFI (cfiCond279) V4 load(1, XDATA, add(CFA_XSP16, literal(-14)))
          CFI (cfiCond279) V5 load(1, XDATA, add(CFA_XSP16, literal(-13)))
          CFI (cfiCond279) V6 load(1, XDATA, add(CFA_XSP16, literal(-12)))
          CFI (cfiCond279) V7 load(1, XDATA, add(CFA_XSP16, literal(-11)))
          CFI (cfiCond279) V8 load(1, XDATA, add(CFA_XSP16, literal(-10)))
          CFI (cfiCond279) V9 load(1, XDATA, add(CFA_XSP16, literal(-9)))
          CFI (cfiCond279) V10 load(1, XDATA, add(CFA_XSP16, literal(-8)))
          CFI (cfiCond279) V11 load(1, XDATA, add(CFA_XSP16, literal(-7)))
          CFI (cfiCond279) R7 load(1, XDATA, add(CFA_XSP16, literal(-6)))
          CFI (cfiCond279) ?RET_LOW load(1, XDATA, add(CFA_XSP16, literal(-5)))
          CFI (cfiCond279) ?RET_HIGH load(1, XDATA, add(CFA_XSP16, literal(-4)))
          CFI (cfiCond279) ?BRET_EXT load(1, XDATA, add(CFA_XSP16, literal(-3)))
          CFI (cfiCond279) DPL0 load(1, XDATA, add(CFA_XSP16, literal(-2)))
          CFI (cfiCond279) DPH0 load(1, XDATA, add(CFA_XSP16, literal(-1)))
          CFI (cfiCond279) CFA_SP SP+-2
          CFI (cfiCond279) CFA_XSP16 add(XSP16, 23)
          CFI Block cfiPicker280 Using cfiCommon1
          CFI (cfiPicker280) NoFunction
          CFI (cfiPicker280) Picker
        INC       DPTR
        MOVX      A,@DPTR
        MOV       DPL,?XSP + 0
        MOV       DPH,?XSP + 1
        MOVX      @DPTR,A
        RET
          CFI EndBlock cfiCond278
          CFI EndBlock cfiCond279
          CFI EndBlock cfiPicker280

        RSEG BANKED_CODE:HUGECODE:NOROOT(0)
?Subroutine15:
          CFI Block cfiCond281 Using cfiCommon0
          CFI Function MT_AfIncomingMsg
          CFI Conditional ??CrossCallReturnLabel_19
          CFI R6 load(1, XDATA, add(CFA_XSP16, literal(-20)))
          CFI VB load(1, XDATA, add(CFA_XSP16, literal(-19)))
          CFI V0 load(1, XDATA, add(CFA_XSP16, literal(-18)))
          CFI V1 load(1, XDATA, add(CFA_XSP16, literal(-17)))
          CFI V2 load(1, XDATA, add(CFA_XSP16, literal(-16)))
          CFI V3 load(1, XDATA, add(CFA_XSP16, literal(-15)))
          CFI V4 load(1, XDATA, add(CFA_XSP16, literal(-14)))
          CFI V5 load(1, XDATA, add(CFA_XSP16, literal(-13)))
          CFI V6 load(1, XDATA, add(CFA_XSP16, literal(-12)))
          CFI V7 load(1, XDATA, add(CFA_XSP16, literal(-11)))
          CFI V8 load(1, XDATA, add(CFA_XSP16, literal(-10)))
          CFI V9 load(1, XDATA, add(CFA_XSP16, literal(-9)))
          CFI V10 load(1, XDATA, add(CFA_XSP16, literal(-8)))
          CFI V11 load(1, XDATA, add(CFA_XSP16, literal(-7)))
          CFI R7 load(1, XDATA, add(CFA_XSP16, literal(-6)))
          CFI ?RET_LOW load(1, XDATA, add(CFA_XSP16, literal(-5)))
          CFI ?RET_HIGH load(1, XDATA, add(CFA_XSP16, literal(-4)))
          CFI ?BRET_EXT load(1, XDATA, add(CFA_XSP16, literal(-3)))
          CFI DPL0 load(1, XDATA, add(CFA_XSP16, literal(-2)))
          CFI DPH0 load(1, XDATA, add(CFA_XSP16, literal(-1)))
          CFI CFA_SP SP+-2
          CFI CFA_XSP16 add(XSP16, 23)
          CFI Block cfiCond282 Using cfiCommon0
          CFI (cfiCond282) Function MT_AfDataRetrieve
          CFI (cfiCond282) Conditional ??CrossCallReturnLabel_20
          CFI (cfiCond282) R6 load(1, XDATA, add(CFA_XSP16, literal(-20)))
          CFI (cfiCond282) VB load(1, XDATA, add(CFA_XSP16, literal(-19)))
          CFI (cfiCond282) V0 load(1, XDATA, add(CFA_XSP16, literal(-18)))
          CFI (cfiCond282) V1 load(1, XDATA, add(CFA_XSP16, literal(-17)))
          CFI (cfiCond282) V2 load(1, XDATA, add(CFA_XSP16, literal(-16)))
          CFI (cfiCond282) V3 load(1, XDATA, add(CFA_XSP16, literal(-15)))
          CFI (cfiCond282) V4 load(1, XDATA, add(CFA_XSP16, literal(-14)))
          CFI (cfiCond282) V5 load(1, XDATA, add(CFA_XSP16, literal(-13)))
          CFI (cfiCond282) V6 load(1, XDATA, add(CFA_XSP16, literal(-12)))
          CFI (cfiCond282) V7 load(1, XDATA, add(CFA_XSP16, literal(-11)))
          CFI (cfiCond282) V8 load(1, XDATA, add(CFA_XSP16, literal(-10)))
          CFI (cfiCond282) V9 load(1, XDATA, add(CFA_XSP16, literal(-9)))
          CFI (cfiCond282) V10 load(1, XDATA, add(CFA_XSP16, literal(-8)))
          CFI (cfiCond282) V11 load(1, XDATA, add(CFA_XSP16, literal(-7)))
          CFI (cfiCond282) R7 load(1, XDATA, add(CFA_XSP16, literal(-6)))
          CFI (cfiCond282) ?RET_LOW load(1, XDATA, add(CFA_XSP16, literal(-5)))
          CFI (cfiCond282) ?RET_HIGH load(1, XDATA, add(CFA_XSP16, literal(-4)))
          CFI (cfiCond282) ?BRET_EXT load(1, XDATA, add(CFA_XSP16, literal(-3)))
          CFI (cfiCond282) DPL0 load(1, XDATA, add(CFA_XSP16, literal(-2)))
          CFI (cfiCond282) DPH0 load(1, XDATA, add(CFA_XSP16, literal(-1)))
          CFI (cfiCond282) CFA_SP SP+-2
          CFI (cfiCond282) CFA_XSP16 add(XSP16, 23)
          CFI Block cfiPicker283 Using cfiCommon1
          CFI (cfiPicker283) NoFunction
          CFI (cfiPicker283) Picker
        LCALL     ?Subroutine40 & 0xFFFF
??CrossCallReturnLabel_60:
        RET
          CFI EndBlock cfiCond281
          CFI EndBlock cfiCond282
          CFI EndBlock cfiPicker283

        RSEG BANKED_CODE:HUGECODE:NOROOT(0)
?Subroutine40:
          CFI Block cfiCond284 Using cfiCommon0
          CFI Function MT_AfIncomingMsg
          CFI Conditional ??CrossCallReturnLabel_60, ??CrossCallReturnLabel_19
          CFI R6 load(1, XDATA, add(CFA_XSP16, literal(-20)))
          CFI VB load(1, XDATA, add(CFA_XSP16, literal(-19)))
          CFI V0 load(1, XDATA, add(CFA_XSP16, literal(-18)))
          CFI V1 load(1, XDATA, add(CFA_XSP16, literal(-17)))
          CFI V2 load(1, XDATA, add(CFA_XSP16, literal(-16)))
          CFI V3 load(1, XDATA, add(CFA_XSP16, literal(-15)))
          CFI V4 load(1, XDATA, add(CFA_XSP16, literal(-14)))
          CFI V5 load(1, XDATA, add(CFA_XSP16, literal(-13)))
          CFI V6 load(1, XDATA, add(CFA_XSP16, literal(-12)))
          CFI V7 load(1, XDATA, add(CFA_XSP16, literal(-11)))
          CFI V8 load(1, XDATA, add(CFA_XSP16, literal(-10)))
          CFI V9 load(1, XDATA, add(CFA_XSP16, literal(-9)))
          CFI V10 load(1, XDATA, add(CFA_XSP16, literal(-8)))
          CFI V11 load(1, XDATA, add(CFA_XSP16, literal(-7)))
          CFI R7 load(1, XDATA, add(CFA_XSP16, literal(-6)))
          CFI ?RET_LOW load(1, XDATA, add(CFA_XSP16, literal(-5)))
          CFI ?RET_HIGH load(1, XDATA, add(CFA_XSP16, literal(-4)))
          CFI ?BRET_EXT load(1, XDATA, add(CFA_XSP16, literal(-3)))
          CFI DPL0 load(1, XDATA, add(CFA_XSP16, literal(-2)))
          CFI DPH0 load(1, XDATA, add(CFA_XSP16, literal(-1)))
          CFI CFA_SP SP+-4
          CFI CFA_XSP16 add(XSP16, 23)
          CFI Block cfiCond285 Using cfiCommon0
          CFI (cfiCond285) Function MT_AfDataRetrieve
          CFI (cfiCond285) Conditional ??CrossCallReturnLabel_60, ??CrossCallReturnLabel_20
          CFI (cfiCond285) R6 load(1, XDATA, add(CFA_XSP16, literal(-20)))
          CFI (cfiCond285) VB load(1, XDATA, add(CFA_XSP16, literal(-19)))
          CFI (cfiCond285) V0 load(1, XDATA, add(CFA_XSP16, literal(-18)))
          CFI (cfiCond285) V1 load(1, XDATA, add(CFA_XSP16, literal(-17)))
          CFI (cfiCond285) V2 load(1, XDATA, add(CFA_XSP16, literal(-16)))
          CFI (cfiCond285) V3 load(1, XDATA, add(CFA_XSP16, literal(-15)))
          CFI (cfiCond285) V4 load(1, XDATA, add(CFA_XSP16, literal(-14)))
          CFI (cfiCond285) V5 load(1, XDATA, add(CFA_XSP16, literal(-13)))
          CFI (cfiCond285) V6 load(1, XDATA, add(CFA_XSP16, literal(-12)))
          CFI (cfiCond285) V7 load(1, XDATA, add(CFA_XSP16, literal(-11)))
          CFI (cfiCond285) V8 load(1, XDATA, add(CFA_XSP16, literal(-10)))
          CFI (cfiCond285) V9 load(1, XDATA, add(CFA_XSP16, literal(-9)))
          CFI (cfiCond285) V10 load(1, XDATA, add(CFA_XSP16, literal(-8)))
          CFI (cfiCond285) V11 load(1, XDATA, add(CFA_XSP16, literal(-7)))
          CFI (cfiCond285) R7 load(1, XDATA, add(CFA_XSP16, literal(-6)))
          CFI (cfiCond285) ?RET_LOW load(1, XDATA, add(CFA_XSP16, literal(-5)))
          CFI (cfiCond285) ?RET_HIGH load(1, XDATA, add(CFA_XSP16, literal(-4)))
          CFI (cfiCond285) ?BRET_EXT load(1, XDATA, add(CFA_XSP16, literal(-3)))
          CFI (cfiCond285) DPL0 load(1, XDATA, add(CFA_XSP16, literal(-2)))
          CFI (cfiCond285) DPH0 load(1, XDATA, add(CFA_XSP16, literal(-1)))
          CFI (cfiCond285) CFA_SP SP+-4
          CFI (cfiCond285) CFA_XSP16 add(XSP16, 23)
          CFI Block cfiCond286 Using cfiCommon0
          CFI (cfiCond286) Function MT_AfExec
          CFI (cfiCond286) Conditional ??CrossCallReturnLabel_61, ??CrossCallReturnLabel_13
          CFI (cfiCond286) R6 load(1, XDATA, add(CFA_XSP16, literal(-9)))
          CFI (cfiCond286) VB load(1, XDATA, add(CFA_XSP16, literal(-8)))
          CFI (cfiCond286) V0 load(1, XDATA, add(CFA_XSP16, literal(-7)))
          CFI (cfiCond286) R7 load(1, XDATA, add(CFA_XSP16, literal(-6)))
          CFI (cfiCond286) ?RET_LOW load(1, XDATA, add(CFA_XSP16, literal(-5)))
          CFI (cfiCond286) ?RET_HIGH load(1, XDATA, add(CFA_XSP16, literal(-4)))
          CFI (cfiCond286) ?BRET_EXT load(1, XDATA, add(CFA_XSP16, literal(-3)))
          CFI (cfiCond286) DPL0 load(1, XDATA, add(CFA_XSP16, literal(-2)))
          CFI (cfiCond286) DPH0 load(1, XDATA, add(CFA_XSP16, literal(-1)))
          CFI (cfiCond286) CFA_SP SP+-4
          CFI (cfiCond286) CFA_XSP16 add(XSP16, 9)
          CFI Block cfiCond287 Using cfiCommon0
          CFI (cfiCond287) Function MT_AfDataStore
          CFI (cfiCond287) Conditional ??CrossCallReturnLabel_61, ??CrossCallReturnLabel_14
          CFI (cfiCond287) R6 load(1, XDATA, add(CFA_XSP16, literal(-11)))
          CFI (cfiCond287) VB load(1, XDATA, add(CFA_XSP16, literal(-10)))
          CFI (cfiCond287) V0 load(1, XDATA, add(CFA_XSP16, literal(-9)))
          CFI (cfiCond287) V1 load(1, XDATA, add(CFA_XSP16, literal(-8)))
          CFI (cfiCond287) V2 load(1, XDATA, add(CFA_XSP16, literal(-7)))
          CFI (cfiCond287) R7 load(1, XDATA, add(CFA_XSP16, literal(-6)))
          CFI (cfiCond287) ?RET_LOW load(1, XDATA, add(CFA_XSP16, literal(-5)))
          CFI (cfiCond287) ?RET_HIGH load(1, XDATA, add(CFA_XSP16, literal(-4)))
          CFI (cfiCond287) ?BRET_EXT load(1, XDATA, add(CFA_XSP16, literal(-3)))
          CFI (cfiCond287) DPL0 load(1, XDATA, add(CFA_XSP16, literal(-2)))
          CFI (cfiCond287) DPH0 load(1, XDATA, add(CFA_XSP16, literal(-1)))
          CFI (cfiCond287) CFA_SP SP+-4
          CFI (cfiCond287) CFA_XSP16 add(XSP16, 12)
          CFI Block cfiPicker288 Using cfiCommon1
          CFI (cfiPicker288) NoFunction
          CFI (cfiPicker288) Picker
        MOVX      A,@DPTR
        MOV       R2,A
        INC       DPTR
        MOVX      A,@DPTR
        MOV       R3,A
        LCALL     `??osal_mem_free::?relay`; Banked call to: osal_mem_free
        RET
          CFI EndBlock cfiCond284
          CFI EndBlock cfiCond285
          CFI EndBlock cfiCond286
          CFI EndBlock cfiCond287
          CFI EndBlock cfiPicker288

        RSEG BANKED_CODE:HUGECODE:NOROOT(0)
?Subroutine9:
          CFI Block cfiCond289 Using cfiCommon0
          CFI Function MT_AfIncomingMsg
          CFI Conditional ??CrossCallReturnLabel_10
          CFI R6 load(1, XDATA, add(CFA_XSP16, literal(-20)))
          CFI VB load(1, XDATA, add(CFA_XSP16, literal(-19)))
          CFI V0 load(1, XDATA, add(CFA_XSP16, literal(-18)))
          CFI V1 load(1, XDATA, add(CFA_XSP16, literal(-17)))
          CFI V2 load(1, XDATA, add(CFA_XSP16, literal(-16)))
          CFI V3 load(1, XDATA, add(CFA_XSP16, literal(-15)))
          CFI V4 load(1, XDATA, add(CFA_XSP16, literal(-14)))
          CFI V5 load(1, XDATA, add(CFA_XSP16, literal(-13)))
          CFI V6 load(1, XDATA, add(CFA_XSP16, literal(-12)))
          CFI V7 load(1, XDATA, add(CFA_XSP16, literal(-11)))
          CFI V8 load(1, XDATA, add(CFA_XSP16, literal(-10)))
          CFI V9 load(1, XDATA, add(CFA_XSP16, literal(-9)))
          CFI V10 load(1, XDATA, add(CFA_XSP16, literal(-8)))
          CFI V11 load(1, XDATA, add(CFA_XSP16, literal(-7)))
          CFI R7 load(1, XDATA, add(CFA_XSP16, literal(-6)))
          CFI ?RET_LOW load(1, XDATA, add(CFA_XSP16, literal(-5)))
          CFI ?RET_HIGH load(1, XDATA, add(CFA_XSP16, literal(-4)))
          CFI ?BRET_EXT load(1, XDATA, add(CFA_XSP16, literal(-3)))
          CFI DPL0 load(1, XDATA, add(CFA_XSP16, literal(-2)))
          CFI DPH0 load(1, XDATA, add(CFA_XSP16, literal(-1)))
          CFI CFA_SP SP+-2
          CFI CFA_XSP16 add(XSP16, 23)
          CFI Block cfiCond290 Using cfiCommon0
          CFI (cfiCond290) Function MT_AfIncomingMsg
          CFI (cfiCond290) Conditional ??CrossCallReturnLabel_11
          CFI (cfiCond290) R6 load(1, XDATA, add(CFA_XSP16, literal(-20)))
          CFI (cfiCond290) VB load(1, XDATA, add(CFA_XSP16, literal(-19)))
          CFI (cfiCond290) V0 load(1, XDATA, add(CFA_XSP16, literal(-18)))
          CFI (cfiCond290) V1 load(1, XDATA, add(CFA_XSP16, literal(-17)))
          CFI (cfiCond290) V2 load(1, XDATA, add(CFA_XSP16, literal(-16)))
          CFI (cfiCond290) V3 load(1, XDATA, add(CFA_XSP16, literal(-15)))
          CFI (cfiCond290) V4 load(1, XDATA, add(CFA_XSP16, literal(-14)))
          CFI (cfiCond290) V5 load(1, XDATA, add(CFA_XSP16, literal(-13)))
          CFI (cfiCond290) V6 load(1, XDATA, add(CFA_XSP16, literal(-12)))
          CFI (cfiCond290) V7 load(1, XDATA, add(CFA_XSP16, literal(-11)))
          CFI (cfiCond290) V8 load(1, XDATA, add(CFA_XSP16, literal(-10)))
          CFI (cfiCond290) V9 load(1, XDATA, add(CFA_XSP16, literal(-9)))
          CFI (cfiCond290) V10 load(1, XDATA, add(CFA_XSP16, literal(-8)))
          CFI (cfiCond290) V11 load(1, XDATA, add(CFA_XSP16, literal(-7)))
          CFI (cfiCond290) R7 load(1, XDATA, add(CFA_XSP16, literal(-6)))
          CFI (cfiCond290) ?RET_LOW load(1, XDATA, add(CFA_XSP16, literal(-5)))
          CFI (cfiCond290) ?RET_HIGH load(1, XDATA, add(CFA_XSP16, literal(-4)))
          CFI (cfiCond290) ?BRET_EXT load(1, XDATA, add(CFA_XSP16, literal(-3)))
          CFI (cfiCond290) DPL0 load(1, XDATA, add(CFA_XSP16, literal(-2)))
          CFI (cfiCond290) DPH0 load(1, XDATA, add(CFA_XSP16, literal(-1)))
          CFI (cfiCond290) CFA_SP SP+-2
          CFI (cfiCond290) CFA_XSP16 add(XSP16, 23)
          CFI Block cfiCond291 Using cfiCommon0
          CFI (cfiCond291) Function MT_AfDataRetrieve
          CFI (cfiCond291) Conditional ??CrossCallReturnLabel_12
          CFI (cfiCond291) R6 load(1, XDATA, add(CFA_XSP16, literal(-20)))
          CFI (cfiCond291) VB load(1, XDATA, add(CFA_XSP16, literal(-19)))
          CFI (cfiCond291) V0 load(1, XDATA, add(CFA_XSP16, literal(-18)))
          CFI (cfiCond291) V1 load(1, XDATA, add(CFA_XSP16, literal(-17)))
          CFI (cfiCond291) V2 load(1, XDATA, add(CFA_XSP16, literal(-16)))
          CFI (cfiCond291) V3 load(1, XDATA, add(CFA_XSP16, literal(-15)))
          CFI (cfiCond291) V4 load(1, XDATA, add(CFA_XSP16, literal(-14)))
          CFI (cfiCond291) V5 load(1, XDATA, add(CFA_XSP16, literal(-13)))
          CFI (cfiCond291) V6 load(1, XDATA, add(CFA_XSP16, literal(-12)))
          CFI (cfiCond291) V7 load(1, XDATA, add(CFA_XSP16, literal(-11)))
          CFI (cfiCond291) V8 load(1, XDATA, add(CFA_XSP16, literal(-10)))
          CFI (cfiCond291) V9 load(1, XDATA, add(CFA_XSP16, literal(-9)))
          CFI (cfiCond291) V10 load(1, XDATA, add(CFA_XSP16, literal(-8)))
          CFI (cfiCond291) V11 load(1, XDATA, add(CFA_XSP16, literal(-7)))
          CFI (cfiCond291) R7 load(1, XDATA, add(CFA_XSP16, literal(-6)))
          CFI (cfiCond291) ?RET_LOW load(1, XDATA, add(CFA_XSP16, literal(-5)))
          CFI (cfiCond291) ?RET_HIGH load(1, XDATA, add(CFA_XSP16, literal(-4)))
          CFI (cfiCond291) ?BRET_EXT load(1, XDATA, add(CFA_XSP16, literal(-3)))
          CFI (cfiCond291) DPL0 load(1, XDATA, add(CFA_XSP16, literal(-2)))
          CFI (cfiCond291) DPH0 load(1, XDATA, add(CFA_XSP16, literal(-1)))
          CFI (cfiCond291) CFA_SP SP+-2
          CFI (cfiCond291) CFA_XSP16 add(XSP16, 23)
          CFI Block cfiPicker292 Using cfiCommon1
          CFI (cfiPicker292) NoFunction
          CFI (cfiPicker292) Picker
        LCALL     ?Subroutine49 & 0xFFFF
??CrossCallReturnLabel_79:
        MOVX      @DPTR,A
        RET
          CFI EndBlock cfiCond289
          CFI EndBlock cfiCond290
          CFI EndBlock cfiCond291
          CFI EndBlock cfiPicker292

        RSEG BANKED_CODE:HUGECODE:NOROOT(0)
?Subroutine49:
          CFI Block cfiCond293 Using cfiCommon0
          CFI Function MT_AfIncomingMsg
          CFI Conditional ??CrossCallReturnLabel_80, ??CrossCallReturnLabel_63, ??CrossCallReturnLabel_25
          CFI R6 load(1, XDATA, add(CFA_XSP16, literal(-20)))
          CFI VB load(1, XDATA, add(CFA_XSP16, literal(-19)))
          CFI V0 load(1, XDATA, add(CFA_XSP16, literal(-18)))
          CFI V1 load(1, XDATA, add(CFA_XSP16, literal(-17)))
          CFI V2 load(1, XDATA, add(CFA_XSP16, literal(-16)))
          CFI V3 load(1, XDATA, add(CFA_XSP16, literal(-15)))
          CFI V4 load(1, XDATA, add(CFA_XSP16, literal(-14)))
          CFI V5 load(1, XDATA, add(CFA_XSP16, literal(-13)))
          CFI V6 load(1, XDATA, add(CFA_XSP16, literal(-12)))
          CFI V7 load(1, XDATA, add(CFA_XSP16, literal(-11)))
          CFI V8 load(1, XDATA, add(CFA_XSP16, literal(-10)))
          CFI V9 load(1, XDATA, add(CFA_XSP16, literal(-9)))
          CFI V10 load(1, XDATA, add(CFA_XSP16, literal(-8)))
          CFI V11 load(1, XDATA, add(CFA_XSP16, literal(-7)))
          CFI R7 load(1, XDATA, add(CFA_XSP16, literal(-6)))
          CFI ?RET_LOW load(1, XDATA, add(CFA_XSP16, literal(-5)))
          CFI ?RET_HIGH load(1, XDATA, add(CFA_XSP16, literal(-4)))
          CFI ?BRET_EXT load(1, XDATA, add(CFA_XSP16, literal(-3)))
          CFI DPL0 load(1, XDATA, add(CFA_XSP16, literal(-2)))
          CFI DPH0 load(1, XDATA, add(CFA_XSP16, literal(-1)))
          CFI CFA_SP SP+-6
          CFI CFA_XSP16 add(XSP16, 23)
          CFI Block cfiCond294 Using cfiCommon0
          CFI (cfiCond294) Function MT_AfIncomingMsg
          CFI (cfiCond294) Conditional ??CrossCallReturnLabel_80, ??CrossCallReturnLabel_63, ??CrossCallReturnLabel_26
          CFI (cfiCond294) R6 load(1, XDATA, add(CFA_XSP16, literal(-20)))
          CFI (cfiCond294) VB load(1, XDATA, add(CFA_XSP16, literal(-19)))
          CFI (cfiCond294) V0 load(1, XDATA, add(CFA_XSP16, literal(-18)))
          CFI (cfiCond294) V1 load(1, XDATA, add(CFA_XSP16, literal(-17)))
          CFI (cfiCond294) V2 load(1, XDATA, add(CFA_XSP16, literal(-16)))
          CFI (cfiCond294) V3 load(1, XDATA, add(CFA_XSP16, literal(-15)))
          CFI (cfiCond294) V4 load(1, XDATA, add(CFA_XSP16, literal(-14)))
          CFI (cfiCond294) V5 load(1, XDATA, add(CFA_XSP16, literal(-13)))
          CFI (cfiCond294) V6 load(1, XDATA, add(CFA_XSP16, literal(-12)))
          CFI (cfiCond294) V7 load(1, XDATA, add(CFA_XSP16, literal(-11)))
          CFI (cfiCond294) V8 load(1, XDATA, add(CFA_XSP16, literal(-10)))
          CFI (cfiCond294) V9 load(1, XDATA, add(CFA_XSP16, literal(-9)))
          CFI (cfiCond294) V10 load(1, XDATA, add(CFA_XSP16, literal(-8)))
          CFI (cfiCond294) V11 load(1, XDATA, add(CFA_XSP16, literal(-7)))
          CFI (cfiCond294) R7 load(1, XDATA, add(CFA_XSP16, literal(-6)))
          CFI (cfiCond294) ?RET_LOW load(1, XDATA, add(CFA_XSP16, literal(-5)))
          CFI (cfiCond294) ?RET_HIGH load(1, XDATA, add(CFA_XSP16, literal(-4)))
          CFI (cfiCond294) ?BRET_EXT load(1, XDATA, add(CFA_XSP16, literal(-3)))
          CFI (cfiCond294) DPL0 load(1, XDATA, add(CFA_XSP16, literal(-2)))
          CFI (cfiCond294) DPH0 load(1, XDATA, add(CFA_XSP16, literal(-1)))
          CFI (cfiCond294) CFA_SP SP+-6
          CFI (cfiCond294) CFA_XSP16 add(XSP16, 23)
          CFI Block cfiCond295 Using cfiCommon0
          CFI (cfiCond295) Function MT_AfIncomingMsg
          CFI (cfiCond295) Conditional ??CrossCallReturnLabel_80, ??CrossCallReturnLabel_62, ??CrossCallReturnLabel_0
          CFI (cfiCond295) R6 load(1, XDATA, add(CFA_XSP16, literal(-20)))
          CFI (cfiCond295) VB load(1, XDATA, add(CFA_XSP16, literal(-19)))
          CFI (cfiCond295) V0 load(1, XDATA, add(CFA_XSP16, literal(-18)))
          CFI (cfiCond295) V1 load(1, XDATA, add(CFA_XSP16, literal(-17)))
          CFI (cfiCond295) V2 load(1, XDATA, add(CFA_XSP16, literal(-16)))
          CFI (cfiCond295) V3 load(1, XDATA, add(CFA_XSP16, literal(-15)))
          CFI (cfiCond295) V4 load(1, XDATA, add(CFA_XSP16, literal(-14)))
          CFI (cfiCond295) V5 load(1, XDATA, add(CFA_XSP16, literal(-13)))
          CFI (cfiCond295) V6 load(1, XDATA, add(CFA_XSP16, literal(-12)))
          CFI (cfiCond295) V7 load(1, XDATA, add(CFA_XSP16, literal(-11)))
          CFI (cfiCond295) V8 load(1, XDATA, add(CFA_XSP16, literal(-10)))
          CFI (cfiCond295) V9 load(1, XDATA, add(CFA_XSP16, literal(-9)))
          CFI (cfiCond295) V10 load(1, XDATA, add(CFA_XSP16, literal(-8)))
          CFI (cfiCond295) V11 load(1, XDATA, add(CFA_XSP16, literal(-7)))
          CFI (cfiCond295) R7 load(1, XDATA, add(CFA_XSP16, literal(-6)))
          CFI (cfiCond295) ?RET_LOW load(1, XDATA, add(CFA_XSP16, literal(-5)))
          CFI (cfiCond295) ?RET_HIGH load(1, XDATA, add(CFA_XSP16, literal(-4)))
          CFI (cfiCond295) ?BRET_EXT load(1, XDATA, add(CFA_XSP16, literal(-3)))
          CFI (cfiCond295) DPL0 load(1, XDATA, add(CFA_XSP16, literal(-2)))
          CFI (cfiCond295) DPH0 load(1, XDATA, add(CFA_XSP16, literal(-1)))
          CFI (cfiCond295) CFA_SP SP+-6
          CFI (cfiCond295) CFA_XSP16 add(XSP16, 23)
          CFI Block cfiCond296 Using cfiCommon0
          CFI (cfiCond296) Function MT_AfIncomingMsg
          CFI (cfiCond296) Conditional ??CrossCallReturnLabel_80, ??CrossCallReturnLabel_62, ??CrossCallReturnLabel_1
          CFI (cfiCond296) R6 load(1, XDATA, add(CFA_XSP16, literal(-20)))
          CFI (cfiCond296) VB load(1, XDATA, add(CFA_XSP16, literal(-19)))
          CFI (cfiCond296) V0 load(1, XDATA, add(CFA_XSP16, literal(-18)))
          CFI (cfiCond296) V1 load(1, XDATA, add(CFA_XSP16, literal(-17)))
          CFI (cfiCond296) V2 load(1, XDATA, add(CFA_XSP16, literal(-16)))
          CFI (cfiCond296) V3 load(1, XDATA, add(CFA_XSP16, literal(-15)))
          CFI (cfiCond296) V4 load(1, XDATA, add(CFA_XSP16, literal(-14)))
          CFI (cfiCond296) V5 load(1, XDATA, add(CFA_XSP16, literal(-13)))
          CFI (cfiCond296) V6 load(1, XDATA, add(CFA_XSP16, literal(-12)))
          CFI (cfiCond296) V7 load(1, XDATA, add(CFA_XSP16, literal(-11)))
          CFI (cfiCond296) V8 load(1, XDATA, add(CFA_XSP16, literal(-10)))
          CFI (cfiCond296) V9 load(1, XDATA, add(CFA_XSP16, literal(-9)))
          CFI (cfiCond296) V10 load(1, XDATA, add(CFA_XSP16, literal(-8)))
          CFI (cfiCond296) V11 load(1, XDATA, add(CFA_XSP16, literal(-7)))
          CFI (cfiCond296) R7 load(1, XDATA, add(CFA_XSP16, literal(-6)))
          CFI (cfiCond296) ?RET_LOW load(1, XDATA, add(CFA_XSP16, literal(-5)))
          CFI (cfiCond296) ?RET_HIGH load(1, XDATA, add(CFA_XSP16, literal(-4)))
          CFI (cfiCond296) ?BRET_EXT load(1, XDATA, add(CFA_XSP16, literal(-3)))
          CFI (cfiCond296) DPL0 load(1, XDATA, add(CFA_XSP16, literal(-2)))
          CFI (cfiCond296) DPH0 load(1, XDATA, add(CFA_XSP16, literal(-1)))
          CFI (cfiCond296) CFA_SP SP+-6
          CFI (cfiCond296) CFA_XSP16 add(XSP16, 23)
          CFI Block cfiCond297 Using cfiCommon0
          CFI (cfiCond297) Function MT_AfIncomingMsg
          CFI (cfiCond297) Conditional ??CrossCallReturnLabel_79, ??CrossCallReturnLabel_10
          CFI (cfiCond297) R6 load(1, XDATA, add(CFA_XSP16, literal(-20)))
          CFI (cfiCond297) VB load(1, XDATA, add(CFA_XSP16, literal(-19)))
          CFI (cfiCond297) V0 load(1, XDATA, add(CFA_XSP16, literal(-18)))
          CFI (cfiCond297) V1 load(1, XDATA, add(CFA_XSP16, literal(-17)))
          CFI (cfiCond297) V2 load(1, XDATA, add(CFA_XSP16, literal(-16)))
          CFI (cfiCond297) V3 load(1, XDATA, add(CFA_XSP16, literal(-15)))
          CFI (cfiCond297) V4 load(1, XDATA, add(CFA_XSP16, literal(-14)))
          CFI (cfiCond297) V5 load(1, XDATA, add(CFA_XSP16, literal(-13)))
          CFI (cfiCond297) V6 load(1, XDATA, add(CFA_XSP16, literal(-12)))
          CFI (cfiCond297) V7 load(1, XDATA, add(CFA_XSP16, literal(-11)))
          CFI (cfiCond297) V8 load(1, XDATA, add(CFA_XSP16, literal(-10)))
          CFI (cfiCond297) V9 load(1, XDATA, add(CFA_XSP16, literal(-9)))
          CFI (cfiCond297) V10 load(1, XDATA, add(CFA_XSP16, literal(-8)))
          CFI (cfiCond297) V11 load(1, XDATA, add(CFA_XSP16, literal(-7)))
          CFI (cfiCond297) R7 load(1, XDATA, add(CFA_XSP16, literal(-6)))
          CFI (cfiCond297) ?RET_LOW load(1, XDATA, add(CFA_XSP16, literal(-5)))
          CFI (cfiCond297) ?RET_HIGH load(1, XDATA, add(CFA_XSP16, literal(-4)))
          CFI (cfiCond297) ?BRET_EXT load(1, XDATA, add(CFA_XSP16, literal(-3)))
          CFI (cfiCond297) DPL0 load(1, XDATA, add(CFA_XSP16, literal(-2)))
          CFI (cfiCond297) DPH0 load(1, XDATA, add(CFA_XSP16, literal(-1)))
          CFI (cfiCond297) CFA_SP SP+-4
          CFI (cfiCond297) CFA_XSP16 add(XSP16, 23)
          CFI Block cfiCond298 Using cfiCommon0
          CFI (cfiCond298) Function MT_AfIncomingMsg
          CFI (cfiCond298) Conditional ??CrossCallReturnLabel_79, ??CrossCallReturnLabel_11
          CFI (cfiCond298) R6 load(1, XDATA, add(CFA_XSP16, literal(-20)))
          CFI (cfiCond298) VB load(1, XDATA, add(CFA_XSP16, literal(-19)))
          CFI (cfiCond298) V0 load(1, XDATA, add(CFA_XSP16, literal(-18)))
          CFI (cfiCond298) V1 load(1, XDATA, add(CFA_XSP16, literal(-17)))
          CFI (cfiCond298) V2 load(1, XDATA, add(CFA_XSP16, literal(-16)))
          CFI (cfiCond298) V3 load(1, XDATA, add(CFA_XSP16, literal(-15)))
          CFI (cfiCond298) V4 load(1, XDATA, add(CFA_XSP16, literal(-14)))
          CFI (cfiCond298) V5 load(1, XDATA, add(CFA_XSP16, literal(-13)))
          CFI (cfiCond298) V6 load(1, XDATA, add(CFA_XSP16, literal(-12)))
          CFI (cfiCond298) V7 load(1, XDATA, add(CFA_XSP16, literal(-11)))
          CFI (cfiCond298) V8 load(1, XDATA, add(CFA_XSP16, literal(-10)))
          CFI (cfiCond298) V9 load(1, XDATA, add(CFA_XSP16, literal(-9)))
          CFI (cfiCond298) V10 load(1, XDATA, add(CFA_XSP16, literal(-8)))
          CFI (cfiCond298) V11 load(1, XDATA, add(CFA_XSP16, literal(-7)))
          CFI (cfiCond298) R7 load(1, XDATA, add(CFA_XSP16, literal(-6)))
          CFI (cfiCond298) ?RET_LOW load(1, XDATA, add(CFA_XSP16, literal(-5)))
          CFI (cfiCond298) ?RET_HIGH load(1, XDATA, add(CFA_XSP16, literal(-4)))
          CFI (cfiCond298) ?BRET_EXT load(1, XDATA, add(CFA_XSP16, literal(-3)))
          CFI (cfiCond298) DPL0 load(1, XDATA, add(CFA_XSP16, literal(-2)))
          CFI (cfiCond298) DPH0 load(1, XDATA, add(CFA_XSP16, literal(-1)))
          CFI (cfiCond298) CFA_SP SP+-4
          CFI (cfiCond298) CFA_XSP16 add(XSP16, 23)
          CFI Block cfiCond299 Using cfiCommon0
          CFI (cfiCond299) Function MT_AfDataRetrieve
          CFI (cfiCond299) Conditional ??CrossCallReturnLabel_79, ??CrossCallReturnLabel_12
          CFI (cfiCond299) R6 load(1, XDATA, add(CFA_XSP16, literal(-20)))
          CFI (cfiCond299) VB load(1, XDATA, add(CFA_XSP16, literal(-19)))
          CFI (cfiCond299) V0 load(1, XDATA, add(CFA_XSP16, literal(-18)))
          CFI (cfiCond299) V1 load(1, XDATA, add(CFA_XSP16, literal(-17)))
          CFI (cfiCond299) V2 load(1, XDATA, add(CFA_XSP16, literal(-16)))
          CFI (cfiCond299) V3 load(1, XDATA, add(CFA_XSP16, literal(-15)))
          CFI (cfiCond299) V4 load(1, XDATA, add(CFA_XSP16, literal(-14)))
          CFI (cfiCond299) V5 load(1, XDATA, add(CFA_XSP16, literal(-13)))
          CFI (cfiCond299) V6 load(1, XDATA, add(CFA_XSP16, literal(-12)))
          CFI (cfiCond299) V7 load(1, XDATA, add(CFA_XSP16, literal(-11)))
          CFI (cfiCond299) V8 load(1, XDATA, add(CFA_XSP16, literal(-10)))
          CFI (cfiCond299) V9 load(1, XDATA, add(CFA_XSP16, literal(-9)))
          CFI (cfiCond299) V10 load(1, XDATA, add(CFA_XSP16, literal(-8)))
          CFI (cfiCond299) V11 load(1, XDATA, add(CFA_XSP16, literal(-7)))
          CFI (cfiCond299) R7 load(1, XDATA, add(CFA_XSP16, literal(-6)))
          CFI (cfiCond299) ?RET_LOW load(1, XDATA, add(CFA_XSP16, literal(-5)))
          CFI (cfiCond299) ?RET_HIGH load(1, XDATA, add(CFA_XSP16, literal(-4)))
          CFI (cfiCond299) ?BRET_EXT load(1, XDATA, add(CFA_XSP16, literal(-3)))
          CFI (cfiCond299) DPL0 load(1, XDATA, add(CFA_XSP16, literal(-2)))
          CFI (cfiCond299) DPH0 load(1, XDATA, add(CFA_XSP16, literal(-1)))
          CFI (cfiCond299) CFA_SP SP+-4
          CFI (cfiCond299) CFA_XSP16 add(XSP16, 23)
          CFI Block cfiPicker300 Using cfiCommon1
          CFI (cfiPicker300) NoFunction
          CFI (cfiPicker300) Picker
        MOVX      A,@DPTR
        MOV       DPL,?V0
        MOV       DPH,?V1
        INC       DPTR
        RET
          CFI EndBlock cfiCond293
          CFI EndBlock cfiCond294
          CFI EndBlock cfiCond295
          CFI EndBlock cfiCond296
          CFI EndBlock cfiCond297
          CFI EndBlock cfiCond298
          CFI EndBlock cfiCond299
          CFI EndBlock cfiPicker300

        RSEG BANKED_CODE:HUGECODE:NOROOT(0)
?Subroutine8:
          CFI Block cfiCond301 Using cfiCommon0
          CFI Function MT_AfDataRequestSrcRtg
          CFI Conditional ??CrossCallReturnLabel_8
          CFI R6 load(1, XDATA, add(CFA_XSP16, literal(-20)))
          CFI VB load(1, XDATA, add(CFA_XSP16, literal(-19)))
          CFI V0 load(1, XDATA, add(CFA_XSP16, literal(-18)))
          CFI V1 load(1, XDATA, add(CFA_XSP16, literal(-17)))
          CFI V2 load(1, XDATA, add(CFA_XSP16, literal(-16)))
          CFI V3 load(1, XDATA, add(CFA_XSP16, literal(-15)))
          CFI V4 load(1, XDATA, add(CFA_XSP16, literal(-14)))
          CFI V5 load(1, XDATA, add(CFA_XSP16, literal(-13)))
          CFI V6 load(1, XDATA, add(CFA_XSP16, literal(-12)))
          CFI V7 load(1, XDATA, add(CFA_XSP16, literal(-11)))
          CFI V8 load(1, XDATA, add(CFA_XSP16, literal(-10)))
          CFI V9 load(1, XDATA, add(CFA_XSP16, literal(-9)))
          CFI V10 load(1, XDATA, add(CFA_XSP16, literal(-8)))
          CFI V11 load(1, XDATA, add(CFA_XSP16, literal(-7)))
          CFI R7 load(1, XDATA, add(CFA_XSP16, literal(-6)))
          CFI ?RET_LOW load(1, XDATA, add(CFA_XSP16, literal(-5)))
          CFI ?RET_HIGH load(1, XDATA, add(CFA_XSP16, literal(-4)))
          CFI ?BRET_EXT load(1, XDATA, add(CFA_XSP16, literal(-3)))
          CFI DPL0 load(1, XDATA, add(CFA_XSP16, literal(-2)))
          CFI DPH0 load(1, XDATA, add(CFA_XSP16, literal(-1)))
          CFI CFA_SP SP+-2
          CFI CFA_XSP16 add(XSP16, 34)
          CFI Block cfiCond302 Using cfiCommon0
          CFI (cfiCond302) Function MT_AfDataRetrieve
          CFI (cfiCond302) Conditional ??CrossCallReturnLabel_9
          CFI (cfiCond302) R6 load(1, XDATA, add(CFA_XSP16, literal(-20)))
          CFI (cfiCond302) VB load(1, XDATA, add(CFA_XSP16, literal(-19)))
          CFI (cfiCond302) V0 load(1, XDATA, add(CFA_XSP16, literal(-18)))
          CFI (cfiCond302) V1 load(1, XDATA, add(CFA_XSP16, literal(-17)))
          CFI (cfiCond302) V2 load(1, XDATA, add(CFA_XSP16, literal(-16)))
          CFI (cfiCond302) V3 load(1, XDATA, add(CFA_XSP16, literal(-15)))
          CFI (cfiCond302) V4 load(1, XDATA, add(CFA_XSP16, literal(-14)))
          CFI (cfiCond302) V5 load(1, XDATA, add(CFA_XSP16, literal(-13)))
          CFI (cfiCond302) V6 load(1, XDATA, add(CFA_XSP16, literal(-12)))
          CFI (cfiCond302) V7 load(1, XDATA, add(CFA_XSP16, literal(-11)))
          CFI (cfiCond302) V8 load(1, XDATA, add(CFA_XSP16, literal(-10)))
          CFI (cfiCond302) V9 load(1, XDATA, add(CFA_XSP16, literal(-9)))
          CFI (cfiCond302) V10 load(1, XDATA, add(CFA_XSP16, literal(-8)))
          CFI (cfiCond302) V11 load(1, XDATA, add(CFA_XSP16, literal(-7)))
          CFI (cfiCond302) R7 load(1, XDATA, add(CFA_XSP16, literal(-6)))
          CFI (cfiCond302) ?RET_LOW load(1, XDATA, add(CFA_XSP16, literal(-5)))
          CFI (cfiCond302) ?RET_HIGH load(1, XDATA, add(CFA_XSP16, literal(-4)))
          CFI (cfiCond302) ?BRET_EXT load(1, XDATA, add(CFA_XSP16, literal(-3)))
          CFI (cfiCond302) DPL0 load(1, XDATA, add(CFA_XSP16, literal(-2)))
          CFI (cfiCond302) DPH0 load(1, XDATA, add(CFA_XSP16, literal(-1)))
          CFI (cfiCond302) CFA_SP SP+-2
          CFI (cfiCond302) CFA_XSP16 add(XSP16, 23)
          CFI Block cfiPicker303 Using cfiCommon1
          CFI (cfiPicker303) NoFunction
          CFI (cfiPicker303) Picker
        LCALL     ?Subroutine38 & 0xFFFF
??CrossCallReturnLabel_58:
        MOV       ?V2,A
        CLR       A
        ADDC      A,R1
        MOV       ?V3,A
        RET
          CFI EndBlock cfiCond301
          CFI EndBlock cfiCond302
          CFI EndBlock cfiPicker303

        RSEG BANKED_CODE:HUGECODE:NOROOT(0)
?Subroutine4:
          CFI Block cfiCond304 Using cfiCommon0
          CFI Function MT_AfDataRetrieve
          CFI Conditional ??CrossCallReturnLabel_2
          CFI R6 load(1, XDATA, add(CFA_XSP16, literal(-20)))
          CFI VB load(1, XDATA, add(CFA_XSP16, literal(-19)))
          CFI V0 load(1, XDATA, add(CFA_XSP16, literal(-18)))
          CFI V1 load(1, XDATA, add(CFA_XSP16, literal(-17)))
          CFI V2 load(1, XDATA, add(CFA_XSP16, literal(-16)))
          CFI V3 load(1, XDATA, add(CFA_XSP16, literal(-15)))
          CFI V4 load(1, XDATA, add(CFA_XSP16, literal(-14)))
          CFI V5 load(1, XDATA, add(CFA_XSP16, literal(-13)))
          CFI V6 load(1, XDATA, add(CFA_XSP16, literal(-12)))
          CFI V7 load(1, XDATA, add(CFA_XSP16, literal(-11)))
          CFI V8 load(1, XDATA, add(CFA_XSP16, literal(-10)))
          CFI V9 load(1, XDATA, add(CFA_XSP16, literal(-9)))
          CFI V10 load(1, XDATA, add(CFA_XSP16, literal(-8)))
          CFI V11 load(1, XDATA, add(CFA_XSP16, literal(-7)))
          CFI R7 load(1, XDATA, add(CFA_XSP16, literal(-6)))
          CFI ?RET_LOW load(1, XDATA, add(CFA_XSP16, literal(-5)))
          CFI ?RET_HIGH load(1, XDATA, add(CFA_XSP16, literal(-4)))
          CFI ?BRET_EXT load(1, XDATA, add(CFA_XSP16, literal(-3)))
          CFI DPL0 load(1, XDATA, add(CFA_XSP16, literal(-2)))
          CFI DPH0 load(1, XDATA, add(CFA_XSP16, literal(-1)))
          CFI CFA_SP SP+-2
          CFI CFA_XSP16 add(XSP16, 23)
          CFI Block cfiCond305 Using cfiCommon0
          CFI (cfiCond305) Function MT_AfDataRetrieve
          CFI (cfiCond305) Conditional ??CrossCallReturnLabel_3
          CFI (cfiCond305) R6 load(1, XDATA, add(CFA_XSP16, literal(-20)))
          CFI (cfiCond305) VB load(1, XDATA, add(CFA_XSP16, literal(-19)))
          CFI (cfiCond305) V0 load(1, XDATA, add(CFA_XSP16, literal(-18)))
          CFI (cfiCond305) V1 load(1, XDATA, add(CFA_XSP16, literal(-17)))
          CFI (cfiCond305) V2 load(1, XDATA, add(CFA_XSP16, literal(-16)))
          CFI (cfiCond305) V3 load(1, XDATA, add(CFA_XSP16, literal(-15)))
          CFI (cfiCond305) V4 load(1, XDATA, add(CFA_XSP16, literal(-14)))
          CFI (cfiCond305) V5 load(1, XDATA, add(CFA_XSP16, literal(-13)))
          CFI (cfiCond305) V6 load(1, XDATA, add(CFA_XSP16, literal(-12)))
          CFI (cfiCond305) V7 load(1, XDATA, add(CFA_XSP16, literal(-11)))
          CFI (cfiCond305) V8 load(1, XDATA, add(CFA_XSP16, literal(-10)))
          CFI (cfiCond305) V9 load(1, XDATA, add(CFA_XSP16, literal(-9)))
          CFI (cfiCond305) V10 load(1, XDATA, add(CFA_XSP16, literal(-8)))
          CFI (cfiCond305) V11 load(1, XDATA, add(CFA_XSP16, literal(-7)))
          CFI (cfiCond305) R7 load(1, XDATA, add(CFA_XSP16, literal(-6)))
          CFI (cfiCond305) ?RET_LOW load(1, XDATA, add(CFA_XSP16, literal(-5)))
          CFI (cfiCond305) ?RET_HIGH load(1, XDATA, add(CFA_XSP16, literal(-4)))
          CFI (cfiCond305) ?BRET_EXT load(1, XDATA, add(CFA_XSP16, literal(-3)))
          CFI (cfiCond305) DPL0 load(1, XDATA, add(CFA_XSP16, literal(-2)))
          CFI (cfiCond305) DPH0 load(1, XDATA, add(CFA_XSP16, literal(-1)))
          CFI (cfiCond305) CFA_SP SP+-2
          CFI (cfiCond305) CFA_XSP16 add(XSP16, 23)
          CFI Block cfiCond306 Using cfiCommon0
          CFI (cfiCond306) Function MT_AfDataRetrieve
          CFI (cfiCond306) Conditional ??CrossCallReturnLabel_4
          CFI (cfiCond306) R6 load(1, XDATA, add(CFA_XSP16, literal(-20)))
          CFI (cfiCond306) VB load(1, XDATA, add(CFA_XSP16, literal(-19)))
          CFI (cfiCond306) V0 load(1, XDATA, add(CFA_XSP16, literal(-18)))
          CFI (cfiCond306) V1 load(1, XDATA, add(CFA_XSP16, literal(-17)))
          CFI (cfiCond306) V2 load(1, XDATA, add(CFA_XSP16, literal(-16)))
          CFI (cfiCond306) V3 load(1, XDATA, add(CFA_XSP16, literal(-15)))
          CFI (cfiCond306) V4 load(1, XDATA, add(CFA_XSP16, literal(-14)))
          CFI (cfiCond306) V5 load(1, XDATA, add(CFA_XSP16, literal(-13)))
          CFI (cfiCond306) V6 load(1, XDATA, add(CFA_XSP16, literal(-12)))
          CFI (cfiCond306) V7 load(1, XDATA, add(CFA_XSP16, literal(-11)))
          CFI (cfiCond306) V8 load(1, XDATA, add(CFA_XSP16, literal(-10)))
          CFI (cfiCond306) V9 load(1, XDATA, add(CFA_XSP16, literal(-9)))
          CFI (cfiCond306) V10 load(1, XDATA, add(CFA_XSP16, literal(-8)))
          CFI (cfiCond306) V11 load(1, XDATA, add(CFA_XSP16, literal(-7)))
          CFI (cfiCond306) R7 load(1, XDATA, add(CFA_XSP16, literal(-6)))
          CFI (cfiCond306) ?RET_LOW load(1, XDATA, add(CFA_XSP16, literal(-5)))
          CFI (cfiCond306) ?RET_HIGH load(1, XDATA, add(CFA_XSP16, literal(-4)))
          CFI (cfiCond306) ?BRET_EXT load(1, XDATA, add(CFA_XSP16, literal(-3)))
          CFI (cfiCond306) DPL0 load(1, XDATA, add(CFA_XSP16, literal(-2)))
          CFI (cfiCond306) DPH0 load(1, XDATA, add(CFA_XSP16, literal(-1)))
          CFI (cfiCond306) CFA_SP SP+-2
          CFI (cfiCond306) CFA_XSP16 add(XSP16, 23)
          CFI Block cfiPicker307 Using cfiCommon1
          CFI (cfiPicker307) NoFunction
          CFI (cfiPicker307) Picker
        LCALL     ?Subroutine42 & 0xFFFF
??CrossCallReturnLabel_96:
        LCALL     ?Subroutine50 & 0xFFFF
??CrossCallReturnLabel_140:
        MOV       R1,A
        RET
          CFI EndBlock cfiCond304
          CFI EndBlock cfiCond305
          CFI EndBlock cfiCond306
          CFI EndBlock cfiPicker307

        RSEG BANKED_CODE:HUGECODE:NOROOT(0)
?Subroutine3:
          CFI Block cfiCond308 Using cfiCommon0
          CFI Function MT_AfExec
          CFI Conditional ??CrossCallReturnLabel_136
          CFI R6 load(1, XDATA, add(CFA_XSP16, literal(-9)))
          CFI VB load(1, XDATA, add(CFA_XSP16, literal(-8)))
          CFI V0 load(1, XDATA, add(CFA_XSP16, literal(-7)))
          CFI R7 load(1, XDATA, add(CFA_XSP16, literal(-6)))
          CFI ?RET_LOW load(1, XDATA, add(CFA_XSP16, literal(-5)))
          CFI ?RET_HIGH load(1, XDATA, add(CFA_XSP16, literal(-4)))
          CFI ?BRET_EXT load(1, XDATA, add(CFA_XSP16, literal(-3)))
          CFI DPL0 load(1, XDATA, add(CFA_XSP16, literal(-2)))
          CFI DPH0 load(1, XDATA, add(CFA_XSP16, literal(-1)))
          CFI CFA_SP SP+-2
          CFI CFA_XSP16 add(XSP16, 9)
          CFI Block cfiCond309 Using cfiCommon0
          CFI (cfiCond309) Function MT_AfExec
          CFI (cfiCond309) Conditional ??CrossCallReturnLabel_137
          CFI (cfiCond309) R6 load(1, XDATA, add(CFA_XSP16, literal(-9)))
          CFI (cfiCond309) VB load(1, XDATA, add(CFA_XSP16, literal(-8)))
          CFI (cfiCond309) V0 load(1, XDATA, add(CFA_XSP16, literal(-7)))
          CFI (cfiCond309) R7 load(1, XDATA, add(CFA_XSP16, literal(-6)))
          CFI (cfiCond309) ?RET_LOW load(1, XDATA, add(CFA_XSP16, literal(-5)))
          CFI (cfiCond309) ?RET_HIGH load(1, XDATA, add(CFA_XSP16, literal(-4)))
          CFI (cfiCond309) ?BRET_EXT load(1, XDATA, add(CFA_XSP16, literal(-3)))
          CFI (cfiCond309) DPL0 load(1, XDATA, add(CFA_XSP16, literal(-2)))
          CFI (cfiCond309) DPH0 load(1, XDATA, add(CFA_XSP16, literal(-1)))
          CFI (cfiCond309) CFA_SP SP+-2
          CFI (cfiCond309) CFA_XSP16 add(XSP16, 9)
          CFI Block cfiCond310 Using cfiCommon0
          CFI (cfiCond310) Function MT_AfDataRequest
          CFI (cfiCond310) Conditional ??CrossCallReturnLabel_138
          CFI (cfiCond310) R6 load(1, XDATA, add(CFA_XSP16, literal(-20)))
          CFI (cfiCond310) VB load(1, XDATA, add(CFA_XSP16, literal(-19)))
          CFI (cfiCond310) V0 load(1, XDATA, add(CFA_XSP16, literal(-18)))
          CFI (cfiCond310) V1 load(1, XDATA, add(CFA_XSP16, literal(-17)))
          CFI (cfiCond310) V2 load(1, XDATA, add(CFA_XSP16, literal(-16)))
          CFI (cfiCond310) V3 load(1, XDATA, add(CFA_XSP16, literal(-15)))
          CFI (cfiCond310) V4 load(1, XDATA, add(CFA_XSP16, literal(-14)))
          CFI (cfiCond310) V5 load(1, XDATA, add(CFA_XSP16, literal(-13)))
          CFI (cfiCond310) V6 load(1, XDATA, add(CFA_XSP16, literal(-12)))
          CFI (cfiCond310) V7 load(1, XDATA, add(CFA_XSP16, literal(-11)))
          CFI (cfiCond310) V8 load(1, XDATA, add(CFA_XSP16, literal(-10)))
          CFI (cfiCond310) V9 load(1, XDATA, add(CFA_XSP16, literal(-9)))
          CFI (cfiCond310) V10 load(1, XDATA, add(CFA_XSP16, literal(-8)))
          CFI (cfiCond310) V11 load(1, XDATA, add(CFA_XSP16, literal(-7)))
          CFI (cfiCond310) R7 load(1, XDATA, add(CFA_XSP16, literal(-6)))
          CFI (cfiCond310) ?RET_LOW load(1, XDATA, add(CFA_XSP16, literal(-5)))
          CFI (cfiCond310) ?RET_HIGH load(1, XDATA, add(CFA_XSP16, literal(-4)))
          CFI (cfiCond310) ?BRET_EXT load(1, XDATA, add(CFA_XSP16, literal(-3)))
          CFI (cfiCond310) DPL0 load(1, XDATA, add(CFA_XSP16, literal(-2)))
          CFI (cfiCond310) DPH0 load(1, XDATA, add(CFA_XSP16, literal(-1)))
          CFI (cfiCond310) CFA_SP SP+-2
          CFI (cfiCond310) CFA_XSP16 add(XSP16, 35)
          CFI Block cfiCond311 Using cfiCommon0
          CFI (cfiCond311) Function MT_AfDataStore
          CFI (cfiCond311) Conditional ??CrossCallReturnLabel_139
          CFI (cfiCond311) R6 load(1, XDATA, add(CFA_XSP16, literal(-11)))
          CFI (cfiCond311) VB load(1, XDATA, add(CFA_XSP16, literal(-10)))
          CFI (cfiCond311) V0 load(1, XDATA, add(CFA_XSP16, literal(-9)))
          CFI (cfiCond311) V1 load(1, XDATA, add(CFA_XSP16, literal(-8)))
          CFI (cfiCond311) V2 load(1, XDATA, add(CFA_XSP16, literal(-7)))
          CFI (cfiCond311) R7 load(1, XDATA, add(CFA_XSP16, literal(-6)))
          CFI (cfiCond311) ?RET_LOW load(1, XDATA, add(CFA_XSP16, literal(-5)))
          CFI (cfiCond311) ?RET_HIGH load(1, XDATA, add(CFA_XSP16, literal(-4)))
          CFI (cfiCond311) ?BRET_EXT load(1, XDATA, add(CFA_XSP16, literal(-3)))
          CFI (cfiCond311) DPL0 load(1, XDATA, add(CFA_XSP16, literal(-2)))
          CFI (cfiCond311) DPH0 load(1, XDATA, add(CFA_XSP16, literal(-1)))
          CFI (cfiCond311) CFA_SP SP+-2
          CFI (cfiCond311) CFA_XSP16 add(XSP16, 12)
          CFI Block cfiPicker312 Using cfiCommon1
          CFI (cfiPicker312) NoFunction
          CFI (cfiPicker312) Picker
        MOV       DPTR,#pMtAfDataReq
          CFI EndBlock cfiCond308
          CFI EndBlock cfiCond309
          CFI EndBlock cfiCond310
          CFI EndBlock cfiCond311
          CFI EndBlock cfiPicker312
        REQUIRE ??Subroutine62_0
        ; // Fall through to label ??Subroutine62_0

        RSEG BANKED_CODE:HUGECODE:NOROOT(0)
??Subroutine62_0:
          CFI Block cfiCond313 Using cfiCommon0
          CFI Function MT_AfExec
          CFI Conditional ??CrossCallReturnLabel_133
          CFI R6 load(1, XDATA, add(CFA_XSP16, literal(-9)))
          CFI VB load(1, XDATA, add(CFA_XSP16, literal(-8)))
          CFI V0 load(1, XDATA, add(CFA_XSP16, literal(-7)))
          CFI R7 load(1, XDATA, add(CFA_XSP16, literal(-6)))
          CFI ?RET_LOW load(1, XDATA, add(CFA_XSP16, literal(-5)))
          CFI ?RET_HIGH load(1, XDATA, add(CFA_XSP16, literal(-4)))
          CFI ?BRET_EXT load(1, XDATA, add(CFA_XSP16, literal(-3)))
          CFI DPL0 load(1, XDATA, add(CFA_XSP16, literal(-2)))
          CFI DPH0 load(1, XDATA, add(CFA_XSP16, literal(-1)))
          CFI CFA_SP SP+-2
          CFI CFA_XSP16 add(XSP16, 9)
          CFI Block cfiCond314 Using cfiCommon0
          CFI (cfiCond314) Function MT_AfIncomingMsg
          CFI (cfiCond314) Conditional ??CrossCallReturnLabel_134
          CFI (cfiCond314) R6 load(1, XDATA, add(CFA_XSP16, literal(-20)))
          CFI (cfiCond314) VB load(1, XDATA, add(CFA_XSP16, literal(-19)))
          CFI (cfiCond314) V0 load(1, XDATA, add(CFA_XSP16, literal(-18)))
          CFI (cfiCond314) V1 load(1, XDATA, add(CFA_XSP16, literal(-17)))
          CFI (cfiCond314) V2 load(1, XDATA, add(CFA_XSP16, literal(-16)))
          CFI (cfiCond314) V3 load(1, XDATA, add(CFA_XSP16, literal(-15)))
          CFI (cfiCond314) V4 load(1, XDATA, add(CFA_XSP16, literal(-14)))
          CFI (cfiCond314) V5 load(1, XDATA, add(CFA_XSP16, literal(-13)))
          CFI (cfiCond314) V6 load(1, XDATA, add(CFA_XSP16, literal(-12)))
          CFI (cfiCond314) V7 load(1, XDATA, add(CFA_XSP16, literal(-11)))
          CFI (cfiCond314) V8 load(1, XDATA, add(CFA_XSP16, literal(-10)))
          CFI (cfiCond314) V9 load(1, XDATA, add(CFA_XSP16, literal(-9)))
          CFI (cfiCond314) V10 load(1, XDATA, add(CFA_XSP16, literal(-8)))
          CFI (cfiCond314) V11 load(1, XDATA, add(CFA_XSP16, literal(-7)))
          CFI (cfiCond314) R7 load(1, XDATA, add(CFA_XSP16, literal(-6)))
          CFI (cfiCond314) ?RET_LOW load(1, XDATA, add(CFA_XSP16, literal(-5)))
          CFI (cfiCond314) ?RET_HIGH load(1, XDATA, add(CFA_XSP16, literal(-4)))
          CFI (cfiCond314) ?BRET_EXT load(1, XDATA, add(CFA_XSP16, literal(-3)))
          CFI (cfiCond314) DPL0 load(1, XDATA, add(CFA_XSP16, literal(-2)))
          CFI (cfiCond314) DPH0 load(1, XDATA, add(CFA_XSP16, literal(-1)))
          CFI (cfiCond314) CFA_SP SP+-2
          CFI (cfiCond314) CFA_XSP16 add(XSP16, 23)
          CFI Block cfiCond315 Using cfiCommon0
          CFI (cfiCond315) Function MT_AfDataRetrieve
          CFI (cfiCond315) Conditional ??CrossCallReturnLabel_135
          CFI (cfiCond315) R6 load(1, XDATA, add(CFA_XSP16, literal(-20)))
          CFI (cfiCond315) VB load(1, XDATA, add(CFA_XSP16, literal(-19)))
          CFI (cfiCond315) V0 load(1, XDATA, add(CFA_XSP16, literal(-18)))
          CFI (cfiCond315) V1 load(1, XDATA, add(CFA_XSP16, literal(-17)))
          CFI (cfiCond315) V2 load(1, XDATA, add(CFA_XSP16, literal(-16)))
          CFI (cfiCond315) V3 load(1, XDATA, add(CFA_XSP16, literal(-15)))
          CFI (cfiCond315) V4 load(1, XDATA, add(CFA_XSP16, literal(-14)))
          CFI (cfiCond315) V5 load(1, XDATA, add(CFA_XSP16, literal(-13)))
          CFI (cfiCond315) V6 load(1, XDATA, add(CFA_XSP16, literal(-12)))
          CFI (cfiCond315) V7 load(1, XDATA, add(CFA_XSP16, literal(-11)))
          CFI (cfiCond315) V8 load(1, XDATA, add(CFA_XSP16, literal(-10)))
          CFI (cfiCond315) V9 load(1, XDATA, add(CFA_XSP16, literal(-9)))
          CFI (cfiCond315) V10 load(1, XDATA, add(CFA_XSP16, literal(-8)))
          CFI (cfiCond315) V11 load(1, XDATA, add(CFA_XSP16, literal(-7)))
          CFI (cfiCond315) R7 load(1, XDATA, add(CFA_XSP16, literal(-6)))
          CFI (cfiCond315) ?RET_LOW load(1, XDATA, add(CFA_XSP16, literal(-5)))
          CFI (cfiCond315) ?RET_HIGH load(1, XDATA, add(CFA_XSP16, literal(-4)))
          CFI (cfiCond315) ?BRET_EXT load(1, XDATA, add(CFA_XSP16, literal(-3)))
          CFI (cfiCond315) DPL0 load(1, XDATA, add(CFA_XSP16, literal(-2)))
          CFI (cfiCond315) DPH0 load(1, XDATA, add(CFA_XSP16, literal(-1)))
          CFI (cfiCond315) CFA_SP SP+-2
          CFI (cfiCond315) CFA_XSP16 add(XSP16, 23)
          CFI Block cfiCond316 Using cfiCommon0
          CFI (cfiCond316) Function MT_AfExec
          CFI (cfiCond316) Conditional ??CrossCallReturnLabel_136
          CFI (cfiCond316) R6 load(1, XDATA, add(CFA_XSP16, literal(-9)))
          CFI (cfiCond316) VB load(1, XDATA, add(CFA_XSP16, literal(-8)))
          CFI (cfiCond316) V0 load(1, XDATA, add(CFA_XSP16, literal(-7)))
          CFI (cfiCond316) R7 load(1, XDATA, add(CFA_XSP16, literal(-6)))
          CFI (cfiCond316) ?RET_LOW load(1, XDATA, add(CFA_XSP16, literal(-5)))
          CFI (cfiCond316) ?RET_HIGH load(1, XDATA, add(CFA_XSP16, literal(-4)))
          CFI (cfiCond316) ?BRET_EXT load(1, XDATA, add(CFA_XSP16, literal(-3)))
          CFI (cfiCond316) DPL0 load(1, XDATA, add(CFA_XSP16, literal(-2)))
          CFI (cfiCond316) DPH0 load(1, XDATA, add(CFA_XSP16, literal(-1)))
          CFI (cfiCond316) CFA_SP SP+-2
          CFI (cfiCond316) CFA_XSP16 add(XSP16, 9)
          CFI Block cfiCond317 Using cfiCommon0
          CFI (cfiCond317) Function MT_AfExec
          CFI (cfiCond317) Conditional ??CrossCallReturnLabel_137
          CFI (cfiCond317) R6 load(1, XDATA, add(CFA_XSP16, literal(-9)))
          CFI (cfiCond317) VB load(1, XDATA, add(CFA_XSP16, literal(-8)))
          CFI (cfiCond317) V0 load(1, XDATA, add(CFA_XSP16, literal(-7)))
          CFI (cfiCond317) R7 load(1, XDATA, add(CFA_XSP16, literal(-6)))
          CFI (cfiCond317) ?RET_LOW load(1, XDATA, add(CFA_XSP16, literal(-5)))
          CFI (cfiCond317) ?RET_HIGH load(1, XDATA, add(CFA_XSP16, literal(-4)))
          CFI (cfiCond317) ?BRET_EXT load(1, XDATA, add(CFA_XSP16, literal(-3)))
          CFI (cfiCond317) DPL0 load(1, XDATA, add(CFA_XSP16, literal(-2)))
          CFI (cfiCond317) DPH0 load(1, XDATA, add(CFA_XSP16, literal(-1)))
          CFI (cfiCond317) CFA_SP SP+-2
          CFI (cfiCond317) CFA_XSP16 add(XSP16, 9)
          CFI Block cfiCond318 Using cfiCommon0
          CFI (cfiCond318) Function MT_AfDataRequest
          CFI (cfiCond318) Conditional ??CrossCallReturnLabel_138
          CFI (cfiCond318) R6 load(1, XDATA, add(CFA_XSP16, literal(-20)))
          CFI (cfiCond318) VB load(1, XDATA, add(CFA_XSP16, literal(-19)))
          CFI (cfiCond318) V0 load(1, XDATA, add(CFA_XSP16, literal(-18)))
          CFI (cfiCond318) V1 load(1, XDATA, add(CFA_XSP16, literal(-17)))
          CFI (cfiCond318) V2 load(1, XDATA, add(CFA_XSP16, literal(-16)))
          CFI (cfiCond318) V3 load(1, XDATA, add(CFA_XSP16, literal(-15)))
          CFI (cfiCond318) V4 load(1, XDATA, add(CFA_XSP16, literal(-14)))
          CFI (cfiCond318) V5 load(1, XDATA, add(CFA_XSP16, literal(-13)))
          CFI (cfiCond318) V6 load(1, XDATA, add(CFA_XSP16, literal(-12)))
          CFI (cfiCond318) V7 load(1, XDATA, add(CFA_XSP16, literal(-11)))
          CFI (cfiCond318) V8 load(1, XDATA, add(CFA_XSP16, literal(-10)))
          CFI (cfiCond318) V9 load(1, XDATA, add(CFA_XSP16, literal(-9)))
          CFI (cfiCond318) V10 load(1, XDATA, add(CFA_XSP16, literal(-8)))
          CFI (cfiCond318) V11 load(1, XDATA, add(CFA_XSP16, literal(-7)))
          CFI (cfiCond318) R7 load(1, XDATA, add(CFA_XSP16, literal(-6)))
          CFI (cfiCond318) ?RET_LOW load(1, XDATA, add(CFA_XSP16, literal(-5)))
          CFI (cfiCond318) ?RET_HIGH load(1, XDATA, add(CFA_XSP16, literal(-4)))
          CFI (cfiCond318) ?BRET_EXT load(1, XDATA, add(CFA_XSP16, literal(-3)))
          CFI (cfiCond318) DPL0 load(1, XDATA, add(CFA_XSP16, literal(-2)))
          CFI (cfiCond318) DPH0 load(1, XDATA, add(CFA_XSP16, literal(-1)))
          CFI (cfiCond318) CFA_SP SP+-2
          CFI (cfiCond318) CFA_XSP16 add(XSP16, 35)
          CFI Block cfiCond319 Using cfiCommon0
          CFI (cfiCond319) Function MT_AfDataStore
          CFI (cfiCond319) Conditional ??CrossCallReturnLabel_139
          CFI (cfiCond319) R6 load(1, XDATA, add(CFA_XSP16, literal(-11)))
          CFI (cfiCond319) VB load(1, XDATA, add(CFA_XSP16, literal(-10)))
          CFI (cfiCond319) V0 load(1, XDATA, add(CFA_XSP16, literal(-9)))
          CFI (cfiCond319) V1 load(1, XDATA, add(CFA_XSP16, literal(-8)))
          CFI (cfiCond319) V2 load(1, XDATA, add(CFA_XSP16, literal(-7)))
          CFI (cfiCond319) R7 load(1, XDATA, add(CFA_XSP16, literal(-6)))
          CFI (cfiCond319) ?RET_LOW load(1, XDATA, add(CFA_XSP16, literal(-5)))
          CFI (cfiCond319) ?RET_HIGH load(1, XDATA, add(CFA_XSP16, literal(-4)))
          CFI (cfiCond319) ?BRET_EXT load(1, XDATA, add(CFA_XSP16, literal(-3)))
          CFI (cfiCond319) DPL0 load(1, XDATA, add(CFA_XSP16, literal(-2)))
          CFI (cfiCond319) DPH0 load(1, XDATA, add(CFA_XSP16, literal(-1)))
          CFI (cfiCond319) CFA_SP SP+-2
          CFI (cfiCond319) CFA_XSP16 add(XSP16, 12)
          CFI Block cfiPicker320 Using cfiCommon1
          CFI (cfiPicker320) NoFunction
          CFI (cfiPicker320) Picker
        LCALL     ?Subroutine50 & 0xFFFF
??CrossCallReturnLabel_145:
        MOV       R1,A
        MOV       A,R0
        ORL       A,R1
        RET
          CFI EndBlock cfiCond313
          CFI EndBlock cfiCond314
          CFI EndBlock cfiCond315
          CFI EndBlock cfiCond316
          CFI EndBlock cfiCond317
          CFI EndBlock cfiCond318
          CFI EndBlock cfiCond319
          CFI EndBlock cfiPicker320
//  842 
//  843 /**************************************************************************************************
//  844  * @fn          MT_AfDataStore
//  845  *
//  846  * @brief   Process AF Data Store command to incrementally store the data buffer for very large
//  847  *          outgoing AF message.
//  848  *
//  849  * input parameters
//  850  *
//  851  * @param pBuf - pointer to the received buffer
//  852  *
//  853  * output parameters
//  854  *
//  855  * @param rtrn - AF-Status of the operation.
//  856  *
//  857  * @return      None.
//  858  **************************************************************************************************
//  859  */

        RSEG BANKED_CODE:HUGECODE:NOROOT(0)
//  860 void MT_AfDataStore(uint8 *pBuf)
MT_AfDataStore:
          CFI Block cfiBlock321 Using cfiCommon0
          CFI Function MT_AfDataStore
        CODE
//  861 {
        FUNCALL MT_AfDataStore, AF_DataRequest
        LOCFRAME ISTACK, 0, STACK
        LOCFRAME PSTACK, 0, STACK
        LOCFRAME XSTACK, 21, STACK
        LOCFRAME IOVERLAY, 0, STATIC
        LOCFRAME DOVERLAY, 0, STATIC
        ARGFRAME ISTACK, 0, STACK
        ARGFRAME PSTACK, 0, STACK
        ARGFRAME XSTACK, 21, STACK
        ARGFRAME IOVERLAY, 0, STATIC
        ARGFRAME DOVERLAY, 0, STATIC
        FUNCALL MT_AfDataStore, osal_mem_free
        LOCFRAME ISTACK, 0, STACK
        LOCFRAME PSTACK, 0, STACK
        LOCFRAME XSTACK, 12, STACK
        LOCFRAME IOVERLAY, 0, STATIC
        LOCFRAME DOVERLAY, 0, STATIC
        ARGFRAME ISTACK, 0, STACK
        ARGFRAME PSTACK, 0, STACK
        ARGFRAME XSTACK, 12, STACK
        ARGFRAME IOVERLAY, 0, STATIC
        ARGFRAME DOVERLAY, 0, STATIC
        FUNCALL MT_AfDataStore, osal_memcpy
        LOCFRAME ISTACK, 0, STACK
        LOCFRAME PSTACK, 0, STACK
        LOCFRAME XSTACK, 15, STACK
        LOCFRAME IOVERLAY, 0, STATIC
        LOCFRAME DOVERLAY, 0, STATIC
        ARGFRAME ISTACK, 0, STACK
        ARGFRAME PSTACK, 0, STACK
        ARGFRAME XSTACK, 15, STACK
        ARGFRAME IOVERLAY, 0, STATIC
        ARGFRAME DOVERLAY, 0, STATIC
        FUNCALL MT_AfDataStore, MT_BuildAndSendZToolResponse
        LOCFRAME ISTACK, 0, STACK
        LOCFRAME PSTACK, 0, STACK
        LOCFRAME XSTACK, 12, STACK
        LOCFRAME IOVERLAY, 0, STATIC
        LOCFRAME DOVERLAY, 0, STATIC
        ARGFRAME ISTACK, 0, STACK
        ARGFRAME PSTACK, 0, STACK
        ARGFRAME XSTACK, 12, STACK
        ARGFRAME IOVERLAY, 0, STATIC
        ARGFRAME DOVERLAY, 0, STATIC
        REQUIRE ?V0
        REQUIRE ?V1
        REQUIRE ?V2
        MOV       A,#-0xb
        LCALL     ?BANKED_ENTER_XDATA
          CFI DPH0 load(1, XDATA, add(CFA_XSP16, literal(-1)))
          CFI DPL0 load(1, XDATA, add(CFA_XSP16, literal(-2)))
          CFI ?BRET_EXT load(1, XDATA, add(CFA_XSP16, literal(-3)))
          CFI ?RET_HIGH load(1, XDATA, add(CFA_XSP16, literal(-4)))
          CFI ?RET_LOW load(1, XDATA, add(CFA_XSP16, literal(-5)))
          CFI R7 load(1, XDATA, add(CFA_XSP16, literal(-6)))
          CFI V2 load(1, XDATA, add(CFA_XSP16, literal(-7)))
          CFI V1 load(1, XDATA, add(CFA_XSP16, literal(-8)))
          CFI V0 load(1, XDATA, add(CFA_XSP16, literal(-9)))
          CFI VB load(1, XDATA, add(CFA_XSP16, literal(-10)))
          CFI R6 load(1, XDATA, add(CFA_XSP16, literal(-11)))
          CFI CFA_SP SP+0
          CFI CFA_XSP16 add(XSP16, 11)
        ; Saved register size: 11
        ; Auto size: 1
        MOV       A,#-0x1
        LCALL     ?ALLOC_XSTACK8
          CFI CFA_XSP16 add(XSP16, 12)
//  862   uint16 idx;
//  863   uint8 len, rtrn = afStatus_FAILED;
        MOV       DPL,?XSP + 0
        MOV       DPH,?XSP + 1
        MOV       A,#0x1
        MOVX      @DPTR,A
//  864 
//  865   pBuf += MT_RPC_FRAME_HDR_SZ;
        MOV       A,R2
        ADD       A,#0x3
        MOV       R2,A
        JNC       ??MT_AfDataStore_0
        INC       R3
//  866   idx = BUILD_UINT16(pBuf[0], pBuf[1]);
??MT_AfDataStore_0:
        MOV       DPL,A
        MOV       DPH,R3
        MOVX      A,@DPTR
        MOV       R4,A
        INC       DPTR
        MOVX      A,@DPTR
        MOV       R0,A
        CLR       A
        XCH       A,R0
        MOV       R1,A
        MOV       A,R4
        ADD       A,R0
        MOV       R6,A
        CLR       A
        ADDC      A,R1
        MOV       R7,A
//  867   len = pBuf[2];
        MOV       DPL,R2
        MOV       DPH,R3
        INC       DPTR
        INC       DPTR
        MOVX      A,@DPTR
        MOV       R4,A
//  868   pBuf += 3;
        MOV       A,R2
        ADD       A,#0x3
        MOV       R2,A
        JNC       ??MT_AfDataStore_1
        INC       R3
//  869 
//  870   if (pMtAfDataReq == NULL)
??MT_AfDataStore_1:
        LCALL     ?Subroutine3 & 0xFFFF
??CrossCallReturnLabel_139:
        JNZ       ??MT_AfDataStore_2
//  871   {
//  872     rtrn = afStatus_MEM_FAIL;
        MOV       DPL,?XSP + 0
        MOV       DPH,?XSP + 1
        MOV       A,#0x10
        LJMP      ??MT_AfDataStore_3 & 0xFFFF
//  873   }
//  874   else if (len == 0)  // Indication to send the message.
??MT_AfDataStore_2:
        MOV       A,R4
        JNZ       ??MT_AfDataStore_4
//  875   {
//  876     rtrn = AF_DataRequest(&(pMtAfDataReq->dstAddr), pMtAfDataReq->epDesc, pMtAfDataReq->cId,
//  877                             pMtAfDataReq->dataLen,  pMtAfDataReq->data,
//  878                           &(pMtAfDataReq->transId), pMtAfDataReq->txOpts, pMtAfDataReq->radius);
        ; Setup parameters for call to function AF_DataRequest
        MOV       A,R0
        ADD       A,#0x16
        MOV       DPL,A
        CLR       A
        ADDC      A,R1
        MOV       DPH,A
        MOVX      A,@DPTR
        MOV       ?V0,A
        MOV       R0,#?V0
        LCALL     ?PUSH_XSTACK_I_ONE
          CFI CFA_XSP16 add(XSP16, 13)
        MOV       DPTR,#pMtAfDataReq
        MOVX      A,@DPTR
        ADD       A,#0x14
        MOV       ?V0,A
        INC       DPTR
        MOVX      A,@DPTR
        ADDC      A,#0x0
        MOV       ?V1,A
        MOV       R0,#?V0
        LCALL     ?PUSH_XSTACK_I_TWO
          CFI CFA_XSP16 add(XSP16, 15)
        LCALL     ?Subroutine7 & 0xFFFF
??CrossCallReturnLabel_94:
        LCALL     ?PUSH_XSTACK8_X_TWO
          CFI CFA_XSP16 add(XSP16, 17)
        MOV       A,R0
        ADD       A,#0x12
        MOV       DPL,A
        CLR       A
        ADDC      A,R1
        MOV       DPH,A
        LCALL     ?PUSH_XSTACK8_X_TWO
          CFI CFA_XSP16 add(XSP16, 19)
        MOV       DPTR,#pMtAfDataReq
        MOVX      A,@DPTR
        ADD       A,#0x10
        MOV       DPL,A
        CLR       A
        ADDC      A,R1
        MOV       DPH,A
        LCALL     ?PUSH_XSTACK8_X_TWO
          CFI CFA_XSP16 add(XSP16, 21)
        MOV       DPTR,#pMtAfDataReq
        MOVX      A,@DPTR
        ADD       A,#0x15
        MOV       DPL,A
        CLR       A
        ADDC      A,R1
        MOV       DPH,A
        MOVX      A,@DPTR
        MOV       R1,A
        MOV       DPTR,#pMtAfDataReq + 1
        MOVX      A,@DPTR
        XCH       A,R0
        LCALL     ?Subroutine37 & 0xFFFF
??CrossCallReturnLabel_57:
        MOVX      A,@DPTR
        MOV       R4,A
        INC       DPTR
        MOVX      A,@DPTR
        MOV       R5,A
        LCALL     ?Subroutine18 & 0xFFFF
??CrossCallReturnLabel_22:
        LCALL     `??AF_DataRequest::?relay`; Banked call to: AF_DataRequest
        MOV       A,#0x9
        LCALL     ?DEALLOC_XSTACK8
          CFI CFA_XSP16 add(XSP16, 12)
        MOV       A,R1
        MOV       DPL,?XSP + 0
        MOV       DPH,?XSP + 1
        MOVX      @DPTR,A
//  879     (void)osal_mem_free(pMtAfDataReq);
        ; Setup parameters for call to function osal_mem_free
        LCALL     ?Subroutine10 & 0xFFFF
//  880     pMtAfDataReq = NULL;
//  881   }
??CrossCallReturnLabel_14:
        SJMP      ??MT_AfDataStore_3
//  882   else
//  883   {
//  884     (void)osal_memcpy(pMtAfDataReq->data+idx, pBuf, len);
??MT_AfDataStore_4:
        ; Setup parameters for call to function osal_memcpy
        MOV       ?V0,R2
        MOV       ?V1,R3
        MOV       ?V2,#0x0
        MOV       R0,#?V0
        LCALL     ?PUSH_XSTACK_I_THREE
          CFI CFA_XSP16 add(XSP16, 15)
        MOV       R5,#0x0
        LCALL     ?Subroutine7 & 0xFFFF
??CrossCallReturnLabel_95:
        MOVX      A,@DPTR
        ADD       A,R6
        MOV       R2,A
        INC       DPTR
        MOVX      A,@DPTR
        LCALL     ?Subroutine34 & 0xFFFF
??CrossCallReturnLabel_128:
        LCALL     ?DEALLOC_XSTACK8
          CFI CFA_XSP16 add(XSP16, 12)
//  885     rtrn = afStatus_SUCCESS;
        MOV       DPL,?XSP + 0
        MOV       DPH,?XSP + 1
        CLR       A
??MT_AfDataStore_3:
        MOVX      @DPTR,A
//  886   }
//  887 
//  888   MT_BuildAndSendZToolResponse(((uint8)MT_RPC_CMD_SRSP | (uint8)MT_RPC_SYS_AF),
//  889                                                                 MT_AF_DATA_STORE, 1, &rtrn);
        ; Setup parameters for call to function MT_BuildAndSendZToolResponse
        MOV       R4,?XSP + 0
        MOV       R5,?XSP + 1
        MOV       R3,#0x1
        MOV       R2,#0x11
        MOV       R1,#0x64
        LCALL     `??MT_BuildAndSendZToolResponse::?relay`; Banked call to: MT_BuildAndSendZToolResponse
//  890 }
        MOV       A,#0x1
        LCALL     ?DEALLOC_XSTACK8
          CFI CFA_XSP16 add(XSP16, 11)
        MOV       R7,#0x3
        LJMP      ?BANKED_LEAVE_XDATA
          CFI EndBlock cfiBlock321

        RSEG BANKED_CODE:HUGECODE:NOROOT(0)
?Subroutine37:
          CFI Block cfiCond322 Using cfiCommon0
          CFI Function MT_AfDataRequest
          CFI Conditional ??CrossCallReturnLabel_56
          CFI R6 load(1, XDATA, add(CFA_XSP16, literal(-20)))
          CFI VB load(1, XDATA, add(CFA_XSP16, literal(-19)))
          CFI V0 load(1, XDATA, add(CFA_XSP16, literal(-18)))
          CFI V1 load(1, XDATA, add(CFA_XSP16, literal(-17)))
          CFI V2 load(1, XDATA, add(CFA_XSP16, literal(-16)))
          CFI V3 load(1, XDATA, add(CFA_XSP16, literal(-15)))
          CFI V4 load(1, XDATA, add(CFA_XSP16, literal(-14)))
          CFI V5 load(1, XDATA, add(CFA_XSP16, literal(-13)))
          CFI V6 load(1, XDATA, add(CFA_XSP16, literal(-12)))
          CFI V7 load(1, XDATA, add(CFA_XSP16, literal(-11)))
          CFI V8 load(1, XDATA, add(CFA_XSP16, literal(-10)))
          CFI V9 load(1, XDATA, add(CFA_XSP16, literal(-9)))
          CFI V10 load(1, XDATA, add(CFA_XSP16, literal(-8)))
          CFI V11 load(1, XDATA, add(CFA_XSP16, literal(-7)))
          CFI R7 load(1, XDATA, add(CFA_XSP16, literal(-6)))
          CFI ?RET_LOW load(1, XDATA, add(CFA_XSP16, literal(-5)))
          CFI ?RET_HIGH load(1, XDATA, add(CFA_XSP16, literal(-4)))
          CFI ?BRET_EXT load(1, XDATA, add(CFA_XSP16, literal(-3)))
          CFI DPL0 load(1, XDATA, add(CFA_XSP16, literal(-2)))
          CFI DPH0 load(1, XDATA, add(CFA_XSP16, literal(-1)))
          CFI CFA_SP SP+-2
          CFI CFA_XSP16 add(XSP16, 35)
          CFI Block cfiCond323 Using cfiCommon0
          CFI (cfiCond323) Function MT_AfDataStore
          CFI (cfiCond323) Conditional ??CrossCallReturnLabel_57
          CFI (cfiCond323) R6 load(1, XDATA, add(CFA_XSP16, literal(-11)))
          CFI (cfiCond323) VB load(1, XDATA, add(CFA_XSP16, literal(-10)))
          CFI (cfiCond323) V0 load(1, XDATA, add(CFA_XSP16, literal(-9)))
          CFI (cfiCond323) V1 load(1, XDATA, add(CFA_XSP16, literal(-8)))
          CFI (cfiCond323) V2 load(1, XDATA, add(CFA_XSP16, literal(-7)))
          CFI (cfiCond323) R7 load(1, XDATA, add(CFA_XSP16, literal(-6)))
          CFI (cfiCond323) ?RET_LOW load(1, XDATA, add(CFA_XSP16, literal(-5)))
          CFI (cfiCond323) ?RET_HIGH load(1, XDATA, add(CFA_XSP16, literal(-4)))
          CFI (cfiCond323) ?BRET_EXT load(1, XDATA, add(CFA_XSP16, literal(-3)))
          CFI (cfiCond323) DPL0 load(1, XDATA, add(CFA_XSP16, literal(-2)))
          CFI (cfiCond323) DPH0 load(1, XDATA, add(CFA_XSP16, literal(-1)))
          CFI (cfiCond323) CFA_SP SP+-2
          CFI (cfiCond323) CFA_XSP16 add(XSP16, 21)
          CFI Block cfiPicker324 Using cfiCommon1
          CFI (cfiPicker324) NoFunction
          CFI (cfiPicker324) Picker
        ADD       A,#0xe
        MOV       DPL,A
        CLR       A
        ADDC      A,R0
        MOV       DPH,A
        RET
          CFI EndBlock cfiCond322
          CFI EndBlock cfiCond323
          CFI EndBlock cfiPicker324

        RSEG BANKED_CODE:HUGECODE:NOROOT(0)
?Subroutine18:
          CFI Block cfiCond325 Using cfiCommon0
          CFI Function MT_AfDataRequest
          CFI Conditional ??CrossCallReturnLabel_21
          CFI R6 load(1, XDATA, add(CFA_XSP16, literal(-20)))
          CFI VB load(1, XDATA, add(CFA_XSP16, literal(-19)))
          CFI V0 load(1, XDATA, add(CFA_XSP16, literal(-18)))
          CFI V1 load(1, XDATA, add(CFA_XSP16, literal(-17)))
          CFI V2 load(1, XDATA, add(CFA_XSP16, literal(-16)))
          CFI V3 load(1, XDATA, add(CFA_XSP16, literal(-15)))
          CFI V4 load(1, XDATA, add(CFA_XSP16, literal(-14)))
          CFI V5 load(1, XDATA, add(CFA_XSP16, literal(-13)))
          CFI V6 load(1, XDATA, add(CFA_XSP16, literal(-12)))
          CFI V7 load(1, XDATA, add(CFA_XSP16, literal(-11)))
          CFI V8 load(1, XDATA, add(CFA_XSP16, literal(-10)))
          CFI V9 load(1, XDATA, add(CFA_XSP16, literal(-9)))
          CFI V10 load(1, XDATA, add(CFA_XSP16, literal(-8)))
          CFI V11 load(1, XDATA, add(CFA_XSP16, literal(-7)))
          CFI R7 load(1, XDATA, add(CFA_XSP16, literal(-6)))
          CFI ?RET_LOW load(1, XDATA, add(CFA_XSP16, literal(-5)))
          CFI ?RET_HIGH load(1, XDATA, add(CFA_XSP16, literal(-4)))
          CFI ?BRET_EXT load(1, XDATA, add(CFA_XSP16, literal(-3)))
          CFI DPL0 load(1, XDATA, add(CFA_XSP16, literal(-2)))
          CFI DPH0 load(1, XDATA, add(CFA_XSP16, literal(-1)))
          CFI CFA_SP SP+-2
          CFI CFA_XSP16 add(XSP16, 38)
          CFI Block cfiCond326 Using cfiCommon0
          CFI (cfiCond326) Function MT_AfDataStore
          CFI (cfiCond326) Conditional ??CrossCallReturnLabel_22
          CFI (cfiCond326) R6 load(1, XDATA, add(CFA_XSP16, literal(-11)))
          CFI (cfiCond326) VB load(1, XDATA, add(CFA_XSP16, literal(-10)))
          CFI (cfiCond326) V0 load(1, XDATA, add(CFA_XSP16, literal(-9)))
          CFI (cfiCond326) V1 load(1, XDATA, add(CFA_XSP16, literal(-8)))
          CFI (cfiCond326) V2 load(1, XDATA, add(CFA_XSP16, literal(-7)))
          CFI (cfiCond326) R7 load(1, XDATA, add(CFA_XSP16, literal(-6)))
          CFI (cfiCond326) ?RET_LOW load(1, XDATA, add(CFA_XSP16, literal(-5)))
          CFI (cfiCond326) ?RET_HIGH load(1, XDATA, add(CFA_XSP16, literal(-4)))
          CFI (cfiCond326) ?BRET_EXT load(1, XDATA, add(CFA_XSP16, literal(-3)))
          CFI (cfiCond326) DPL0 load(1, XDATA, add(CFA_XSP16, literal(-2)))
          CFI (cfiCond326) DPH0 load(1, XDATA, add(CFA_XSP16, literal(-1)))
          CFI (cfiCond326) CFA_SP SP+-2
          CFI (cfiCond326) CFA_XSP16 add(XSP16, 21)
          CFI Block cfiPicker327 Using cfiCommon1
          CFI (cfiPicker327) NoFunction
          CFI (cfiPicker327) Picker
        MOV       DPTR,#pMtAfDataReq
        MOVX      A,@DPTR
        ADD       A,#0x2
        MOV       R2,A
        INC       DPTR
        MOVX      A,@DPTR
        ADDC      A,#0x0
        MOV       R3,A
        RET
          CFI EndBlock cfiCond325
          CFI EndBlock cfiCond326
          CFI EndBlock cfiPicker327

        RSEG BANKED_CODE:HUGECODE:NOROOT(0)
?Subroutine10:
          CFI Block cfiCond328 Using cfiCommon0
          CFI Function MT_AfExec
          CFI Conditional ??CrossCallReturnLabel_13
          CFI R6 load(1, XDATA, add(CFA_XSP16, literal(-9)))
          CFI VB load(1, XDATA, add(CFA_XSP16, literal(-8)))
          CFI V0 load(1, XDATA, add(CFA_XSP16, literal(-7)))
          CFI R7 load(1, XDATA, add(CFA_XSP16, literal(-6)))
          CFI ?RET_LOW load(1, XDATA, add(CFA_XSP16, literal(-5)))
          CFI ?RET_HIGH load(1, XDATA, add(CFA_XSP16, literal(-4)))
          CFI ?BRET_EXT load(1, XDATA, add(CFA_XSP16, literal(-3)))
          CFI DPL0 load(1, XDATA, add(CFA_XSP16, literal(-2)))
          CFI DPH0 load(1, XDATA, add(CFA_XSP16, literal(-1)))
          CFI CFA_SP SP+-2
          CFI CFA_XSP16 add(XSP16, 9)
          CFI Block cfiCond329 Using cfiCommon0
          CFI (cfiCond329) Function MT_AfDataStore
          CFI (cfiCond329) Conditional ??CrossCallReturnLabel_14
          CFI (cfiCond329) R6 load(1, XDATA, add(CFA_XSP16, literal(-11)))
          CFI (cfiCond329) VB load(1, XDATA, add(CFA_XSP16, literal(-10)))
          CFI (cfiCond329) V0 load(1, XDATA, add(CFA_XSP16, literal(-9)))
          CFI (cfiCond329) V1 load(1, XDATA, add(CFA_XSP16, literal(-8)))
          CFI (cfiCond329) V2 load(1, XDATA, add(CFA_XSP16, literal(-7)))
          CFI (cfiCond329) R7 load(1, XDATA, add(CFA_XSP16, literal(-6)))
          CFI (cfiCond329) ?RET_LOW load(1, XDATA, add(CFA_XSP16, literal(-5)))
          CFI (cfiCond329) ?RET_HIGH load(1, XDATA, add(CFA_XSP16, literal(-4)))
          CFI (cfiCond329) ?BRET_EXT load(1, XDATA, add(CFA_XSP16, literal(-3)))
          CFI (cfiCond329) DPL0 load(1, XDATA, add(CFA_XSP16, literal(-2)))
          CFI (cfiCond329) DPH0 load(1, XDATA, add(CFA_XSP16, literal(-1)))
          CFI (cfiCond329) CFA_SP SP+-2
          CFI (cfiCond329) CFA_XSP16 add(XSP16, 12)
          CFI Block cfiPicker330 Using cfiCommon1
          CFI (cfiPicker330) NoFunction
          CFI (cfiPicker330) Picker
        MOV       DPTR,#pMtAfDataReq
        LCALL     ?Subroutine40 & 0xFFFF
??CrossCallReturnLabel_61:
        MOV       DPTR,#pMtAfDataReq
        CLR       A
        MOVX      @DPTR,A
        INC       DPTR
        RET
          CFI EndBlock cfiCond328
          CFI EndBlock cfiCond329
          CFI EndBlock cfiPicker330

        RSEG BANK_RELAYS:CODE:REORDER:NOROOT(0)
`??MT_AfExec::?relay`:
        CODE
        LCALL   ?BDISPATCH
        DATA24
        DC24    MT_AfExec

        RSEG BANK_RELAYS:CODE:REORDER:NOROOT(0)
`??MT_AfCommandProcessing::?relay`:
        CODE
        LCALL   ?BDISPATCH
        DATA24
        DC24    MT_AfCommandProcessing

        RSEG BANK_RELAYS:CODE:REORDER:NOROOT(0)
`??MT_AfRegister::?relay`:
        CODE
        LCALL   ?BDISPATCH
        DATA24
        DC24    MT_AfRegister

        RSEG BANK_RELAYS:CODE:REORDER:NOROOT(0)
`??MT_AfDataRequest::?relay`:
        CODE
        LCALL   ?BDISPATCH
        DATA24
        DC24    MT_AfDataRequest

        RSEG BANK_RELAYS:CODE:REORDER:NOROOT(0)
`??MT_AfDataRequestSrcRtg::?relay`:
        CODE
        LCALL   ?BDISPATCH
        DATA24
        DC24    MT_AfDataRequestSrcRtg

        RSEG BANK_RELAYS:CODE:REORDER:NOROOT(0)
`??MT_AfDataConfirm::?relay`:
        CODE
        LCALL   ?BDISPATCH
        DATA24
        DC24    MT_AfDataConfirm

        RSEG BANK_RELAYS:CODE:REORDER:NOROOT(0)
`??MT_AfIncomingMsg::?relay`:
        CODE
        LCALL   ?BDISPATCH
        DATA24
        DC24    MT_AfIncomingMsg

        RSEG BANK_RELAYS:CODE:REORDER:NOROOT(0)
`??MT_AfDataRetrieve::?relay`:
        CODE
        LCALL   ?BDISPATCH
        DATA24
        DC24    MT_AfDataRetrieve

        RSEG BANK_RELAYS:CODE:REORDER:NOROOT(0)
`??MT_AfDataStore::?relay`:
        CODE
        LCALL   ?BDISPATCH
        DATA24
        DC24    MT_AfDataStore

        END
//  891 
//  892 /**************************************************************************************************
//  893  * @fn          MT_AfAPSF_ConfigSet
//  894  *
//  895  * @brief       This function is the MT proxy for afAPSF_ConfigSet().
//  896  *
//  897  * input parameters
//  898  *
//  899  * @param       pBuf - Pointer to the received buffer.
//  900  *
//  901  * output parameters
//  902  *
//  903  * None.
//  904  *
//  905  * @return      None.
//  906  */
//  907 static void MT_AfAPSF_ConfigSet(uint8 *pBuf)
//  908 {
//  909   afAPSF_Config_t cfg = { pBuf[MT_RPC_POS_DAT0+1], pBuf[MT_RPC_POS_DAT0+2] };
//  910   afStatus_t rtrn = afAPSF_ConfigSet(pBuf[MT_RPC_POS_DAT0], &cfg);
//  911 
//  912   MT_BuildAndSendZToolResponse(((uint8)MT_RPC_CMD_SRSP | (uint8)MT_RPC_SYS_AF),
//  913                                        MT_AF_APSF_CONFIG_SET, 1, (uint8 *)&rtrn);
//  914 }
//  915 
//  916 /***************************************************************************************************
//  917 ***************************************************************************************************/
// 
// 3 525 bytes in segment BANKED_CODE
//    54 bytes in segment BANK_RELAYS
//     4 bytes in segment XDATA_Z
// 
//    54 bytes of CODE     memory
// 3 525 bytes of HUGECODE memory
//     4 bytes of XDATA    memory
//
//Errors: none
//Warnings: none
